ARM GAS  /tmp/ccyLpKvw.s 			page 1


   1              		.cpu cortex-m33
   2              		.arch armv8-m.main
   3              		.fpu fpv4-sp-d16
   4              		.arch_extension dsp
   5              		.eabi_attribute 27, 1
   6              		.eabi_attribute 28, 1
   7              		.eabi_attribute 20, 1
   8              		.eabi_attribute 21, 1
   9              		.eabi_attribute 23, 3
  10              		.eabi_attribute 24, 1
  11              		.eabi_attribute 25, 1
  12              		.eabi_attribute 26, 1
  13              		.eabi_attribute 30, 1
  14              		.eabi_attribute 34, 1
  15              		.eabi_attribute 18, 4
  16              		.file	"main.c"
  17              		.text
  18              	.Ltext0:
  19              		.cfi_sections	.debug_frame
  20              		.section	.text.MX_GPIO_Init,"ax",%progbits
  21              		.align	1
  22              		.syntax unified
  23              		.thumb
  24              		.thumb_func
  26              	MX_GPIO_Init:
  27              	.LFB1362:
  28              		.file 1 "Core/Src/main.c"
   1:Core/Src/main.c **** /* USER CODE BEGIN Header */
   2:Core/Src/main.c **** /**
   3:Core/Src/main.c ****   ******************************************************************************
   4:Core/Src/main.c ****   * @file           : main.c
   5:Core/Src/main.c ****   * @brief          : Main program body
   6:Core/Src/main.c ****   ******************************************************************************
   7:Core/Src/main.c ****   * @attention
   8:Core/Src/main.c ****   *
   9:Core/Src/main.c ****   * Copyright (c) 2024 STMicroelectronics.
  10:Core/Src/main.c ****   * All rights reserved.
  11:Core/Src/main.c ****   *
  12:Core/Src/main.c ****   * This software is licensed under terms that can be found in the LICENSE file
  13:Core/Src/main.c ****   * in the root directory of this software component.
  14:Core/Src/main.c ****   * If no LICENSE file comes with this software, it is provided AS-IS.
  15:Core/Src/main.c ****   *
  16:Core/Src/main.c ****   ******************************************************************************
  17:Core/Src/main.c ****   */
  18:Core/Src/main.c **** /* USER CODE END Header */
  19:Core/Src/main.c **** /* Includes ------------------------------------------------------------------*/
  20:Core/Src/main.c **** #include "main.h"
  21:Core/Src/main.c **** 
  22:Core/Src/main.c **** /* Private includes ----------------------------------------------------------*/
  23:Core/Src/main.c **** /* USER CODE BEGIN Includes */
  24:Core/Src/main.c **** 
  25:Core/Src/main.c **** /* USER CODE END Includes */
  26:Core/Src/main.c **** 
  27:Core/Src/main.c **** /* Private typedef -----------------------------------------------------------*/
  28:Core/Src/main.c **** /* USER CODE BEGIN PTD */
  29:Core/Src/main.c **** 
  30:Core/Src/main.c **** /* USER CODE END PTD */
ARM GAS  /tmp/ccyLpKvw.s 			page 2


  31:Core/Src/main.c **** 
  32:Core/Src/main.c **** /* Private define ------------------------------------------------------------*/
  33:Core/Src/main.c **** /* USER CODE BEGIN PD */
  34:Core/Src/main.c **** 
  35:Core/Src/main.c **** /* USER CODE END PD */
  36:Core/Src/main.c **** 
  37:Core/Src/main.c **** /* Private macro -------------------------------------------------------------*/
  38:Core/Src/main.c **** /* USER CODE BEGIN PM */
  39:Core/Src/main.c **** 
  40:Core/Src/main.c **** /* USER CODE END PM */
  41:Core/Src/main.c **** 
  42:Core/Src/main.c **** /* Private variables ---------------------------------------------------------*/
  43:Core/Src/main.c **** ADC_HandleTypeDef hadc1;
  44:Core/Src/main.c **** 
  45:Core/Src/main.c **** UART_HandleTypeDef huart1;
  46:Core/Src/main.c **** 
  47:Core/Src/main.c **** PCD_HandleTypeDef hpcd_USB_OTG_FS;
  48:Core/Src/main.c **** 
  49:Core/Src/main.c **** /* USER CODE BEGIN PV */
  50:Core/Src/main.c **** 
  51:Core/Src/main.c **** /* USER CODE END PV */
  52:Core/Src/main.c **** 
  53:Core/Src/main.c **** /* Private function prototypes -----------------------------------------------*/
  54:Core/Src/main.c **** void SystemClock_Config(void);
  55:Core/Src/main.c **** static void SystemPower_Config(void);
  56:Core/Src/main.c **** static void MX_GPIO_Init(void);
  57:Core/Src/main.c **** static void MX_ADC1_Init(void);
  58:Core/Src/main.c **** static void MX_ICACHE_Init(void);
  59:Core/Src/main.c **** static void MX_UCPD1_Init(void);
  60:Core/Src/main.c **** static void MX_USART1_UART_Init(void);
  61:Core/Src/main.c **** static void MX_USB_OTG_FS_PCD_Init(void);
  62:Core/Src/main.c **** static void MX_MEMORYMAP_Init(void);
  63:Core/Src/main.c **** /* USER CODE BEGIN PFP */
  64:Core/Src/main.c **** 
  65:Core/Src/main.c **** /* USER CODE END PFP */
  66:Core/Src/main.c **** 
  67:Core/Src/main.c **** /* Private user code ---------------------------------------------------------*/
  68:Core/Src/main.c **** /* USER CODE BEGIN 0 */
  69:Core/Src/main.c **** 
  70:Core/Src/main.c **** /* USER CODE END 0 */
  71:Core/Src/main.c **** 
  72:Core/Src/main.c **** /**
  73:Core/Src/main.c ****   * @brief  The application entry point.
  74:Core/Src/main.c ****   * @retval int
  75:Core/Src/main.c ****   */
  76:Core/Src/main.c **** int main(void)
  77:Core/Src/main.c **** {
  78:Core/Src/main.c ****   /* USER CODE BEGIN 1 */
  79:Core/Src/main.c **** 
  80:Core/Src/main.c ****   /* USER CODE END 1 */
  81:Core/Src/main.c **** 
  82:Core/Src/main.c ****   /* MCU Configuration--------------------------------------------------------*/
  83:Core/Src/main.c **** 
  84:Core/Src/main.c ****   /* Reset of all peripherals, Initializes the Flash interface and the Systick. */
  85:Core/Src/main.c ****   HAL_Init();
  86:Core/Src/main.c **** 
  87:Core/Src/main.c ****   /* USER CODE BEGIN Init */
ARM GAS  /tmp/ccyLpKvw.s 			page 3


  88:Core/Src/main.c **** 
  89:Core/Src/main.c ****   /* USER CODE END Init */
  90:Core/Src/main.c **** 
  91:Core/Src/main.c ****   /* Configure the system clock */
  92:Core/Src/main.c ****   SystemClock_Config();
  93:Core/Src/main.c **** 
  94:Core/Src/main.c ****   /* Configure the System Power */
  95:Core/Src/main.c ****   SystemPower_Config();
  96:Core/Src/main.c **** 
  97:Core/Src/main.c ****   /* USER CODE BEGIN SysInit */
  98:Core/Src/main.c **** 
  99:Core/Src/main.c ****   /* USER CODE END SysInit */
 100:Core/Src/main.c **** 
 101:Core/Src/main.c ****   /* Initialize all configured peripherals */
 102:Core/Src/main.c ****   MX_GPIO_Init();
 103:Core/Src/main.c ****   MX_ADC1_Init();
 104:Core/Src/main.c ****   MX_ICACHE_Init();
 105:Core/Src/main.c ****   MX_UCPD1_Init();
 106:Core/Src/main.c ****   MX_USART1_UART_Init();
 107:Core/Src/main.c ****   MX_USB_OTG_FS_PCD_Init();
 108:Core/Src/main.c ****   MX_MEMORYMAP_Init();
 109:Core/Src/main.c ****   /* USER CODE BEGIN 2 */
 110:Core/Src/main.c **** 
 111:Core/Src/main.c ****   /* USER CODE END 2 */
 112:Core/Src/main.c **** 
 113:Core/Src/main.c ****   /* Infinite loop */
 114:Core/Src/main.c ****   /* USER CODE BEGIN WHILE */
 115:Core/Src/main.c ****   while (1)
 116:Core/Src/main.c ****   {
 117:Core/Src/main.c ****     /* USER CODE END WHILE */
 118:Core/Src/main.c **** 
 119:Core/Src/main.c ****     /* USER CODE BEGIN 3 */
 120:Core/Src/main.c ****   }
 121:Core/Src/main.c ****   /* USER CODE END 3 */
 122:Core/Src/main.c **** }
 123:Core/Src/main.c **** 
 124:Core/Src/main.c **** /**
 125:Core/Src/main.c ****   * @brief System Clock Configuration
 126:Core/Src/main.c ****   * @retval None
 127:Core/Src/main.c ****   */
 128:Core/Src/main.c **** void SystemClock_Config(void)
 129:Core/Src/main.c **** {
 130:Core/Src/main.c ****   RCC_OscInitTypeDef RCC_OscInitStruct = {0};
 131:Core/Src/main.c ****   RCC_ClkInitTypeDef RCC_ClkInitStruct = {0};
 132:Core/Src/main.c **** 
 133:Core/Src/main.c ****   /** Configure the main internal regulator output voltage
 134:Core/Src/main.c ****   */
 135:Core/Src/main.c ****   if (HAL_PWREx_ControlVoltageScaling(PWR_REGULATOR_VOLTAGE_SCALE1) != HAL_OK)
 136:Core/Src/main.c ****   {
 137:Core/Src/main.c ****     Error_Handler();
 138:Core/Src/main.c ****   }
 139:Core/Src/main.c **** 
 140:Core/Src/main.c ****   /** Initializes the CPU, AHB and APB buses clocks
 141:Core/Src/main.c ****   */
 142:Core/Src/main.c ****   RCC_OscInitStruct.OscillatorType = RCC_OSCILLATORTYPE_HSI48|RCC_OSCILLATORTYPE_HSI
 143:Core/Src/main.c ****                               |RCC_OSCILLATORTYPE_MSI;
 144:Core/Src/main.c ****   RCC_OscInitStruct.HSIState = RCC_HSI_ON;
ARM GAS  /tmp/ccyLpKvw.s 			page 4


 145:Core/Src/main.c ****   RCC_OscInitStruct.HSI48State = RCC_HSI48_ON;
 146:Core/Src/main.c ****   RCC_OscInitStruct.HSICalibrationValue = RCC_HSICALIBRATION_DEFAULT;
 147:Core/Src/main.c ****   RCC_OscInitStruct.MSIState = RCC_MSI_ON;
 148:Core/Src/main.c ****   RCC_OscInitStruct.MSICalibrationValue = RCC_MSICALIBRATION_DEFAULT;
 149:Core/Src/main.c ****   RCC_OscInitStruct.MSIClockRange = RCC_MSIRANGE_4;
 150:Core/Src/main.c ****   RCC_OscInitStruct.PLL.PLLState = RCC_PLL_ON;
 151:Core/Src/main.c ****   RCC_OscInitStruct.PLL.PLLSource = RCC_PLLSOURCE_MSI;
 152:Core/Src/main.c ****   RCC_OscInitStruct.PLL.PLLMBOOST = RCC_PLLMBOOST_DIV1;
 153:Core/Src/main.c ****   RCC_OscInitStruct.PLL.PLLM = 1;
 154:Core/Src/main.c ****   RCC_OscInitStruct.PLL.PLLN = 80;
 155:Core/Src/main.c ****   RCC_OscInitStruct.PLL.PLLP = 2;
 156:Core/Src/main.c ****   RCC_OscInitStruct.PLL.PLLQ = 2;
 157:Core/Src/main.c ****   RCC_OscInitStruct.PLL.PLLR = 2;
 158:Core/Src/main.c ****   RCC_OscInitStruct.PLL.PLLRGE = RCC_PLLVCIRANGE_0;
 159:Core/Src/main.c ****   RCC_OscInitStruct.PLL.PLLFRACN = 0;
 160:Core/Src/main.c ****   if (HAL_RCC_OscConfig(&RCC_OscInitStruct) != HAL_OK)
 161:Core/Src/main.c ****   {
 162:Core/Src/main.c ****     Error_Handler();
 163:Core/Src/main.c ****   }
 164:Core/Src/main.c **** 
 165:Core/Src/main.c ****   /** Initializes the CPU, AHB and APB buses clocks
 166:Core/Src/main.c ****   */
 167:Core/Src/main.c ****   RCC_ClkInitStruct.ClockType = RCC_CLOCKTYPE_HCLK|RCC_CLOCKTYPE_SYSCLK
 168:Core/Src/main.c ****                               |RCC_CLOCKTYPE_PCLK1|RCC_CLOCKTYPE_PCLK2
 169:Core/Src/main.c ****                               |RCC_CLOCKTYPE_PCLK3;
 170:Core/Src/main.c ****   RCC_ClkInitStruct.SYSCLKSource = RCC_SYSCLKSOURCE_PLLCLK;
 171:Core/Src/main.c ****   RCC_ClkInitStruct.AHBCLKDivider = RCC_SYSCLK_DIV1;
 172:Core/Src/main.c ****   RCC_ClkInitStruct.APB1CLKDivider = RCC_HCLK_DIV1;
 173:Core/Src/main.c ****   RCC_ClkInitStruct.APB2CLKDivider = RCC_HCLK_DIV1;
 174:Core/Src/main.c ****   RCC_ClkInitStruct.APB3CLKDivider = RCC_HCLK_DIV1;
 175:Core/Src/main.c **** 
 176:Core/Src/main.c ****   if (HAL_RCC_ClockConfig(&RCC_ClkInitStruct, FLASH_LATENCY_4) != HAL_OK)
 177:Core/Src/main.c ****   {
 178:Core/Src/main.c ****     Error_Handler();
 179:Core/Src/main.c ****   }
 180:Core/Src/main.c **** }
 181:Core/Src/main.c **** 
 182:Core/Src/main.c **** /**
 183:Core/Src/main.c ****   * @brief Power Configuration
 184:Core/Src/main.c ****   * @retval None
 185:Core/Src/main.c ****   */
 186:Core/Src/main.c **** static void SystemPower_Config(void)
 187:Core/Src/main.c **** {
 188:Core/Src/main.c ****   HAL_PWREx_EnableVddIO2();
 189:Core/Src/main.c **** 
 190:Core/Src/main.c ****   /*
 191:Core/Src/main.c ****    * Switch to SMPS regulator instead of LDO
 192:Core/Src/main.c ****    */
 193:Core/Src/main.c ****   if (HAL_PWREx_ConfigSupply(PWR_SMPS_SUPPLY) != HAL_OK)
 194:Core/Src/main.c ****   {
 195:Core/Src/main.c ****     Error_Handler();
 196:Core/Src/main.c ****   }
 197:Core/Src/main.c **** /* USER CODE BEGIN PWR */
 198:Core/Src/main.c **** /* USER CODE END PWR */
 199:Core/Src/main.c **** }
 200:Core/Src/main.c **** 
 201:Core/Src/main.c **** /**
ARM GAS  /tmp/ccyLpKvw.s 			page 5


 202:Core/Src/main.c ****   * @brief ADC1 Initialization Function
 203:Core/Src/main.c ****   * @param None
 204:Core/Src/main.c ****   * @retval None
 205:Core/Src/main.c ****   */
 206:Core/Src/main.c **** static void MX_ADC1_Init(void)
 207:Core/Src/main.c **** {
 208:Core/Src/main.c **** 
 209:Core/Src/main.c ****   /* USER CODE BEGIN ADC1_Init 0 */
 210:Core/Src/main.c **** 
 211:Core/Src/main.c ****   /* USER CODE END ADC1_Init 0 */
 212:Core/Src/main.c **** 
 213:Core/Src/main.c ****   /* USER CODE BEGIN ADC1_Init 1 */
 214:Core/Src/main.c **** 
 215:Core/Src/main.c ****   /* USER CODE END ADC1_Init 1 */
 216:Core/Src/main.c **** 
 217:Core/Src/main.c ****   /** Common config
 218:Core/Src/main.c ****   */
 219:Core/Src/main.c ****   hadc1.Instance = ADC1;
 220:Core/Src/main.c ****   hadc1.Init.ClockPrescaler = ADC_CLOCK_ASYNC_DIV1;
 221:Core/Src/main.c ****   hadc1.Init.Resolution = ADC_RESOLUTION_14B;
 222:Core/Src/main.c ****   hadc1.Init.GainCompensation = 0;
 223:Core/Src/main.c ****   hadc1.Init.ScanConvMode = ADC_SCAN_DISABLE;
 224:Core/Src/main.c ****   hadc1.Init.EOCSelection = ADC_EOC_SINGLE_CONV;
 225:Core/Src/main.c ****   hadc1.Init.LowPowerAutoWait = DISABLE;
 226:Core/Src/main.c ****   hadc1.Init.ContinuousConvMode = DISABLE;
 227:Core/Src/main.c ****   hadc1.Init.NbrOfConversion = 1;
 228:Core/Src/main.c ****   hadc1.Init.DiscontinuousConvMode = DISABLE;
 229:Core/Src/main.c ****   hadc1.Init.DMAContinuousRequests = DISABLE;
 230:Core/Src/main.c ****   hadc1.Init.TriggerFrequencyMode = ADC_TRIGGER_FREQ_HIGH;
 231:Core/Src/main.c ****   hadc1.Init.Overrun = ADC_OVR_DATA_PRESERVED;
 232:Core/Src/main.c ****   hadc1.Init.LeftBitShift = ADC_LEFTBITSHIFT_NONE;
 233:Core/Src/main.c ****   hadc1.Init.ConversionDataManagement = ADC_CONVERSIONDATA_DR;
 234:Core/Src/main.c ****   hadc1.Init.OversamplingMode = DISABLE;
 235:Core/Src/main.c ****   if (HAL_ADC_Init(&hadc1) != HAL_OK)
 236:Core/Src/main.c ****   {
 237:Core/Src/main.c ****     Error_Handler();
 238:Core/Src/main.c ****   }
 239:Core/Src/main.c ****   /* USER CODE BEGIN ADC1_Init 2 */
 240:Core/Src/main.c **** 
 241:Core/Src/main.c ****   /* USER CODE END ADC1_Init 2 */
 242:Core/Src/main.c **** 
 243:Core/Src/main.c **** }
 244:Core/Src/main.c **** 
 245:Core/Src/main.c **** /**
 246:Core/Src/main.c ****   * @brief ICACHE Initialization Function
 247:Core/Src/main.c ****   * @param None
 248:Core/Src/main.c ****   * @retval None
 249:Core/Src/main.c ****   */
 250:Core/Src/main.c **** static void MX_ICACHE_Init(void)
 251:Core/Src/main.c **** {
 252:Core/Src/main.c **** 
 253:Core/Src/main.c ****   /* USER CODE BEGIN ICACHE_Init 0 */
 254:Core/Src/main.c **** 
 255:Core/Src/main.c ****   /* USER CODE END ICACHE_Init 0 */
 256:Core/Src/main.c **** 
 257:Core/Src/main.c ****   ICACHE_RegionConfigTypeDef pRegionConfig = {0};
 258:Core/Src/main.c **** 
ARM GAS  /tmp/ccyLpKvw.s 			page 6


 259:Core/Src/main.c ****   /* USER CODE BEGIN ICACHE_Init 1 */
 260:Core/Src/main.c **** 
 261:Core/Src/main.c ****   /* USER CODE END ICACHE_Init 1 */
 262:Core/Src/main.c **** 
 263:Core/Src/main.c ****   /** Configure and enable a region for memory remapping.
 264:Core/Src/main.c ****   */
 265:Core/Src/main.c ****   if (HAL_ICACHE_Disable() != HAL_OK)
 266:Core/Src/main.c ****   {
 267:Core/Src/main.c ****     Error_Handler();
 268:Core/Src/main.c ****   }
 269:Core/Src/main.c ****   pRegionConfig.BaseAddress = 0x10000000;
 270:Core/Src/main.c ****   pRegionConfig.RemapAddress = 0x60000000;
 271:Core/Src/main.c ****   pRegionConfig.Size = ICACHE_REGIONSIZE_2MB;
 272:Core/Src/main.c ****   pRegionConfig.TrafficRoute = ICACHE_MASTER1_PORT;
 273:Core/Src/main.c ****   pRegionConfig.OutputBurstType = ICACHE_OUTPUT_BURST_WRAP;
 274:Core/Src/main.c ****   if (HAL_ICACHE_EnableRemapRegion(_NULL, &pRegionConfig) != HAL_OK)
 275:Core/Src/main.c ****   {
 276:Core/Src/main.c ****     Error_Handler();
 277:Core/Src/main.c ****   }
 278:Core/Src/main.c **** 
 279:Core/Src/main.c ****   /** Enable instruction cache in 1-way (direct mapped cache)
 280:Core/Src/main.c ****   */
 281:Core/Src/main.c ****   if (HAL_ICACHE_ConfigAssociativityMode(ICACHE_1WAY) != HAL_OK)
 282:Core/Src/main.c ****   {
 283:Core/Src/main.c ****     Error_Handler();
 284:Core/Src/main.c ****   }
 285:Core/Src/main.c ****   if (HAL_ICACHE_Enable() != HAL_OK)
 286:Core/Src/main.c ****   {
 287:Core/Src/main.c ****     Error_Handler();
 288:Core/Src/main.c ****   }
 289:Core/Src/main.c ****   /* USER CODE BEGIN ICACHE_Init 2 */
 290:Core/Src/main.c **** 
 291:Core/Src/main.c ****   /* USER CODE END ICACHE_Init 2 */
 292:Core/Src/main.c **** 
 293:Core/Src/main.c **** }
 294:Core/Src/main.c **** 
 295:Core/Src/main.c **** /**
 296:Core/Src/main.c ****   * @brief MEMORYMAP Initialization Function
 297:Core/Src/main.c ****   * @param None
 298:Core/Src/main.c ****   * @retval None
 299:Core/Src/main.c ****   */
 300:Core/Src/main.c **** static void MX_MEMORYMAP_Init(void)
 301:Core/Src/main.c **** {
 302:Core/Src/main.c **** 
 303:Core/Src/main.c ****   /* USER CODE BEGIN MEMORYMAP_Init 0 */
 304:Core/Src/main.c **** 
 305:Core/Src/main.c ****   /* USER CODE END MEMORYMAP_Init 0 */
 306:Core/Src/main.c **** 
 307:Core/Src/main.c ****   /* USER CODE BEGIN MEMORYMAP_Init 1 */
 308:Core/Src/main.c **** 
 309:Core/Src/main.c ****   /* USER CODE END MEMORYMAP_Init 1 */
 310:Core/Src/main.c ****   /* USER CODE BEGIN MEMORYMAP_Init 2 */
 311:Core/Src/main.c **** 
 312:Core/Src/main.c ****   /* USER CODE END MEMORYMAP_Init 2 */
 313:Core/Src/main.c **** 
 314:Core/Src/main.c **** }
 315:Core/Src/main.c **** 
ARM GAS  /tmp/ccyLpKvw.s 			page 7


 316:Core/Src/main.c **** /**
 317:Core/Src/main.c ****   * @brief UCPD1 Initialization Function
 318:Core/Src/main.c ****   * @param None
 319:Core/Src/main.c ****   * @retval None
 320:Core/Src/main.c ****   */
 321:Core/Src/main.c **** static void MX_UCPD1_Init(void)
 322:Core/Src/main.c **** {
 323:Core/Src/main.c **** 
 324:Core/Src/main.c ****   /* USER CODE BEGIN UCPD1_Init 0 */
 325:Core/Src/main.c **** 
 326:Core/Src/main.c ****   /* USER CODE END UCPD1_Init 0 */
 327:Core/Src/main.c **** 
 328:Core/Src/main.c ****   LL_GPIO_InitTypeDef GPIO_InitStruct = {0};
 329:Core/Src/main.c **** 
 330:Core/Src/main.c ****   /* Peripheral clock enable */
 331:Core/Src/main.c ****   LL_APB1_GRP2_EnableClock(LL_APB1_GRP2_PERIPH_UCPD1);
 332:Core/Src/main.c **** 
 333:Core/Src/main.c ****   LL_AHB2_GRP1_EnableClock(LL_AHB2_GRP1_PERIPH_GPIOB);
 334:Core/Src/main.c ****   LL_AHB2_GRP1_EnableClock(LL_AHB2_GRP1_PERIPH_GPIOA);
 335:Core/Src/main.c ****   /**UCPD1 GPIO Configuration
 336:Core/Src/main.c ****   PB15   ------> UCPD1_CC2
 337:Core/Src/main.c ****   PA15 (JTDI)   ------> UCPD1_CC1
 338:Core/Src/main.c ****   */
 339:Core/Src/main.c ****   GPIO_InitStruct.Pin = LL_GPIO_PIN_15;
 340:Core/Src/main.c ****   GPIO_InitStruct.Mode = LL_GPIO_MODE_ANALOG;
 341:Core/Src/main.c ****   GPIO_InitStruct.Pull = LL_GPIO_PULL_NO;
 342:Core/Src/main.c ****   LL_GPIO_Init(GPIOB, &GPIO_InitStruct);
 343:Core/Src/main.c **** 
 344:Core/Src/main.c ****   GPIO_InitStruct.Pin = LL_GPIO_PIN_15;
 345:Core/Src/main.c ****   GPIO_InitStruct.Mode = LL_GPIO_MODE_ANALOG;
 346:Core/Src/main.c ****   GPIO_InitStruct.Pull = LL_GPIO_PULL_NO;
 347:Core/Src/main.c ****   LL_GPIO_Init(GPIOA, &GPIO_InitStruct);
 348:Core/Src/main.c **** 
 349:Core/Src/main.c ****   /* USER CODE BEGIN UCPD1_Init 1 */
 350:Core/Src/main.c **** 
 351:Core/Src/main.c ****   /* USER CODE END UCPD1_Init 1 */
 352:Core/Src/main.c ****   /* USER CODE BEGIN UCPD1_Init 2 */
 353:Core/Src/main.c **** 
 354:Core/Src/main.c ****   /* USER CODE END UCPD1_Init 2 */
 355:Core/Src/main.c **** 
 356:Core/Src/main.c **** }
 357:Core/Src/main.c **** 
 358:Core/Src/main.c **** /**
 359:Core/Src/main.c ****   * @brief USART1 Initialization Function
 360:Core/Src/main.c ****   * @param None
 361:Core/Src/main.c ****   * @retval None
 362:Core/Src/main.c ****   */
 363:Core/Src/main.c **** static void MX_USART1_UART_Init(void)
 364:Core/Src/main.c **** {
 365:Core/Src/main.c **** 
 366:Core/Src/main.c ****   /* USER CODE BEGIN USART1_Init 0 */
 367:Core/Src/main.c **** 
 368:Core/Src/main.c ****   /* USER CODE END USART1_Init 0 */
 369:Core/Src/main.c **** 
 370:Core/Src/main.c ****   /* USER CODE BEGIN USART1_Init 1 */
 371:Core/Src/main.c **** 
 372:Core/Src/main.c ****   /* USER CODE END USART1_Init 1 */
ARM GAS  /tmp/ccyLpKvw.s 			page 8


 373:Core/Src/main.c ****   huart1.Instance = USART1;
 374:Core/Src/main.c ****   huart1.Init.BaudRate = 115200;
 375:Core/Src/main.c ****   huart1.Init.WordLength = UART_WORDLENGTH_8B;
 376:Core/Src/main.c ****   huart1.Init.StopBits = UART_STOPBITS_1;
 377:Core/Src/main.c ****   huart1.Init.Parity = UART_PARITY_NONE;
 378:Core/Src/main.c ****   huart1.Init.Mode = UART_MODE_TX_RX;
 379:Core/Src/main.c ****   huart1.Init.HwFlowCtl = UART_HWCONTROL_NONE;
 380:Core/Src/main.c ****   huart1.Init.OverSampling = UART_OVERSAMPLING_16;
 381:Core/Src/main.c ****   huart1.Init.OneBitSampling = UART_ONE_BIT_SAMPLE_DISABLE;
 382:Core/Src/main.c ****   huart1.Init.ClockPrescaler = UART_PRESCALER_DIV1;
 383:Core/Src/main.c ****   huart1.AdvancedInit.AdvFeatureInit = UART_ADVFEATURE_NO_INIT;
 384:Core/Src/main.c ****   if (HAL_UART_Init(&huart1) != HAL_OK)
 385:Core/Src/main.c ****   {
 386:Core/Src/main.c ****     Error_Handler();
 387:Core/Src/main.c ****   }
 388:Core/Src/main.c ****   if (HAL_UARTEx_SetTxFifoThreshold(&huart1, UART_TXFIFO_THRESHOLD_1_8) != HAL_OK)
 389:Core/Src/main.c ****   {
 390:Core/Src/main.c ****     Error_Handler();
 391:Core/Src/main.c ****   }
 392:Core/Src/main.c ****   if (HAL_UARTEx_SetRxFifoThreshold(&huart1, UART_RXFIFO_THRESHOLD_1_8) != HAL_OK)
 393:Core/Src/main.c ****   {
 394:Core/Src/main.c ****     Error_Handler();
 395:Core/Src/main.c ****   }
 396:Core/Src/main.c ****   if (HAL_UARTEx_DisableFifoMode(&huart1) != HAL_OK)
 397:Core/Src/main.c ****   {
 398:Core/Src/main.c ****     Error_Handler();
 399:Core/Src/main.c ****   }
 400:Core/Src/main.c ****   /* USER CODE BEGIN USART1_Init 2 */
 401:Core/Src/main.c **** 
 402:Core/Src/main.c ****   /* USER CODE END USART1_Init 2 */
 403:Core/Src/main.c **** 
 404:Core/Src/main.c **** }
 405:Core/Src/main.c **** 
 406:Core/Src/main.c **** /**
 407:Core/Src/main.c ****   * @brief USB_OTG_FS Initialization Function
 408:Core/Src/main.c ****   * @param None
 409:Core/Src/main.c ****   * @retval None
 410:Core/Src/main.c ****   */
 411:Core/Src/main.c **** static void MX_USB_OTG_FS_PCD_Init(void)
 412:Core/Src/main.c **** {
 413:Core/Src/main.c **** 
 414:Core/Src/main.c ****   /* USER CODE BEGIN USB_OTG_FS_Init 0 */
 415:Core/Src/main.c **** 
 416:Core/Src/main.c ****   /* USER CODE END USB_OTG_FS_Init 0 */
 417:Core/Src/main.c **** 
 418:Core/Src/main.c ****   /* USER CODE BEGIN USB_OTG_FS_Init 1 */
 419:Core/Src/main.c **** 
 420:Core/Src/main.c ****   /* USER CODE END USB_OTG_FS_Init 1 */
 421:Core/Src/main.c ****   hpcd_USB_OTG_FS.Instance = USB_OTG_FS;
 422:Core/Src/main.c ****   hpcd_USB_OTG_FS.Init.dev_endpoints = 6;
 423:Core/Src/main.c ****   hpcd_USB_OTG_FS.Init.speed = PCD_SPEED_FULL;
 424:Core/Src/main.c ****   hpcd_USB_OTG_FS.Init.phy_itface = PCD_PHY_EMBEDDED;
 425:Core/Src/main.c ****   hpcd_USB_OTG_FS.Init.Sof_enable = DISABLE;
 426:Core/Src/main.c ****   hpcd_USB_OTG_FS.Init.low_power_enable = DISABLE;
 427:Core/Src/main.c ****   hpcd_USB_OTG_FS.Init.lpm_enable = DISABLE;
 428:Core/Src/main.c ****   hpcd_USB_OTG_FS.Init.battery_charging_enable = DISABLE;
 429:Core/Src/main.c ****   hpcd_USB_OTG_FS.Init.use_dedicated_ep1 = DISABLE;
ARM GAS  /tmp/ccyLpKvw.s 			page 9


 430:Core/Src/main.c ****   hpcd_USB_OTG_FS.Init.vbus_sensing_enable = DISABLE;
 431:Core/Src/main.c ****   hpcd_USB_OTG_FS.Init.dma_enable = DISABLE;
 432:Core/Src/main.c ****   if (HAL_PCD_Init(&hpcd_USB_OTG_FS) != HAL_OK)
 433:Core/Src/main.c ****   {
 434:Core/Src/main.c ****     Error_Handler();
 435:Core/Src/main.c ****   }
 436:Core/Src/main.c ****   /* USER CODE BEGIN USB_OTG_FS_Init 2 */
 437:Core/Src/main.c **** 
 438:Core/Src/main.c ****   /* USER CODE END USB_OTG_FS_Init 2 */
 439:Core/Src/main.c **** 
 440:Core/Src/main.c **** }
 441:Core/Src/main.c **** 
 442:Core/Src/main.c **** /**
 443:Core/Src/main.c ****   * @brief GPIO Initialization Function
 444:Core/Src/main.c ****   * @param None
 445:Core/Src/main.c ****   * @retval None
 446:Core/Src/main.c ****   */
 447:Core/Src/main.c **** static void MX_GPIO_Init(void)
 448:Core/Src/main.c **** {
  29              		.loc 1 448 1 view -0
  30              		.cfi_startproc
  31              		@ args = 0, pretend = 0, frame = 40
  32              		@ frame_needed = 0, uses_anonymous_args = 0
  33 0000 2DE9F043 		push	{r4, r5, r6, r7, r8, r9, lr}
  34              	.LCFI0:
  35              		.cfi_def_cfa_offset 28
  36              		.cfi_offset 4, -28
  37              		.cfi_offset 5, -24
  38              		.cfi_offset 6, -20
  39              		.cfi_offset 7, -16
  40              		.cfi_offset 8, -12
  41              		.cfi_offset 9, -8
  42              		.cfi_offset 14, -4
  43 0004 8BB0     		sub	sp, sp, #44
  44              	.LCFI1:
  45              		.cfi_def_cfa_offset 72
 449:Core/Src/main.c ****   GPIO_InitTypeDef GPIO_InitStruct = {0};
  46              		.loc 1 449 3 view .LVU1
  47              		.loc 1 449 20 is_stmt 0 view .LVU2
  48 0006 0024     		movs	r4, #0
  49 0008 0594     		str	r4, [sp, #20]
  50 000a 0694     		str	r4, [sp, #24]
  51 000c 0794     		str	r4, [sp, #28]
  52 000e 0894     		str	r4, [sp, #32]
  53 0010 0994     		str	r4, [sp, #36]
 450:Core/Src/main.c **** /* USER CODE BEGIN MX_GPIO_Init_1 */
 451:Core/Src/main.c **** /* USER CODE END MX_GPIO_Init_1 */
 452:Core/Src/main.c **** 
 453:Core/Src/main.c ****   /* GPIO Ports Clock Enable */
 454:Core/Src/main.c ****   __HAL_RCC_GPIOC_CLK_ENABLE();
  54              		.loc 1 454 3 is_stmt 1 view .LVU3
  55              	.LBB10:
  56              		.loc 1 454 3 view .LVU4
  57              		.loc 1 454 3 view .LVU5
  58 0012 414B     		ldr	r3, .L3
  59 0014 D3F88C20 		ldr	r2, [r3, #140]
  60 0018 42F00402 		orr	r2, r2, #4
ARM GAS  /tmp/ccyLpKvw.s 			page 10


  61 001c C3F88C20 		str	r2, [r3, #140]
  62              		.loc 1 454 3 view .LVU6
  63 0020 D3F88C20 		ldr	r2, [r3, #140]
  64 0024 02F00402 		and	r2, r2, #4
  65 0028 0192     		str	r2, [sp, #4]
  66              		.loc 1 454 3 view .LVU7
  67 002a 019A     		ldr	r2, [sp, #4]
  68              	.LBE10:
  69              		.loc 1 454 3 view .LVU8
 455:Core/Src/main.c ****   __HAL_RCC_GPIOB_CLK_ENABLE();
  70              		.loc 1 455 3 view .LVU9
  71              	.LBB11:
  72              		.loc 1 455 3 view .LVU10
  73              		.loc 1 455 3 view .LVU11
  74 002c D3F88C20 		ldr	r2, [r3, #140]
  75 0030 42F00202 		orr	r2, r2, #2
  76 0034 C3F88C20 		str	r2, [r3, #140]
  77              		.loc 1 455 3 view .LVU12
  78 0038 D3F88C20 		ldr	r2, [r3, #140]
  79 003c 02F00202 		and	r2, r2, #2
  80 0040 0292     		str	r2, [sp, #8]
  81              		.loc 1 455 3 view .LVU13
  82 0042 029A     		ldr	r2, [sp, #8]
  83              	.LBE11:
  84              		.loc 1 455 3 view .LVU14
 456:Core/Src/main.c ****   __HAL_RCC_GPIOG_CLK_ENABLE();
  85              		.loc 1 456 3 view .LVU15
  86              	.LBB12:
  87              		.loc 1 456 3 view .LVU16
  88              		.loc 1 456 3 view .LVU17
  89 0044 D3F88C20 		ldr	r2, [r3, #140]
  90 0048 42F04002 		orr	r2, r2, #64
  91 004c C3F88C20 		str	r2, [r3, #140]
  92              		.loc 1 456 3 view .LVU18
  93 0050 D3F88C20 		ldr	r2, [r3, #140]
  94 0054 02F04002 		and	r2, r2, #64
  95 0058 0392     		str	r2, [sp, #12]
  96              		.loc 1 456 3 view .LVU19
  97 005a 039A     		ldr	r2, [sp, #12]
  98              	.LBE12:
  99              		.loc 1 456 3 view .LVU20
 457:Core/Src/main.c ****   __HAL_RCC_GPIOA_CLK_ENABLE();
 100              		.loc 1 457 3 view .LVU21
 101              	.LBB13:
 102              		.loc 1 457 3 view .LVU22
 103              		.loc 1 457 3 view .LVU23
 104 005c D3F88C20 		ldr	r2, [r3, #140]
 105 0060 42F00102 		orr	r2, r2, #1
 106 0064 C3F88C20 		str	r2, [r3, #140]
 107              		.loc 1 457 3 view .LVU24
 108 0068 D3F88C30 		ldr	r3, [r3, #140]
 109 006c 03F00103 		and	r3, r3, #1
 110 0070 0493     		str	r3, [sp, #16]
 111              		.loc 1 457 3 view .LVU25
 112 0072 049B     		ldr	r3, [sp, #16]
 113              	.LBE13:
 114              		.loc 1 457 3 view .LVU26
ARM GAS  /tmp/ccyLpKvw.s 			page 11


 458:Core/Src/main.c **** 
 459:Core/Src/main.c ****   /*Configure GPIO pin Output Level */
 460:Core/Src/main.c ****   HAL_GPIO_WritePin(LED_RED_GPIO_Port, LED_RED_Pin, GPIO_PIN_RESET);
 115              		.loc 1 460 3 view .LVU27
 116 0074 DFF8AC90 		ldr	r9, .L3+12
 117 0078 2246     		mov	r2, r4
 118 007a 0421     		movs	r1, #4
 119 007c 4846     		mov	r0, r9
 120 007e FFF7FEFF 		bl	HAL_GPIO_WritePin
 121              	.LVL0:
 461:Core/Src/main.c **** 
 462:Core/Src/main.c ****   /*Configure GPIO pin Output Level */
 463:Core/Src/main.c ****   HAL_GPIO_WritePin(LED_GREEN_GPIO_Port, LED_GREEN_Pin, GPIO_PIN_RESET);
 122              		.loc 1 463 3 view .LVU28
 123 0082 DFF8A480 		ldr	r8, .L3+16
 124 0086 2246     		mov	r2, r4
 125 0088 8021     		movs	r1, #128
 126 008a 4046     		mov	r0, r8
 127 008c FFF7FEFF 		bl	HAL_GPIO_WritePin
 128              	.LVL1:
 464:Core/Src/main.c **** 
 465:Core/Src/main.c ****   /*Configure GPIO pin Output Level */
 466:Core/Src/main.c ****   HAL_GPIO_WritePin(GPIOB, UCPD_DBn_Pin|LED_BLUE_Pin, GPIO_PIN_RESET);
 129              		.loc 1 466 3 view .LVU29
 130 0090 224E     		ldr	r6, .L3+4
 131 0092 2246     		mov	r2, r4
 132 0094 A021     		movs	r1, #160
 133 0096 3046     		mov	r0, r6
 134 0098 FFF7FEFF 		bl	HAL_GPIO_WritePin
 135              	.LVL2:
 467:Core/Src/main.c **** 
 468:Core/Src/main.c ****   /*Configure GPIO pin : USER_BUTTON_Pin */
 469:Core/Src/main.c ****   GPIO_InitStruct.Pin = USER_BUTTON_Pin;
 136              		.loc 1 469 3 view .LVU30
 137              		.loc 1 469 23 is_stmt 0 view .LVU31
 138 009c 4FF40053 		mov	r3, #8192
 139 00a0 0593     		str	r3, [sp, #20]
 470:Core/Src/main.c ****   GPIO_InitStruct.Mode = GPIO_MODE_IT_FALLING;
 140              		.loc 1 470 3 is_stmt 1 view .LVU32
 141              		.loc 1 470 24 is_stmt 0 view .LVU33
 142 00a2 1F4B     		ldr	r3, .L3+8
 143 00a4 0693     		str	r3, [sp, #24]
 471:Core/Src/main.c ****   GPIO_InitStruct.Pull = GPIO_NOPULL;
 144              		.loc 1 471 3 is_stmt 1 view .LVU34
 145              		.loc 1 471 24 is_stmt 0 view .LVU35
 146 00a6 0794     		str	r4, [sp, #28]
 472:Core/Src/main.c ****   HAL_GPIO_Init(USER_BUTTON_GPIO_Port, &GPIO_InitStruct);
 147              		.loc 1 472 3 is_stmt 1 view .LVU36
 148 00a8 05A9     		add	r1, sp, #20
 149 00aa 4046     		mov	r0, r8
 150 00ac FFF7FEFF 		bl	HAL_GPIO_Init
 151              	.LVL3:
 473:Core/Src/main.c **** 
 474:Core/Src/main.c ****   /*Configure GPIO pin : UCPD_FLT_Pin */
 475:Core/Src/main.c ****   GPIO_InitStruct.Pin = UCPD_FLT_Pin;
 152              		.loc 1 475 3 view .LVU37
 153              		.loc 1 475 23 is_stmt 0 view .LVU38
ARM GAS  /tmp/ccyLpKvw.s 			page 12


 154 00b0 4FF48043 		mov	r3, #16384
 155 00b4 0593     		str	r3, [sp, #20]
 476:Core/Src/main.c ****   GPIO_InitStruct.Mode = GPIO_MODE_INPUT;
 156              		.loc 1 476 3 is_stmt 1 view .LVU39
 157              		.loc 1 476 24 is_stmt 0 view .LVU40
 158 00b6 0694     		str	r4, [sp, #24]
 477:Core/Src/main.c ****   GPIO_InitStruct.Pull = GPIO_NOPULL;
 159              		.loc 1 477 3 is_stmt 1 view .LVU41
 160              		.loc 1 477 24 is_stmt 0 view .LVU42
 161 00b8 0794     		str	r4, [sp, #28]
 478:Core/Src/main.c ****   HAL_GPIO_Init(UCPD_FLT_GPIO_Port, &GPIO_InitStruct);
 162              		.loc 1 478 3 is_stmt 1 view .LVU43
 163 00ba 05A9     		add	r1, sp, #20
 164 00bc 3046     		mov	r0, r6
 165 00be FFF7FEFF 		bl	HAL_GPIO_Init
 166              	.LVL4:
 479:Core/Src/main.c **** 
 480:Core/Src/main.c ****   /*Configure GPIO pin : LED_RED_Pin */
 481:Core/Src/main.c ****   GPIO_InitStruct.Pin = LED_RED_Pin;
 167              		.loc 1 481 3 view .LVU44
 168              		.loc 1 481 23 is_stmt 0 view .LVU45
 169 00c2 0423     		movs	r3, #4
 170 00c4 0593     		str	r3, [sp, #20]
 482:Core/Src/main.c ****   GPIO_InitStruct.Mode = GPIO_MODE_OUTPUT_PP;
 171              		.loc 1 482 3 is_stmt 1 view .LVU46
 172              		.loc 1 482 24 is_stmt 0 view .LVU47
 173 00c6 0125     		movs	r5, #1
 174 00c8 0695     		str	r5, [sp, #24]
 483:Core/Src/main.c ****   GPIO_InitStruct.Pull = GPIO_PULLUP;
 175              		.loc 1 483 3 is_stmt 1 view .LVU48
 176              		.loc 1 483 24 is_stmt 0 view .LVU49
 177 00ca 0795     		str	r5, [sp, #28]
 484:Core/Src/main.c ****   GPIO_InitStruct.Speed = GPIO_SPEED_FREQ_HIGH;
 178              		.loc 1 484 3 is_stmt 1 view .LVU50
 179              		.loc 1 484 25 is_stmt 0 view .LVU51
 180 00cc 0227     		movs	r7, #2
 181 00ce 0897     		str	r7, [sp, #32]
 485:Core/Src/main.c ****   HAL_GPIO_Init(LED_RED_GPIO_Port, &GPIO_InitStruct);
 182              		.loc 1 485 3 is_stmt 1 view .LVU52
 183 00d0 05A9     		add	r1, sp, #20
 184 00d2 4846     		mov	r0, r9
 185 00d4 FFF7FEFF 		bl	HAL_GPIO_Init
 186              	.LVL5:
 486:Core/Src/main.c **** 
 487:Core/Src/main.c ****   /*Configure GPIO pin : LED_GREEN_Pin */
 488:Core/Src/main.c ****   GPIO_InitStruct.Pin = LED_GREEN_Pin;
 187              		.loc 1 488 3 view .LVU53
 188              		.loc 1 488 23 is_stmt 0 view .LVU54
 189 00d8 4FF08009 		mov	r9, #128
 190 00dc CDF81490 		str	r9, [sp, #20]
 489:Core/Src/main.c ****   GPIO_InitStruct.Mode = GPIO_MODE_OUTPUT_PP;
 191              		.loc 1 489 3 is_stmt 1 view .LVU55
 192              		.loc 1 489 24 is_stmt 0 view .LVU56
 193 00e0 0695     		str	r5, [sp, #24]
 490:Core/Src/main.c ****   GPIO_InitStruct.Pull = GPIO_PULLUP;
 194              		.loc 1 490 3 is_stmt 1 view .LVU57
 195              		.loc 1 490 24 is_stmt 0 view .LVU58
ARM GAS  /tmp/ccyLpKvw.s 			page 13


 196 00e2 0795     		str	r5, [sp, #28]
 491:Core/Src/main.c ****   GPIO_InitStruct.Speed = GPIO_SPEED_FREQ_HIGH;
 197              		.loc 1 491 3 is_stmt 1 view .LVU59
 198              		.loc 1 491 25 is_stmt 0 view .LVU60
 199 00e4 0897     		str	r7, [sp, #32]
 492:Core/Src/main.c ****   HAL_GPIO_Init(LED_GREEN_GPIO_Port, &GPIO_InitStruct);
 200              		.loc 1 492 3 is_stmt 1 view .LVU61
 201 00e6 05A9     		add	r1, sp, #20
 202 00e8 4046     		mov	r0, r8
 203 00ea FFF7FEFF 		bl	HAL_GPIO_Init
 204              	.LVL6:
 493:Core/Src/main.c **** 
 494:Core/Src/main.c ****   /*Configure GPIO pin : UCPD_DBn_Pin */
 495:Core/Src/main.c ****   GPIO_InitStruct.Pin = UCPD_DBn_Pin;
 205              		.loc 1 495 3 view .LVU62
 206              		.loc 1 495 23 is_stmt 0 view .LVU63
 207 00ee 2023     		movs	r3, #32
 208 00f0 0593     		str	r3, [sp, #20]
 496:Core/Src/main.c ****   GPIO_InitStruct.Mode = GPIO_MODE_OUTPUT_PP;
 209              		.loc 1 496 3 is_stmt 1 view .LVU64
 210              		.loc 1 496 24 is_stmt 0 view .LVU65
 211 00f2 0695     		str	r5, [sp, #24]
 497:Core/Src/main.c ****   GPIO_InitStruct.Pull = GPIO_NOPULL;
 212              		.loc 1 497 3 is_stmt 1 view .LVU66
 213              		.loc 1 497 24 is_stmt 0 view .LVU67
 214 00f4 0794     		str	r4, [sp, #28]
 498:Core/Src/main.c ****   GPIO_InitStruct.Speed = GPIO_SPEED_FREQ_LOW;
 215              		.loc 1 498 3 is_stmt 1 view .LVU68
 216              		.loc 1 498 25 is_stmt 0 view .LVU69
 217 00f6 0894     		str	r4, [sp, #32]
 499:Core/Src/main.c ****   HAL_GPIO_Init(UCPD_DBn_GPIO_Port, &GPIO_InitStruct);
 218              		.loc 1 499 3 is_stmt 1 view .LVU70
 219 00f8 05A9     		add	r1, sp, #20
 220 00fa 3046     		mov	r0, r6
 221 00fc FFF7FEFF 		bl	HAL_GPIO_Init
 222              	.LVL7:
 500:Core/Src/main.c **** 
 501:Core/Src/main.c ****   /*Configure GPIO pin : LED_BLUE_Pin */
 502:Core/Src/main.c ****   GPIO_InitStruct.Pin = LED_BLUE_Pin;
 223              		.loc 1 502 3 view .LVU71
 224              		.loc 1 502 23 is_stmt 0 view .LVU72
 225 0100 CDF81490 		str	r9, [sp, #20]
 503:Core/Src/main.c ****   GPIO_InitStruct.Mode = GPIO_MODE_OUTPUT_PP;
 226              		.loc 1 503 3 is_stmt 1 view .LVU73
 227              		.loc 1 503 24 is_stmt 0 view .LVU74
 228 0104 0695     		str	r5, [sp, #24]
 504:Core/Src/main.c ****   GPIO_InitStruct.Pull = GPIO_PULLUP;
 229              		.loc 1 504 3 is_stmt 1 view .LVU75
 230              		.loc 1 504 24 is_stmt 0 view .LVU76
 231 0106 0795     		str	r5, [sp, #28]
 505:Core/Src/main.c ****   GPIO_InitStruct.Speed = GPIO_SPEED_FREQ_HIGH;
 232              		.loc 1 505 3 is_stmt 1 view .LVU77
 233              		.loc 1 505 25 is_stmt 0 view .LVU78
 234 0108 0897     		str	r7, [sp, #32]
 506:Core/Src/main.c ****   HAL_GPIO_Init(LED_BLUE_GPIO_Port, &GPIO_InitStruct);
 235              		.loc 1 506 3 is_stmt 1 view .LVU79
 236 010a 05A9     		add	r1, sp, #20
ARM GAS  /tmp/ccyLpKvw.s 			page 14


 237 010c 3046     		mov	r0, r6
 238 010e FFF7FEFF 		bl	HAL_GPIO_Init
 239              	.LVL8:
 507:Core/Src/main.c **** 
 508:Core/Src/main.c **** /* USER CODE BEGIN MX_GPIO_Init_2 */
 509:Core/Src/main.c **** /* USER CODE END MX_GPIO_Init_2 */
 510:Core/Src/main.c **** }
 240              		.loc 1 510 1 is_stmt 0 view .LVU80
 241 0112 0BB0     		add	sp, sp, #44
 242              	.LCFI2:
 243              		.cfi_def_cfa_offset 28
 244              		@ sp needed
 245 0114 BDE8F083 		pop	{r4, r5, r6, r7, r8, r9, pc}
 246              	.L4:
 247              		.align	2
 248              	.L3:
 249 0118 000C0246 		.word	1174539264
 250 011c 00040242 		.word	1107428352
 251 0120 00002110 		.word	270598144
 252 0124 00180242 		.word	1107433472
 253 0128 00080242 		.word	1107429376
 254              		.cfi_endproc
 255              	.LFE1362:
 257              		.section	.text.MX_UCPD1_Init,"ax",%progbits
 258              		.align	1
 259              		.syntax unified
 260              		.thumb
 261              		.thumb_func
 263              	MX_UCPD1_Init:
 264              	.LFB1359:
 322:Core/Src/main.c **** 
 265              		.loc 1 322 1 is_stmt 1 view -0
 266              		.cfi_startproc
 267              		@ args = 0, pretend = 0, frame = 40
 268              		@ frame_needed = 0, uses_anonymous_args = 0
 269 0000 70B5     		push	{r4, r5, r6, lr}
 270              	.LCFI3:
 271              		.cfi_def_cfa_offset 16
 272              		.cfi_offset 4, -16
 273              		.cfi_offset 5, -12
 274              		.cfi_offset 6, -8
 275              		.cfi_offset 14, -4
 276 0002 8AB0     		sub	sp, sp, #40
 277              	.LCFI4:
 278              		.cfi_def_cfa_offset 56
 328:Core/Src/main.c **** 
 279              		.loc 1 328 3 view .LVU82
 328:Core/Src/main.c **** 
 280              		.loc 1 328 23 is_stmt 0 view .LVU83
 281 0004 0024     		movs	r4, #0
 282 0006 0494     		str	r4, [sp, #16]
 283 0008 0594     		str	r4, [sp, #20]
 284 000a 0694     		str	r4, [sp, #24]
 285 000c 0794     		str	r4, [sp, #28]
 286 000e 0894     		str	r4, [sp, #32]
 287 0010 0994     		str	r4, [sp, #36]
 331:Core/Src/main.c **** 
ARM GAS  /tmp/ccyLpKvw.s 			page 15


 288              		.loc 1 331 3 is_stmt 1 view .LVU84
 289              	.LVL9:
 290              	.LBB14:
 291              	.LBI14:
 292              		.file 2 "Drivers/STM32U5xx_HAL_Driver/Inc/stm32u5xx_ll_bus.h"
   1:Drivers/STM32U5xx_HAL_Driver/Inc/stm32u5xx_ll_bus.h **** /**
   2:Drivers/STM32U5xx_HAL_Driver/Inc/stm32u5xx_ll_bus.h ****   ******************************************************************************
   3:Drivers/STM32U5xx_HAL_Driver/Inc/stm32u5xx_ll_bus.h ****   * @file    stm32u5xx_ll_bus.h
   4:Drivers/STM32U5xx_HAL_Driver/Inc/stm32u5xx_ll_bus.h ****   * @author  MCD Application Team
   5:Drivers/STM32U5xx_HAL_Driver/Inc/stm32u5xx_ll_bus.h ****   * @brief   Header file of BUS LL module.
   6:Drivers/STM32U5xx_HAL_Driver/Inc/stm32u5xx_ll_bus.h **** 
   7:Drivers/STM32U5xx_HAL_Driver/Inc/stm32u5xx_ll_bus.h ****   ******************************************************************************
   8:Drivers/STM32U5xx_HAL_Driver/Inc/stm32u5xx_ll_bus.h ****   * @attention
   9:Drivers/STM32U5xx_HAL_Driver/Inc/stm32u5xx_ll_bus.h ****   *
  10:Drivers/STM32U5xx_HAL_Driver/Inc/stm32u5xx_ll_bus.h ****   * Copyright (c) 2021 STMicroelectronics.
  11:Drivers/STM32U5xx_HAL_Driver/Inc/stm32u5xx_ll_bus.h ****   * All rights reserved.
  12:Drivers/STM32U5xx_HAL_Driver/Inc/stm32u5xx_ll_bus.h ****   *
  13:Drivers/STM32U5xx_HAL_Driver/Inc/stm32u5xx_ll_bus.h ****   * This software is licensed under terms that can be found in the LICENSE file
  14:Drivers/STM32U5xx_HAL_Driver/Inc/stm32u5xx_ll_bus.h ****   * in the root directory of this software component.
  15:Drivers/STM32U5xx_HAL_Driver/Inc/stm32u5xx_ll_bus.h ****   * If no LICENSE file comes with this software, it is provided AS-IS.
  16:Drivers/STM32U5xx_HAL_Driver/Inc/stm32u5xx_ll_bus.h ****   *
  17:Drivers/STM32U5xx_HAL_Driver/Inc/stm32u5xx_ll_bus.h ****   ******************************************************************************
  18:Drivers/STM32U5xx_HAL_Driver/Inc/stm32u5xx_ll_bus.h ****   @verbatim
  19:Drivers/STM32U5xx_HAL_Driver/Inc/stm32u5xx_ll_bus.h ****                       ##### RCC Limitations #####
  20:Drivers/STM32U5xx_HAL_Driver/Inc/stm32u5xx_ll_bus.h ****   ==============================================================================
  21:Drivers/STM32U5xx_HAL_Driver/Inc/stm32u5xx_ll_bus.h ****     [..]
  22:Drivers/STM32U5xx_HAL_Driver/Inc/stm32u5xx_ll_bus.h ****       A delay between an RCC peripheral clock enable and the effective peripheral
  23:Drivers/STM32U5xx_HAL_Driver/Inc/stm32u5xx_ll_bus.h ****       enabling should be taken into account in order to manage the peripheral read/write
  24:Drivers/STM32U5xx_HAL_Driver/Inc/stm32u5xx_ll_bus.h ****       from/to registers.
  25:Drivers/STM32U5xx_HAL_Driver/Inc/stm32u5xx_ll_bus.h ****       (+) This delay depends on the peripheral mapping.
  26:Drivers/STM32U5xx_HAL_Driver/Inc/stm32u5xx_ll_bus.h ****         (++) AHB , APB peripherals,  1 dummy read is necessary
  27:Drivers/STM32U5xx_HAL_Driver/Inc/stm32u5xx_ll_bus.h **** 
  28:Drivers/STM32U5xx_HAL_Driver/Inc/stm32u5xx_ll_bus.h ****     [..]
  29:Drivers/STM32U5xx_HAL_Driver/Inc/stm32u5xx_ll_bus.h ****       Workarounds:
  30:Drivers/STM32U5xx_HAL_Driver/Inc/stm32u5xx_ll_bus.h ****       (#) For AHB , APB peripherals, a dummy read to the peripheral register has been
  31:Drivers/STM32U5xx_HAL_Driver/Inc/stm32u5xx_ll_bus.h ****           inserted in each LL_{BUS}_GRP{x}_EnableClock() function.
  32:Drivers/STM32U5xx_HAL_Driver/Inc/stm32u5xx_ll_bus.h **** 
  33:Drivers/STM32U5xx_HAL_Driver/Inc/stm32u5xx_ll_bus.h ****   @endverbatim
  34:Drivers/STM32U5xx_HAL_Driver/Inc/stm32u5xx_ll_bus.h ****   ******************************************************************************
  35:Drivers/STM32U5xx_HAL_Driver/Inc/stm32u5xx_ll_bus.h ****   */
  36:Drivers/STM32U5xx_HAL_Driver/Inc/stm32u5xx_ll_bus.h **** 
  37:Drivers/STM32U5xx_HAL_Driver/Inc/stm32u5xx_ll_bus.h **** /* Define to prevent recursive inclusion -------------------------------------*/
  38:Drivers/STM32U5xx_HAL_Driver/Inc/stm32u5xx_ll_bus.h **** #ifndef STM32U5xx_LL_BUS_H
  39:Drivers/STM32U5xx_HAL_Driver/Inc/stm32u5xx_ll_bus.h **** #define STM32U5xx_LL_BUS_H
  40:Drivers/STM32U5xx_HAL_Driver/Inc/stm32u5xx_ll_bus.h **** 
  41:Drivers/STM32U5xx_HAL_Driver/Inc/stm32u5xx_ll_bus.h **** #ifdef __cplusplus
  42:Drivers/STM32U5xx_HAL_Driver/Inc/stm32u5xx_ll_bus.h **** extern "C" {
  43:Drivers/STM32U5xx_HAL_Driver/Inc/stm32u5xx_ll_bus.h **** #endif
  44:Drivers/STM32U5xx_HAL_Driver/Inc/stm32u5xx_ll_bus.h **** 
  45:Drivers/STM32U5xx_HAL_Driver/Inc/stm32u5xx_ll_bus.h **** /* Includes ------------------------------------------------------------------*/
  46:Drivers/STM32U5xx_HAL_Driver/Inc/stm32u5xx_ll_bus.h **** #include "stm32u5xx.h"
  47:Drivers/STM32U5xx_HAL_Driver/Inc/stm32u5xx_ll_bus.h **** 
  48:Drivers/STM32U5xx_HAL_Driver/Inc/stm32u5xx_ll_bus.h **** /** @addtogroup STM32U5xx_LL_Driver
  49:Drivers/STM32U5xx_HAL_Driver/Inc/stm32u5xx_ll_bus.h ****   * @{
  50:Drivers/STM32U5xx_HAL_Driver/Inc/stm32u5xx_ll_bus.h ****   */
  51:Drivers/STM32U5xx_HAL_Driver/Inc/stm32u5xx_ll_bus.h **** 
  52:Drivers/STM32U5xx_HAL_Driver/Inc/stm32u5xx_ll_bus.h **** #if defined(RCC)
ARM GAS  /tmp/ccyLpKvw.s 			page 16


  53:Drivers/STM32U5xx_HAL_Driver/Inc/stm32u5xx_ll_bus.h **** 
  54:Drivers/STM32U5xx_HAL_Driver/Inc/stm32u5xx_ll_bus.h **** /** @defgroup BUS_LL BUS
  55:Drivers/STM32U5xx_HAL_Driver/Inc/stm32u5xx_ll_bus.h ****   * @{
  56:Drivers/STM32U5xx_HAL_Driver/Inc/stm32u5xx_ll_bus.h ****   */
  57:Drivers/STM32U5xx_HAL_Driver/Inc/stm32u5xx_ll_bus.h **** 
  58:Drivers/STM32U5xx_HAL_Driver/Inc/stm32u5xx_ll_bus.h **** /* Private types -------------------------------------------------------------*/
  59:Drivers/STM32U5xx_HAL_Driver/Inc/stm32u5xx_ll_bus.h **** /* Private variables ---------------------------------------------------------*/
  60:Drivers/STM32U5xx_HAL_Driver/Inc/stm32u5xx_ll_bus.h **** /* Private constants ---------------------------------------------------------*/
  61:Drivers/STM32U5xx_HAL_Driver/Inc/stm32u5xx_ll_bus.h **** /* Private macros ------------------------------------------------------------*/
  62:Drivers/STM32U5xx_HAL_Driver/Inc/stm32u5xx_ll_bus.h **** 
  63:Drivers/STM32U5xx_HAL_Driver/Inc/stm32u5xx_ll_bus.h **** /* Exported types ------------------------------------------------------------*/
  64:Drivers/STM32U5xx_HAL_Driver/Inc/stm32u5xx_ll_bus.h **** /* Exported constants --------------------------------------------------------*/
  65:Drivers/STM32U5xx_HAL_Driver/Inc/stm32u5xx_ll_bus.h **** /** @defgroup BUS_LL_Exported_Constants BUS Exported Constants
  66:Drivers/STM32U5xx_HAL_Driver/Inc/stm32u5xx_ll_bus.h ****   * @{
  67:Drivers/STM32U5xx_HAL_Driver/Inc/stm32u5xx_ll_bus.h ****   */
  68:Drivers/STM32U5xx_HAL_Driver/Inc/stm32u5xx_ll_bus.h **** 
  69:Drivers/STM32U5xx_HAL_Driver/Inc/stm32u5xx_ll_bus.h **** /** @defgroup BUS_LL_EC_AHB1_GRP1_PERIPH  AHB1 GRP1 PERIPH
  70:Drivers/STM32U5xx_HAL_Driver/Inc/stm32u5xx_ll_bus.h ****   * @{
  71:Drivers/STM32U5xx_HAL_Driver/Inc/stm32u5xx_ll_bus.h ****   */
  72:Drivers/STM32U5xx_HAL_Driver/Inc/stm32u5xx_ll_bus.h **** #define LL_AHB1_GRP1_PERIPH_ALL           0xFFFFFFFFU
  73:Drivers/STM32U5xx_HAL_Driver/Inc/stm32u5xx_ll_bus.h **** #define LL_AHB1_GRP1_PERIPH_GPDMA1        RCC_AHB1ENR_GPDMA1EN
  74:Drivers/STM32U5xx_HAL_Driver/Inc/stm32u5xx_ll_bus.h **** #define LL_AHB1_GRP1_PERIPH_CORDIC        RCC_AHB1ENR_CORDICEN
  75:Drivers/STM32U5xx_HAL_Driver/Inc/stm32u5xx_ll_bus.h **** #define LL_AHB1_GRP1_PERIPH_FMAC          RCC_AHB1ENR_FMACEN
  76:Drivers/STM32U5xx_HAL_Driver/Inc/stm32u5xx_ll_bus.h **** #define LL_AHB1_GRP1_PERIPH_MDF1          RCC_AHB1ENR_MDF1EN
  77:Drivers/STM32U5xx_HAL_Driver/Inc/stm32u5xx_ll_bus.h **** #define LL_AHB1_GRP1_PERIPH_FLASH         RCC_AHB1ENR_FLASHEN
  78:Drivers/STM32U5xx_HAL_Driver/Inc/stm32u5xx_ll_bus.h **** #define LL_AHB1_GRP1_PERIPH_CRC           RCC_AHB1ENR_CRCEN
  79:Drivers/STM32U5xx_HAL_Driver/Inc/stm32u5xx_ll_bus.h **** #if defined(JPEG)
  80:Drivers/STM32U5xx_HAL_Driver/Inc/stm32u5xx_ll_bus.h **** #define LL_AHB1_GRP1_PERIPH_JPEG          RCC_AHB1ENR_JPEGEN
  81:Drivers/STM32U5xx_HAL_Driver/Inc/stm32u5xx_ll_bus.h **** #endif /* defined(JPEG) */
  82:Drivers/STM32U5xx_HAL_Driver/Inc/stm32u5xx_ll_bus.h **** #define LL_AHB1_GRP1_PERIPH_TSC           RCC_AHB1ENR_TSCEN
  83:Drivers/STM32U5xx_HAL_Driver/Inc/stm32u5xx_ll_bus.h **** #define LL_AHB1_GRP1_PERIPH_RAMCFG        RCC_AHB1ENR_RAMCFGEN
  84:Drivers/STM32U5xx_HAL_Driver/Inc/stm32u5xx_ll_bus.h **** #if defined(DMA2D)
  85:Drivers/STM32U5xx_HAL_Driver/Inc/stm32u5xx_ll_bus.h **** #define LL_AHB1_GRP1_PERIPH_DMA2D         RCC_AHB1ENR_DMA2DEN
  86:Drivers/STM32U5xx_HAL_Driver/Inc/stm32u5xx_ll_bus.h **** #endif /* DMA2D */
  87:Drivers/STM32U5xx_HAL_Driver/Inc/stm32u5xx_ll_bus.h **** #if defined(GFXMMU)
  88:Drivers/STM32U5xx_HAL_Driver/Inc/stm32u5xx_ll_bus.h **** #define LL_AHB1_GRP1_PERIPH_GFXMMU        RCC_AHB1ENR_GFXMMUEN
  89:Drivers/STM32U5xx_HAL_Driver/Inc/stm32u5xx_ll_bus.h **** #endif /* defined(GFXMMU) */
  90:Drivers/STM32U5xx_HAL_Driver/Inc/stm32u5xx_ll_bus.h **** #if defined(GPU2D)
  91:Drivers/STM32U5xx_HAL_Driver/Inc/stm32u5xx_ll_bus.h **** #define LL_AHB1_GRP1_PERIPH_GPU2D         RCC_AHB1ENR_GPU2DEN
  92:Drivers/STM32U5xx_HAL_Driver/Inc/stm32u5xx_ll_bus.h **** #endif /* defined(GPU2D) */
  93:Drivers/STM32U5xx_HAL_Driver/Inc/stm32u5xx_ll_bus.h **** #if defined(DCACHE2)
  94:Drivers/STM32U5xx_HAL_Driver/Inc/stm32u5xx_ll_bus.h **** #define LL_AHB1_GRP1_PERIPH_DCACHE2        RCC_AHB1ENR_DCACHE2EN
  95:Drivers/STM32U5xx_HAL_Driver/Inc/stm32u5xx_ll_bus.h **** #endif /* defined(DCACHE2) */
  96:Drivers/STM32U5xx_HAL_Driver/Inc/stm32u5xx_ll_bus.h **** #define LL_AHB1_GRP1_PERIPH_GTZC1         RCC_AHB1ENR_GTZC1EN
  97:Drivers/STM32U5xx_HAL_Driver/Inc/stm32u5xx_ll_bus.h **** #define LL_AHB1_GRP1_PERIPH_BKPSRAM       RCC_AHB1ENR_BKPSRAMEN
  98:Drivers/STM32U5xx_HAL_Driver/Inc/stm32u5xx_ll_bus.h **** #define LL_AHB1_GRP1_PERIPH_ICACHE1       RCC_AHB1SMENR_ICACHESMEN
  99:Drivers/STM32U5xx_HAL_Driver/Inc/stm32u5xx_ll_bus.h **** #define LL_AHB1_GRP1_PERIPH_DCACHE1       RCC_AHB1ENR_DCACHE1EN
 100:Drivers/STM32U5xx_HAL_Driver/Inc/stm32u5xx_ll_bus.h **** #define LL_AHB1_GRP1_PERIPH_SRAM1         RCC_AHB1ENR_SRAM1EN
 101:Drivers/STM32U5xx_HAL_Driver/Inc/stm32u5xx_ll_bus.h **** /**
 102:Drivers/STM32U5xx_HAL_Driver/Inc/stm32u5xx_ll_bus.h ****   * @}
 103:Drivers/STM32U5xx_HAL_Driver/Inc/stm32u5xx_ll_bus.h ****   */
 104:Drivers/STM32U5xx_HAL_Driver/Inc/stm32u5xx_ll_bus.h **** 
 105:Drivers/STM32U5xx_HAL_Driver/Inc/stm32u5xx_ll_bus.h **** /** @defgroup BUS_LL_EC_AHB2_GRP1_PERIPH  AHB2 GRP1 PERIPH
 106:Drivers/STM32U5xx_HAL_Driver/Inc/stm32u5xx_ll_bus.h ****   * @{
 107:Drivers/STM32U5xx_HAL_Driver/Inc/stm32u5xx_ll_bus.h ****   */
 108:Drivers/STM32U5xx_HAL_Driver/Inc/stm32u5xx_ll_bus.h **** #define LL_AHB2_GRP1_PERIPH_ALL            0xFFFFFFFFU
 109:Drivers/STM32U5xx_HAL_Driver/Inc/stm32u5xx_ll_bus.h **** #define LL_AHB2_GRP1_PERIPH_GPIOA          RCC_AHB2ENR1_GPIOAEN
ARM GAS  /tmp/ccyLpKvw.s 			page 17


 110:Drivers/STM32U5xx_HAL_Driver/Inc/stm32u5xx_ll_bus.h **** #define LL_AHB2_GRP1_PERIPH_GPIOB          RCC_AHB2ENR1_GPIOBEN
 111:Drivers/STM32U5xx_HAL_Driver/Inc/stm32u5xx_ll_bus.h **** #define LL_AHB2_GRP1_PERIPH_GPIOC          RCC_AHB2ENR1_GPIOCEN
 112:Drivers/STM32U5xx_HAL_Driver/Inc/stm32u5xx_ll_bus.h **** #define LL_AHB2_GRP1_PERIPH_GPIOD          RCC_AHB2ENR1_GPIODEN
 113:Drivers/STM32U5xx_HAL_Driver/Inc/stm32u5xx_ll_bus.h **** #define LL_AHB2_GRP1_PERIPH_GPIOE          RCC_AHB2ENR1_GPIOEEN
 114:Drivers/STM32U5xx_HAL_Driver/Inc/stm32u5xx_ll_bus.h **** #if defined(GPIOF)
 115:Drivers/STM32U5xx_HAL_Driver/Inc/stm32u5xx_ll_bus.h **** #define LL_AHB2_GRP1_PERIPH_GPIOF          RCC_AHB2ENR1_GPIOFEN
 116:Drivers/STM32U5xx_HAL_Driver/Inc/stm32u5xx_ll_bus.h **** #endif /* GPIOF */
 117:Drivers/STM32U5xx_HAL_Driver/Inc/stm32u5xx_ll_bus.h **** #define LL_AHB2_GRP1_PERIPH_GPIOG          RCC_AHB2ENR1_GPIOGEN
 118:Drivers/STM32U5xx_HAL_Driver/Inc/stm32u5xx_ll_bus.h **** #define LL_AHB2_GRP1_PERIPH_GPIOH          RCC_AHB2ENR1_GPIOHEN
 119:Drivers/STM32U5xx_HAL_Driver/Inc/stm32u5xx_ll_bus.h **** #if defined (GPIOI)
 120:Drivers/STM32U5xx_HAL_Driver/Inc/stm32u5xx_ll_bus.h **** #define LL_AHB2_GRP1_PERIPH_GPIOI          RCC_AHB2ENR1_GPIOIEN
 121:Drivers/STM32U5xx_HAL_Driver/Inc/stm32u5xx_ll_bus.h **** #endif /* GPIOI */
 122:Drivers/STM32U5xx_HAL_Driver/Inc/stm32u5xx_ll_bus.h **** #if defined (GPIOJ)
 123:Drivers/STM32U5xx_HAL_Driver/Inc/stm32u5xx_ll_bus.h **** #define LL_AHB2_GRP1_PERIPH_GPIOJ          RCC_AHB2ENR1_GPIOJEN
 124:Drivers/STM32U5xx_HAL_Driver/Inc/stm32u5xx_ll_bus.h **** #endif /* defined (GPIOJ) */
 125:Drivers/STM32U5xx_HAL_Driver/Inc/stm32u5xx_ll_bus.h **** #define LL_AHB2_GRP1_PERIPH_ADC12          RCC_AHB2ENR1_ADC12EN
 126:Drivers/STM32U5xx_HAL_Driver/Inc/stm32u5xx_ll_bus.h **** #define LL_AHB2_GRP1_PERIPH_DCMI_PSSI      RCC_AHB2ENR1_DCMI_PSSIEN
 127:Drivers/STM32U5xx_HAL_Driver/Inc/stm32u5xx_ll_bus.h **** #if defined(USB_OTG_FS)
 128:Drivers/STM32U5xx_HAL_Driver/Inc/stm32u5xx_ll_bus.h **** #define LL_AHB2_GRP1_PERIPH_OTG_FS         RCC_AHB2ENR1_OTGEN
 129:Drivers/STM32U5xx_HAL_Driver/Inc/stm32u5xx_ll_bus.h **** /* Legacy define */
 130:Drivers/STM32U5xx_HAL_Driver/Inc/stm32u5xx_ll_bus.h **** #define LL_AHB2_GRP1_PERIPH_USBFS          LL_AHB2_GRP1_PERIPH_OTG_FS
 131:Drivers/STM32U5xx_HAL_Driver/Inc/stm32u5xx_ll_bus.h **** #elif defined(USB_OTG_HS)
 132:Drivers/STM32U5xx_HAL_Driver/Inc/stm32u5xx_ll_bus.h **** #define LL_AHB2_GRP1_PERIPH_OTG_HS         RCC_AHB2ENR1_OTGEN
 133:Drivers/STM32U5xx_HAL_Driver/Inc/stm32u5xx_ll_bus.h **** /* Legacy define */
 134:Drivers/STM32U5xx_HAL_Driver/Inc/stm32u5xx_ll_bus.h **** #define LL_AHB2_GRP1_PERIPH_USBHS          LL_AHB2_GRP1_PERIPH_OTG_HS
 135:Drivers/STM32U5xx_HAL_Driver/Inc/stm32u5xx_ll_bus.h **** #endif /* defined(USB_OTG_HS) */
 136:Drivers/STM32U5xx_HAL_Driver/Inc/stm32u5xx_ll_bus.h **** #if defined(RCC_AHB2ENR1_USBPHYCEN)
 137:Drivers/STM32U5xx_HAL_Driver/Inc/stm32u5xx_ll_bus.h **** #define LL_AHB2_GRP1_PERIPH_USBPHY         RCC_AHB2ENR1_USBPHYCEN
 138:Drivers/STM32U5xx_HAL_Driver/Inc/stm32u5xx_ll_bus.h **** #endif /* defined(RCC_AHB2ENR1_USBPHYCEN) */
 139:Drivers/STM32U5xx_HAL_Driver/Inc/stm32u5xx_ll_bus.h **** #if defined(AES)
 140:Drivers/STM32U5xx_HAL_Driver/Inc/stm32u5xx_ll_bus.h **** #define LL_AHB2_GRP1_PERIPH_AES            RCC_AHB2ENR1_AESEN
 141:Drivers/STM32U5xx_HAL_Driver/Inc/stm32u5xx_ll_bus.h **** #endif /* AES */
 142:Drivers/STM32U5xx_HAL_Driver/Inc/stm32u5xx_ll_bus.h **** #if defined(HASH)
 143:Drivers/STM32U5xx_HAL_Driver/Inc/stm32u5xx_ll_bus.h **** #define LL_AHB2_GRP1_PERIPH_HASH           RCC_AHB2ENR1_HASHEN
 144:Drivers/STM32U5xx_HAL_Driver/Inc/stm32u5xx_ll_bus.h **** #endif /* HASH */
 145:Drivers/STM32U5xx_HAL_Driver/Inc/stm32u5xx_ll_bus.h **** #define LL_AHB2_GRP1_PERIPH_RNG            RCC_AHB2ENR1_RNGEN
 146:Drivers/STM32U5xx_HAL_Driver/Inc/stm32u5xx_ll_bus.h **** #define LL_AHB2_GRP1_PERIPH_PKA            RCC_AHB2ENR1_PKAEN
 147:Drivers/STM32U5xx_HAL_Driver/Inc/stm32u5xx_ll_bus.h **** #if defined(SAES)
 148:Drivers/STM32U5xx_HAL_Driver/Inc/stm32u5xx_ll_bus.h **** #define LL_AHB2_GRP1_PERIPH_SAES           RCC_AHB2ENR1_SAESEN
 149:Drivers/STM32U5xx_HAL_Driver/Inc/stm32u5xx_ll_bus.h **** #endif /* SAES */
 150:Drivers/STM32U5xx_HAL_Driver/Inc/stm32u5xx_ll_bus.h **** #if defined(OCTOSPIM)
 151:Drivers/STM32U5xx_HAL_Driver/Inc/stm32u5xx_ll_bus.h **** #define LL_AHB2_GRP1_PERIPH_OCTOSPIM       RCC_AHB2ENR1_OCTOSPIMEN
 152:Drivers/STM32U5xx_HAL_Driver/Inc/stm32u5xx_ll_bus.h **** #endif /* OCTOSPIM */
 153:Drivers/STM32U5xx_HAL_Driver/Inc/stm32u5xx_ll_bus.h **** #define LL_AHB2_GRP1_PERIPH_OTFDEC1        RCC_AHB2ENR1_OTFDEC1EN
 154:Drivers/STM32U5xx_HAL_Driver/Inc/stm32u5xx_ll_bus.h **** #if defined (OTFDEC2)
 155:Drivers/STM32U5xx_HAL_Driver/Inc/stm32u5xx_ll_bus.h **** #define LL_AHB2_GRP1_PERIPH_OTFDEC2        RCC_AHB2ENR1_OTFDEC2EN
 156:Drivers/STM32U5xx_HAL_Driver/Inc/stm32u5xx_ll_bus.h **** #endif /* OTFDEC2 */
 157:Drivers/STM32U5xx_HAL_Driver/Inc/stm32u5xx_ll_bus.h **** #define LL_AHB2_GRP1_PERIPH_SDMMC1         RCC_AHB2ENR1_SDMMC1EN
 158:Drivers/STM32U5xx_HAL_Driver/Inc/stm32u5xx_ll_bus.h **** #if defined(SDMMC2)
 159:Drivers/STM32U5xx_HAL_Driver/Inc/stm32u5xx_ll_bus.h **** #define LL_AHB2_GRP1_PERIPH_SDMMC2         RCC_AHB2ENR1_SDMMC2EN
 160:Drivers/STM32U5xx_HAL_Driver/Inc/stm32u5xx_ll_bus.h **** #endif /* SDMMC2 */
 161:Drivers/STM32U5xx_HAL_Driver/Inc/stm32u5xx_ll_bus.h **** #define LL_AHB2_GRP1_PERIPH_SRAM2          RCC_AHB2ENR1_SRAM2EN
 162:Drivers/STM32U5xx_HAL_Driver/Inc/stm32u5xx_ll_bus.h **** #if defined(SRAM3_BASE)
 163:Drivers/STM32U5xx_HAL_Driver/Inc/stm32u5xx_ll_bus.h **** #define LL_AHB2_GRP1_PERIPH_SRAM3          RCC_AHB2ENR1_SRAM3EN
 164:Drivers/STM32U5xx_HAL_Driver/Inc/stm32u5xx_ll_bus.h **** #endif /* SRAM3_BASE */
 165:Drivers/STM32U5xx_HAL_Driver/Inc/stm32u5xx_ll_bus.h **** 
 166:Drivers/STM32U5xx_HAL_Driver/Inc/stm32u5xx_ll_bus.h **** /**
ARM GAS  /tmp/ccyLpKvw.s 			page 18


 167:Drivers/STM32U5xx_HAL_Driver/Inc/stm32u5xx_ll_bus.h ****   * @}
 168:Drivers/STM32U5xx_HAL_Driver/Inc/stm32u5xx_ll_bus.h ****   */
 169:Drivers/STM32U5xx_HAL_Driver/Inc/stm32u5xx_ll_bus.h **** 
 170:Drivers/STM32U5xx_HAL_Driver/Inc/stm32u5xx_ll_bus.h **** /** @defgroup BUS_LL_EC_AHB3_GRP1_PERIPH  AHB3 GRP1 PERIPH
 171:Drivers/STM32U5xx_HAL_Driver/Inc/stm32u5xx_ll_bus.h ****   * @{
 172:Drivers/STM32U5xx_HAL_Driver/Inc/stm32u5xx_ll_bus.h ****   */
 173:Drivers/STM32U5xx_HAL_Driver/Inc/stm32u5xx_ll_bus.h **** #define LL_AHB3_GRP1_PERIPH_ALL            0xFFFFFFFFU
 174:Drivers/STM32U5xx_HAL_Driver/Inc/stm32u5xx_ll_bus.h **** #define LL_AHB3_GRP1_PERIPH_LPGPIO1        RCC_AHB3ENR_LPGPIO1EN
 175:Drivers/STM32U5xx_HAL_Driver/Inc/stm32u5xx_ll_bus.h **** #define LL_AHB3_GRP1_PERIPH_PWR            RCC_AHB3ENR_PWREN
 176:Drivers/STM32U5xx_HAL_Driver/Inc/stm32u5xx_ll_bus.h **** #define LL_AHB3_GRP1_PERIPH_ADC4           RCC_AHB3ENR_ADC4EN
 177:Drivers/STM32U5xx_HAL_Driver/Inc/stm32u5xx_ll_bus.h **** #define LL_AHB3_GRP1_PERIPH_DAC1           RCC_AHB3ENR_DAC1EN
 178:Drivers/STM32U5xx_HAL_Driver/Inc/stm32u5xx_ll_bus.h **** #define LL_AHB3_GRP1_PERIPH_LPDMA1         RCC_AHB3ENR_LPDMA1EN
 179:Drivers/STM32U5xx_HAL_Driver/Inc/stm32u5xx_ll_bus.h **** #define LL_AHB3_GRP1_PERIPH_ADF1           RCC_AHB3ENR_ADF1EN
 180:Drivers/STM32U5xx_HAL_Driver/Inc/stm32u5xx_ll_bus.h **** #define LL_AHB3_GRP1_PERIPH_GTZC2          RCC_AHB3ENR_GTZC2EN
 181:Drivers/STM32U5xx_HAL_Driver/Inc/stm32u5xx_ll_bus.h **** #define LL_AHB3_GRP1_PERIPH_SRAM4          RCC_AHB3ENR_SRAM4EN
 182:Drivers/STM32U5xx_HAL_Driver/Inc/stm32u5xx_ll_bus.h **** 
 183:Drivers/STM32U5xx_HAL_Driver/Inc/stm32u5xx_ll_bus.h **** /**
 184:Drivers/STM32U5xx_HAL_Driver/Inc/stm32u5xx_ll_bus.h ****   * @}
 185:Drivers/STM32U5xx_HAL_Driver/Inc/stm32u5xx_ll_bus.h ****   */
 186:Drivers/STM32U5xx_HAL_Driver/Inc/stm32u5xx_ll_bus.h **** 
 187:Drivers/STM32U5xx_HAL_Driver/Inc/stm32u5xx_ll_bus.h **** /** @defgroup BUS_LL_EC_AHB2_GRP2_PERIPH  AHB2 GRP2 PERIPH
 188:Drivers/STM32U5xx_HAL_Driver/Inc/stm32u5xx_ll_bus.h ****   * @{
 189:Drivers/STM32U5xx_HAL_Driver/Inc/stm32u5xx_ll_bus.h ****   */
 190:Drivers/STM32U5xx_HAL_Driver/Inc/stm32u5xx_ll_bus.h **** #define LL_AHB2_GRP2_PERIPH_ALL            0xFFFFFFFFU
 191:Drivers/STM32U5xx_HAL_Driver/Inc/stm32u5xx_ll_bus.h **** #if defined(FMC_BASE)
 192:Drivers/STM32U5xx_HAL_Driver/Inc/stm32u5xx_ll_bus.h **** #define LL_AHB2_GRP2_PERIPH_FSMC           RCC_AHB2ENR2_FSMCEN
 193:Drivers/STM32U5xx_HAL_Driver/Inc/stm32u5xx_ll_bus.h **** #endif /* FMC_BASE */
 194:Drivers/STM32U5xx_HAL_Driver/Inc/stm32u5xx_ll_bus.h **** #define LL_AHB2_GRP2_PERIPH_OCTOSPI1       RCC_AHB2ENR2_OCTOSPI1EN
 195:Drivers/STM32U5xx_HAL_Driver/Inc/stm32u5xx_ll_bus.h **** #if defined(OCTOSPI2)
 196:Drivers/STM32U5xx_HAL_Driver/Inc/stm32u5xx_ll_bus.h **** #define LL_AHB2_GRP2_PERIPH_OCTOSPI2       RCC_AHB2ENR2_OCTOSPI2EN
 197:Drivers/STM32U5xx_HAL_Driver/Inc/stm32u5xx_ll_bus.h **** #endif /* OCTOSPI2 */
 198:Drivers/STM32U5xx_HAL_Driver/Inc/stm32u5xx_ll_bus.h **** #if defined(HSPI1)
 199:Drivers/STM32U5xx_HAL_Driver/Inc/stm32u5xx_ll_bus.h **** #define LL_AHB2_GRP2_PERIPH_HSPI1          RCC_AHB2ENR2_HSPI1EN
 200:Drivers/STM32U5xx_HAL_Driver/Inc/stm32u5xx_ll_bus.h **** #endif /* defined(HSPI1) */
 201:Drivers/STM32U5xx_HAL_Driver/Inc/stm32u5xx_ll_bus.h **** #if defined(SRAM6_BASE)
 202:Drivers/STM32U5xx_HAL_Driver/Inc/stm32u5xx_ll_bus.h **** #define LL_AHB2_GRP2_PERIPH_SRAM6          RCC_AHB2ENR2_SRAM6EN
 203:Drivers/STM32U5xx_HAL_Driver/Inc/stm32u5xx_ll_bus.h **** #endif /* SRAM6_BASE */
 204:Drivers/STM32U5xx_HAL_Driver/Inc/stm32u5xx_ll_bus.h **** #if defined(SRAM5_BASE)
 205:Drivers/STM32U5xx_HAL_Driver/Inc/stm32u5xx_ll_bus.h **** #define LL_AHB2_GRP2_PERIPH_SRAM5          RCC_AHB2ENR2_SRAM5EN
 206:Drivers/STM32U5xx_HAL_Driver/Inc/stm32u5xx_ll_bus.h **** #endif /* SRAM5_BASE */
 207:Drivers/STM32U5xx_HAL_Driver/Inc/stm32u5xx_ll_bus.h **** /**
 208:Drivers/STM32U5xx_HAL_Driver/Inc/stm32u5xx_ll_bus.h ****   * @}
 209:Drivers/STM32U5xx_HAL_Driver/Inc/stm32u5xx_ll_bus.h ****   */
 210:Drivers/STM32U5xx_HAL_Driver/Inc/stm32u5xx_ll_bus.h **** 
 211:Drivers/STM32U5xx_HAL_Driver/Inc/stm32u5xx_ll_bus.h **** /** @defgroup BUS_LL_EC_APB1_GRP1_PERIPH  APB1 GRP1 PERIPH
 212:Drivers/STM32U5xx_HAL_Driver/Inc/stm32u5xx_ll_bus.h ****   * @{
 213:Drivers/STM32U5xx_HAL_Driver/Inc/stm32u5xx_ll_bus.h ****   */
 214:Drivers/STM32U5xx_HAL_Driver/Inc/stm32u5xx_ll_bus.h **** #define LL_APB1_GRP1_PERIPH_ALL           0xFFFFFFFFU
 215:Drivers/STM32U5xx_HAL_Driver/Inc/stm32u5xx_ll_bus.h **** #define LL_APB1_GRP1_PERIPH_TIM2          RCC_APB1ENR1_TIM2EN
 216:Drivers/STM32U5xx_HAL_Driver/Inc/stm32u5xx_ll_bus.h **** #define LL_APB1_GRP1_PERIPH_TIM3          RCC_APB1ENR1_TIM3EN
 217:Drivers/STM32U5xx_HAL_Driver/Inc/stm32u5xx_ll_bus.h **** #define LL_APB1_GRP1_PERIPH_TIM4          RCC_APB1ENR1_TIM4EN
 218:Drivers/STM32U5xx_HAL_Driver/Inc/stm32u5xx_ll_bus.h **** #define LL_APB1_GRP1_PERIPH_TIM5          RCC_APB1ENR1_TIM5EN
 219:Drivers/STM32U5xx_HAL_Driver/Inc/stm32u5xx_ll_bus.h **** #define LL_APB1_GRP1_PERIPH_TIM6          RCC_APB1ENR1_TIM6EN
 220:Drivers/STM32U5xx_HAL_Driver/Inc/stm32u5xx_ll_bus.h **** #define LL_APB1_GRP1_PERIPH_TIM7          RCC_APB1ENR1_TIM7EN
 221:Drivers/STM32U5xx_HAL_Driver/Inc/stm32u5xx_ll_bus.h **** #define LL_APB1_GRP1_PERIPH_WWDG          RCC_APB1ENR1_WWDGEN
 222:Drivers/STM32U5xx_HAL_Driver/Inc/stm32u5xx_ll_bus.h **** #define LL_APB1_GRP1_PERIPH_SPI2          RCC_APB1ENR1_SPI2EN
 223:Drivers/STM32U5xx_HAL_Driver/Inc/stm32u5xx_ll_bus.h **** #if defined(USART2)
ARM GAS  /tmp/ccyLpKvw.s 			page 19


 224:Drivers/STM32U5xx_HAL_Driver/Inc/stm32u5xx_ll_bus.h **** #define LL_APB1_GRP1_PERIPH_USART2        RCC_APB1ENR1_USART2EN
 225:Drivers/STM32U5xx_HAL_Driver/Inc/stm32u5xx_ll_bus.h **** #endif /* USART2 */
 226:Drivers/STM32U5xx_HAL_Driver/Inc/stm32u5xx_ll_bus.h **** #define LL_APB1_GRP1_PERIPH_USART3        RCC_APB1ENR1_USART3EN
 227:Drivers/STM32U5xx_HAL_Driver/Inc/stm32u5xx_ll_bus.h **** #define LL_APB1_GRP1_PERIPH_UART4         RCC_APB1ENR1_UART4EN
 228:Drivers/STM32U5xx_HAL_Driver/Inc/stm32u5xx_ll_bus.h **** #define LL_APB1_GRP1_PERIPH_UART5         RCC_APB1ENR1_UART5EN
 229:Drivers/STM32U5xx_HAL_Driver/Inc/stm32u5xx_ll_bus.h **** #define LL_APB1_GRP1_PERIPH_I2C1          RCC_APB1ENR1_I2C1EN
 230:Drivers/STM32U5xx_HAL_Driver/Inc/stm32u5xx_ll_bus.h **** #define LL_APB1_GRP1_PERIPH_I2C2          RCC_APB1ENR1_I2C2EN
 231:Drivers/STM32U5xx_HAL_Driver/Inc/stm32u5xx_ll_bus.h **** #define LL_APB1_GRP1_PERIPH_CRS           RCC_APB1ENR1_CRSEN
 232:Drivers/STM32U5xx_HAL_Driver/Inc/stm32u5xx_ll_bus.h **** #if defined(USART6)
 233:Drivers/STM32U5xx_HAL_Driver/Inc/stm32u5xx_ll_bus.h **** #define LL_APB1_GRP1_PERIPH_USART6        RCC_APB1ENR1_USART6EN
 234:Drivers/STM32U5xx_HAL_Driver/Inc/stm32u5xx_ll_bus.h **** #endif /* defined(USART6) */
 235:Drivers/STM32U5xx_HAL_Driver/Inc/stm32u5xx_ll_bus.h **** /**
 236:Drivers/STM32U5xx_HAL_Driver/Inc/stm32u5xx_ll_bus.h ****   * @}
 237:Drivers/STM32U5xx_HAL_Driver/Inc/stm32u5xx_ll_bus.h ****   */
 238:Drivers/STM32U5xx_HAL_Driver/Inc/stm32u5xx_ll_bus.h **** 
 239:Drivers/STM32U5xx_HAL_Driver/Inc/stm32u5xx_ll_bus.h **** 
 240:Drivers/STM32U5xx_HAL_Driver/Inc/stm32u5xx_ll_bus.h **** /** @defgroup BUS_LL_EC_APB1_GRP2_PERIPH  APB1 GRP2 PERIPH
 241:Drivers/STM32U5xx_HAL_Driver/Inc/stm32u5xx_ll_bus.h ****   * @{
 242:Drivers/STM32U5xx_HAL_Driver/Inc/stm32u5xx_ll_bus.h ****   */
 243:Drivers/STM32U5xx_HAL_Driver/Inc/stm32u5xx_ll_bus.h **** #define LL_APB1_GRP2_PERIPH_ALL            0xFFFFFFFFU
 244:Drivers/STM32U5xx_HAL_Driver/Inc/stm32u5xx_ll_bus.h **** #define LL_APB1_GRP2_PERIPH_I2C4           RCC_APB1ENR2_I2C4EN
 245:Drivers/STM32U5xx_HAL_Driver/Inc/stm32u5xx_ll_bus.h **** #define LL_APB1_GRP2_PERIPH_LPTIM2         RCC_APB1ENR2_LPTIM2EN
 246:Drivers/STM32U5xx_HAL_Driver/Inc/stm32u5xx_ll_bus.h **** #define LL_APB1_GRP2_PERIPH_FDCAN1         RCC_APB1ENR2_FDCAN1EN
 247:Drivers/STM32U5xx_HAL_Driver/Inc/stm32u5xx_ll_bus.h **** #if defined(UCPD1)
 248:Drivers/STM32U5xx_HAL_Driver/Inc/stm32u5xx_ll_bus.h **** #define LL_APB1_GRP2_PERIPH_UCPD1          RCC_APB1ENR2_UCPD1EN
 249:Drivers/STM32U5xx_HAL_Driver/Inc/stm32u5xx_ll_bus.h **** #endif /* UCPD1 */
 250:Drivers/STM32U5xx_HAL_Driver/Inc/stm32u5xx_ll_bus.h **** #if defined(I2C5)
 251:Drivers/STM32U5xx_HAL_Driver/Inc/stm32u5xx_ll_bus.h **** #define LL_APB1_GRP2_PERIPH_I2C5           RCC_APB1ENR2_I2C5EN
 252:Drivers/STM32U5xx_HAL_Driver/Inc/stm32u5xx_ll_bus.h **** #endif /* defined(I2C5) */
 253:Drivers/STM32U5xx_HAL_Driver/Inc/stm32u5xx_ll_bus.h **** #if defined(I2C6)
 254:Drivers/STM32U5xx_HAL_Driver/Inc/stm32u5xx_ll_bus.h **** #define LL_APB1_GRP2_PERIPH_I2C6           RCC_APB1ENR2_I2C6EN
 255:Drivers/STM32U5xx_HAL_Driver/Inc/stm32u5xx_ll_bus.h **** #endif /* defined(I2C6) */
 256:Drivers/STM32U5xx_HAL_Driver/Inc/stm32u5xx_ll_bus.h **** /**
 257:Drivers/STM32U5xx_HAL_Driver/Inc/stm32u5xx_ll_bus.h ****   * @}
 258:Drivers/STM32U5xx_HAL_Driver/Inc/stm32u5xx_ll_bus.h ****   */
 259:Drivers/STM32U5xx_HAL_Driver/Inc/stm32u5xx_ll_bus.h **** 
 260:Drivers/STM32U5xx_HAL_Driver/Inc/stm32u5xx_ll_bus.h **** /** @defgroup BUS_LL_EC_APB2_GRP1_PERIPH  APB2 GRP1 PERIPH
 261:Drivers/STM32U5xx_HAL_Driver/Inc/stm32u5xx_ll_bus.h ****   * @{
 262:Drivers/STM32U5xx_HAL_Driver/Inc/stm32u5xx_ll_bus.h ****   */
 263:Drivers/STM32U5xx_HAL_Driver/Inc/stm32u5xx_ll_bus.h **** #define LL_APB2_GRP1_PERIPH_ALL            0xFFFFFFFFU
 264:Drivers/STM32U5xx_HAL_Driver/Inc/stm32u5xx_ll_bus.h **** #define LL_APB2_GRP1_PERIPH_TIM1           RCC_APB2ENR_TIM1EN
 265:Drivers/STM32U5xx_HAL_Driver/Inc/stm32u5xx_ll_bus.h **** #define LL_APB2_GRP1_PERIPH_SPI1           RCC_APB2ENR_SPI1EN
 266:Drivers/STM32U5xx_HAL_Driver/Inc/stm32u5xx_ll_bus.h **** #define LL_APB2_GRP1_PERIPH_TIM8           RCC_APB2ENR_TIM8EN
 267:Drivers/STM32U5xx_HAL_Driver/Inc/stm32u5xx_ll_bus.h **** #define LL_APB2_GRP1_PERIPH_USART1         RCC_APB2ENR_USART1EN
 268:Drivers/STM32U5xx_HAL_Driver/Inc/stm32u5xx_ll_bus.h **** #define LL_APB2_GRP1_PERIPH_TIM15          RCC_APB2ENR_TIM15EN
 269:Drivers/STM32U5xx_HAL_Driver/Inc/stm32u5xx_ll_bus.h **** #define LL_APB2_GRP1_PERIPH_TIM16          RCC_APB2ENR_TIM16EN
 270:Drivers/STM32U5xx_HAL_Driver/Inc/stm32u5xx_ll_bus.h **** #define LL_APB2_GRP1_PERIPH_TIM17          RCC_APB2ENR_TIM17EN
 271:Drivers/STM32U5xx_HAL_Driver/Inc/stm32u5xx_ll_bus.h **** #define LL_APB2_GRP1_PERIPH_SAI1           RCC_APB2ENR_SAI1EN
 272:Drivers/STM32U5xx_HAL_Driver/Inc/stm32u5xx_ll_bus.h **** #if defined(SAI2)
 273:Drivers/STM32U5xx_HAL_Driver/Inc/stm32u5xx_ll_bus.h **** #define LL_APB2_GRP1_PERIPH_SAI2           RCC_APB2ENR_SAI2EN
 274:Drivers/STM32U5xx_HAL_Driver/Inc/stm32u5xx_ll_bus.h **** #endif /* SAI2 */
 275:Drivers/STM32U5xx_HAL_Driver/Inc/stm32u5xx_ll_bus.h **** #if defined(USB_DRD_FS)
 276:Drivers/STM32U5xx_HAL_Driver/Inc/stm32u5xx_ll_bus.h **** #define LL_APB2_GRP1_PERIPH_USB_FS         RCC_APB2ENR_USBEN
 277:Drivers/STM32U5xx_HAL_Driver/Inc/stm32u5xx_ll_bus.h **** #endif /* USB_DRD_FS */
 278:Drivers/STM32U5xx_HAL_Driver/Inc/stm32u5xx_ll_bus.h **** #if defined(GFXTIM)
 279:Drivers/STM32U5xx_HAL_Driver/Inc/stm32u5xx_ll_bus.h **** #define LL_APB2_GRP1_PERIPH_GFXTIM         RCC_APB2ENR_GFXTIMEN
 280:Drivers/STM32U5xx_HAL_Driver/Inc/stm32u5xx_ll_bus.h **** #endif /* GFXTIM */
ARM GAS  /tmp/ccyLpKvw.s 			page 20


 281:Drivers/STM32U5xx_HAL_Driver/Inc/stm32u5xx_ll_bus.h **** #if defined(LTDC)
 282:Drivers/STM32U5xx_HAL_Driver/Inc/stm32u5xx_ll_bus.h **** #define LL_APB2_GRP1_PERIPH_LTDC           RCC_APB2ENR_LTDCEN
 283:Drivers/STM32U5xx_HAL_Driver/Inc/stm32u5xx_ll_bus.h **** #endif /* defined(LTDC) */
 284:Drivers/STM32U5xx_HAL_Driver/Inc/stm32u5xx_ll_bus.h **** #if defined(DSI)
 285:Drivers/STM32U5xx_HAL_Driver/Inc/stm32u5xx_ll_bus.h **** #define LL_APB2_GRP1_PERIPH_DSI            RCC_APB2ENR_DSIHOSTEN
 286:Drivers/STM32U5xx_HAL_Driver/Inc/stm32u5xx_ll_bus.h **** #endif /* defined(DSI) */
 287:Drivers/STM32U5xx_HAL_Driver/Inc/stm32u5xx_ll_bus.h **** /**
 288:Drivers/STM32U5xx_HAL_Driver/Inc/stm32u5xx_ll_bus.h ****   * @}
 289:Drivers/STM32U5xx_HAL_Driver/Inc/stm32u5xx_ll_bus.h ****   */
 290:Drivers/STM32U5xx_HAL_Driver/Inc/stm32u5xx_ll_bus.h **** 
 291:Drivers/STM32U5xx_HAL_Driver/Inc/stm32u5xx_ll_bus.h **** /** @defgroup BUS_LL_EC_APB3_GRP1_PERIPH  APB3 GRP1 PERIPH
 292:Drivers/STM32U5xx_HAL_Driver/Inc/stm32u5xx_ll_bus.h ****   * @{
 293:Drivers/STM32U5xx_HAL_Driver/Inc/stm32u5xx_ll_bus.h ****   */
 294:Drivers/STM32U5xx_HAL_Driver/Inc/stm32u5xx_ll_bus.h **** #define LL_APB3_GRP1_PERIPH_ALL           0xFFFFFFFFU
 295:Drivers/STM32U5xx_HAL_Driver/Inc/stm32u5xx_ll_bus.h **** #define LL_APB3_GRP1_PERIPH_SYSCFG        RCC_APB3ENR_SYSCFGEN
 296:Drivers/STM32U5xx_HAL_Driver/Inc/stm32u5xx_ll_bus.h **** #define LL_APB3_GRP1_PERIPH_SPI3          RCC_APB3ENR_SPI3EN
 297:Drivers/STM32U5xx_HAL_Driver/Inc/stm32u5xx_ll_bus.h **** #define LL_APB3_GRP1_PERIPH_LPUART1       RCC_APB3ENR_LPUART1EN
 298:Drivers/STM32U5xx_HAL_Driver/Inc/stm32u5xx_ll_bus.h **** #define LL_APB3_GRP1_PERIPH_I2C3          RCC_APB3ENR_I2C3EN
 299:Drivers/STM32U5xx_HAL_Driver/Inc/stm32u5xx_ll_bus.h **** #define LL_APB3_GRP1_PERIPH_LPTIM1        RCC_APB3ENR_LPTIM1EN
 300:Drivers/STM32U5xx_HAL_Driver/Inc/stm32u5xx_ll_bus.h **** #define LL_APB3_GRP1_PERIPH_LPTIM3        RCC_APB3ENR_LPTIM3EN
 301:Drivers/STM32U5xx_HAL_Driver/Inc/stm32u5xx_ll_bus.h **** #define LL_APB3_GRP1_PERIPH_LPTIM4        RCC_APB3ENR_LPTIM4EN
 302:Drivers/STM32U5xx_HAL_Driver/Inc/stm32u5xx_ll_bus.h **** #define LL_APB3_GRP1_PERIPH_OPAMP         RCC_APB3ENR_OPAMPEN
 303:Drivers/STM32U5xx_HAL_Driver/Inc/stm32u5xx_ll_bus.h **** #define LL_APB3_GRP1_PERIPH_COMP          RCC_APB3ENR_COMPEN
 304:Drivers/STM32U5xx_HAL_Driver/Inc/stm32u5xx_ll_bus.h **** #define LL_APB3_GRP1_PERIPH_VREF          RCC_APB3ENR_VREFEN
 305:Drivers/STM32U5xx_HAL_Driver/Inc/stm32u5xx_ll_bus.h **** #define LL_APB3_GRP1_PERIPH_RTCAPB        RCC_APB3ENR_RTCAPBEN
 306:Drivers/STM32U5xx_HAL_Driver/Inc/stm32u5xx_ll_bus.h **** /**
 307:Drivers/STM32U5xx_HAL_Driver/Inc/stm32u5xx_ll_bus.h ****   * @}
 308:Drivers/STM32U5xx_HAL_Driver/Inc/stm32u5xx_ll_bus.h ****   */
 309:Drivers/STM32U5xx_HAL_Driver/Inc/stm32u5xx_ll_bus.h **** 
 310:Drivers/STM32U5xx_HAL_Driver/Inc/stm32u5xx_ll_bus.h **** /** @defgroup BUS_LL_EC_SRDAMR_GRP1_PERIPH  SRDAMR GRP1 PERIPH
 311:Drivers/STM32U5xx_HAL_Driver/Inc/stm32u5xx_ll_bus.h ****   * @{
 312:Drivers/STM32U5xx_HAL_Driver/Inc/stm32u5xx_ll_bus.h ****   */
 313:Drivers/STM32U5xx_HAL_Driver/Inc/stm32u5xx_ll_bus.h **** #define LL_SRDAMR_GRP1_PERIPH_ALL         0xFFFFFFFFU
 314:Drivers/STM32U5xx_HAL_Driver/Inc/stm32u5xx_ll_bus.h **** #define LL_SRDAMR_GRP1_PERIPH_SPI3        RCC_SRDAMR_SPI3AMEN
 315:Drivers/STM32U5xx_HAL_Driver/Inc/stm32u5xx_ll_bus.h **** #define LL_SRDAMR_GRP1_PERIPH_LPUART1     RCC_SRDAMR_LPUART1AMEN
 316:Drivers/STM32U5xx_HAL_Driver/Inc/stm32u5xx_ll_bus.h **** #define LL_SRDAMR_GRP1_PERIPH_I2C3        RCC_SRDAMR_I2C3AMEN
 317:Drivers/STM32U5xx_HAL_Driver/Inc/stm32u5xx_ll_bus.h **** #define LL_SRDAMR_GRP1_PERIPH_LPTIM1      RCC_SRDAMR_LPTIM1AMEN
 318:Drivers/STM32U5xx_HAL_Driver/Inc/stm32u5xx_ll_bus.h **** #define LL_SRDAMR_GRP1_PERIPH_LPTIM3      RCC_SRDAMR_LPTIM3AMEN
 319:Drivers/STM32U5xx_HAL_Driver/Inc/stm32u5xx_ll_bus.h **** #define LL_SRDAMR_GRP1_PERIPH_LPTIM4      RCC_SRDAMR_LPTIM4AMEN
 320:Drivers/STM32U5xx_HAL_Driver/Inc/stm32u5xx_ll_bus.h **** #define LL_SRDAMR_GRP1_PERIPH_OPAMP       RCC_SRDAMR_OPAMPAMEN
 321:Drivers/STM32U5xx_HAL_Driver/Inc/stm32u5xx_ll_bus.h **** #define LL_SRDAMR_GRP1_PERIPH_COMP        RCC_SRDAMR_COMPAMEN
 322:Drivers/STM32U5xx_HAL_Driver/Inc/stm32u5xx_ll_bus.h **** #define LL_SRDAMR_GRP1_PERIPH_VREF        RCC_SRDAMR_VREFAMEN
 323:Drivers/STM32U5xx_HAL_Driver/Inc/stm32u5xx_ll_bus.h **** #define LL_SRDAMR_GRP1_PERIPH_RTCAPB      RCC_SRDAMR_RTCAPBAMEN
 324:Drivers/STM32U5xx_HAL_Driver/Inc/stm32u5xx_ll_bus.h **** #define LL_SRDAMR_GRP1_PERIPH_ADC4        RCC_SRDAMR_ADC4AMEN
 325:Drivers/STM32U5xx_HAL_Driver/Inc/stm32u5xx_ll_bus.h **** #define LL_SRDAMR_GRP1_PERIPH_LPGPIO1     RCC_SRDAMR_LPGPIO1AMEN
 326:Drivers/STM32U5xx_HAL_Driver/Inc/stm32u5xx_ll_bus.h **** #define LL_SRDAMR_GRP1_PERIPH_DAC1        RCC_SRDAMR_DAC1AMEN
 327:Drivers/STM32U5xx_HAL_Driver/Inc/stm32u5xx_ll_bus.h **** #define LL_SRDAMR_GRP1_PERIPH_LPDMA1      RCC_SRDAMR_LPDMA1AMEN
 328:Drivers/STM32U5xx_HAL_Driver/Inc/stm32u5xx_ll_bus.h **** #define LL_SRDAMR_GRP1_PERIPH_ADF1        RCC_SRDAMR_ADF1AMEN
 329:Drivers/STM32U5xx_HAL_Driver/Inc/stm32u5xx_ll_bus.h **** #define LL_SRDAMR_GRP1_PERIPH_SRAM4       RCC_SRDAMR_SRAM4AMEN
 330:Drivers/STM32U5xx_HAL_Driver/Inc/stm32u5xx_ll_bus.h **** /**
 331:Drivers/STM32U5xx_HAL_Driver/Inc/stm32u5xx_ll_bus.h ****   * @}
 332:Drivers/STM32U5xx_HAL_Driver/Inc/stm32u5xx_ll_bus.h ****   */
 333:Drivers/STM32U5xx_HAL_Driver/Inc/stm32u5xx_ll_bus.h **** /** @defgroup LL_RCC_Aliased_Constants  LL RCC Aliased Constants maintained for legacy purpose
 334:Drivers/STM32U5xx_HAL_Driver/Inc/stm32u5xx_ll_bus.h ****   * @{
 335:Drivers/STM32U5xx_HAL_Driver/Inc/stm32u5xx_ll_bus.h ****   */
 336:Drivers/STM32U5xx_HAL_Driver/Inc/stm32u5xx_ll_bus.h **** #define LL_AHB2_GRP1_PERIPH_ADC1             LL_AHB2_GRP1_PERIPH_ADC12
 337:Drivers/STM32U5xx_HAL_Driver/Inc/stm32u5xx_ll_bus.h **** #define LL_SRDAMR_GRP1_PERIPH_SPI3AMEN       LL_SRDAMR_GRP1_PERIPH_SPI3
ARM GAS  /tmp/ccyLpKvw.s 			page 21


 338:Drivers/STM32U5xx_HAL_Driver/Inc/stm32u5xx_ll_bus.h **** #define LL_SRDAMR_GRP1_PERIPH_LPUART1AMEN    LL_SRDAMR_GRP1_PERIPH_LPUART1
 339:Drivers/STM32U5xx_HAL_Driver/Inc/stm32u5xx_ll_bus.h **** #define LL_SRDAMR_GRP1_PERIPH_I2C3AMEN       LL_SRDAMR_GRP1_PERIPH_I2C3
 340:Drivers/STM32U5xx_HAL_Driver/Inc/stm32u5xx_ll_bus.h **** #define LL_SRDAMR_GRP1_PERIPH_LPTIM1AMEN     LL_SRDAMR_GRP1_PERIPH_LPTIM1
 341:Drivers/STM32U5xx_HAL_Driver/Inc/stm32u5xx_ll_bus.h **** #define LL_SRDAMR_GRP1_PERIPH_LPTIM3AMEN     LL_SRDAMR_GRP1_PERIPH_LPTIM3
 342:Drivers/STM32U5xx_HAL_Driver/Inc/stm32u5xx_ll_bus.h **** #define LL_SRDAMR_GRP1_PERIPH_LPTIM4AMEN     LL_SRDAMR_GRP1_PERIPH_LPTIM4
 343:Drivers/STM32U5xx_HAL_Driver/Inc/stm32u5xx_ll_bus.h **** #define LL_SRDAMR_GRP1_PERIPH_OPAMPAMEN      LL_SRDAMR_GRP1_PERIPH_OPAMP
 344:Drivers/STM32U5xx_HAL_Driver/Inc/stm32u5xx_ll_bus.h **** #define LL_SRDAMR_GRP1_PERIPH_COMPAMEN       LL_SRDAMR_GRP1_PERIPH_COMP
 345:Drivers/STM32U5xx_HAL_Driver/Inc/stm32u5xx_ll_bus.h **** #define LL_SRDAMR_GRP1_PERIPH_VREFAMEN       LL_SRDAMR_GRP1_PERIPH_VREF
 346:Drivers/STM32U5xx_HAL_Driver/Inc/stm32u5xx_ll_bus.h **** #define LL_SRDAMR_GRP1_PERIPH_RTCAPBAMEN     LL_SRDAMR_GRP1_PERIPH_RTCAPB
 347:Drivers/STM32U5xx_HAL_Driver/Inc/stm32u5xx_ll_bus.h **** #define LL_SRDAMR_GRP1_PERIPH_ADC4AMEN       LL_SRDAMR_GRP1_PERIPH_ADC4
 348:Drivers/STM32U5xx_HAL_Driver/Inc/stm32u5xx_ll_bus.h **** #define LL_SRDAMR_GRP1_PERIPH_LPGPIO1AMEN    LL_SRDAMR_GRP1_PERIPH_LPGPIO1
 349:Drivers/STM32U5xx_HAL_Driver/Inc/stm32u5xx_ll_bus.h **** #define LL_SRDAMR_GRP1_PERIPH_DAC1AMEN       LL_SRDAMR_GRP1_PERIPH_DAC1
 350:Drivers/STM32U5xx_HAL_Driver/Inc/stm32u5xx_ll_bus.h **** #define LL_SRDAMR_GRP1_PERIPH_LPDMA1AMEN     LL_SRDAMR_GRP1_PERIPH_LPDMA1
 351:Drivers/STM32U5xx_HAL_Driver/Inc/stm32u5xx_ll_bus.h **** #define LL_SRDAMR_GRP1_PERIPH_ADF1AMEN       LL_SRDAMR_GRP1_PERIPH_ADF1
 352:Drivers/STM32U5xx_HAL_Driver/Inc/stm32u5xx_ll_bus.h **** #define LL_SRDAMR_GRP1_PERIPH_SRAM4AMEN      LL_SRDAMR_GRP1_PERIPH_SRAM4
 353:Drivers/STM32U5xx_HAL_Driver/Inc/stm32u5xx_ll_bus.h **** /**
 354:Drivers/STM32U5xx_HAL_Driver/Inc/stm32u5xx_ll_bus.h ****   * @}
 355:Drivers/STM32U5xx_HAL_Driver/Inc/stm32u5xx_ll_bus.h ****   */
 356:Drivers/STM32U5xx_HAL_Driver/Inc/stm32u5xx_ll_bus.h **** /**
 357:Drivers/STM32U5xx_HAL_Driver/Inc/stm32u5xx_ll_bus.h ****   * @}
 358:Drivers/STM32U5xx_HAL_Driver/Inc/stm32u5xx_ll_bus.h ****   */
 359:Drivers/STM32U5xx_HAL_Driver/Inc/stm32u5xx_ll_bus.h **** 
 360:Drivers/STM32U5xx_HAL_Driver/Inc/stm32u5xx_ll_bus.h **** /* Exported macro ------------------------------------------------------------*/
 361:Drivers/STM32U5xx_HAL_Driver/Inc/stm32u5xx_ll_bus.h **** /* Exported functions --------------------------------------------------------*/
 362:Drivers/STM32U5xx_HAL_Driver/Inc/stm32u5xx_ll_bus.h **** /** @defgroup BUS_LL_Exported_Functions BUS Exported Functions
 363:Drivers/STM32U5xx_HAL_Driver/Inc/stm32u5xx_ll_bus.h ****   * @{
 364:Drivers/STM32U5xx_HAL_Driver/Inc/stm32u5xx_ll_bus.h ****   */
 365:Drivers/STM32U5xx_HAL_Driver/Inc/stm32u5xx_ll_bus.h **** 
 366:Drivers/STM32U5xx_HAL_Driver/Inc/stm32u5xx_ll_bus.h **** /** @defgroup BUS_LL_EF_AHB1 AHB1
 367:Drivers/STM32U5xx_HAL_Driver/Inc/stm32u5xx_ll_bus.h ****   * @{
 368:Drivers/STM32U5xx_HAL_Driver/Inc/stm32u5xx_ll_bus.h ****   */
 369:Drivers/STM32U5xx_HAL_Driver/Inc/stm32u5xx_ll_bus.h **** 
 370:Drivers/STM32U5xx_HAL_Driver/Inc/stm32u5xx_ll_bus.h **** /**
 371:Drivers/STM32U5xx_HAL_Driver/Inc/stm32u5xx_ll_bus.h ****   * @brief  Enable AHB1 bus clock.
 372:Drivers/STM32U5xx_HAL_Driver/Inc/stm32u5xx_ll_bus.h ****   * @rmtoll CFGR2    AHB1DIS     LL_AHB1_GRP1_EnableBusClock
 373:Drivers/STM32U5xx_HAL_Driver/Inc/stm32u5xx_ll_bus.h ****   * @retval None
 374:Drivers/STM32U5xx_HAL_Driver/Inc/stm32u5xx_ll_bus.h ****   */
 375:Drivers/STM32U5xx_HAL_Driver/Inc/stm32u5xx_ll_bus.h **** __STATIC_INLINE void LL_AHB1_GRP1_EnableBusClock(void)
 376:Drivers/STM32U5xx_HAL_Driver/Inc/stm32u5xx_ll_bus.h **** {
 377:Drivers/STM32U5xx_HAL_Driver/Inc/stm32u5xx_ll_bus.h ****   __IO uint32_t tmpreg;
 378:Drivers/STM32U5xx_HAL_Driver/Inc/stm32u5xx_ll_bus.h ****   CLEAR_BIT(RCC->CFGR2, RCC_CFGR2_AHB1DIS);
 379:Drivers/STM32U5xx_HAL_Driver/Inc/stm32u5xx_ll_bus.h ****   tmpreg = READ_BIT(RCC->CFGR2, RCC_CFGR2_AHB1DIS);
 380:Drivers/STM32U5xx_HAL_Driver/Inc/stm32u5xx_ll_bus.h ****   (void)(tmpreg);
 381:Drivers/STM32U5xx_HAL_Driver/Inc/stm32u5xx_ll_bus.h **** }
 382:Drivers/STM32U5xx_HAL_Driver/Inc/stm32u5xx_ll_bus.h **** 
 383:Drivers/STM32U5xx_HAL_Driver/Inc/stm32u5xx_ll_bus.h **** /**
 384:Drivers/STM32U5xx_HAL_Driver/Inc/stm32u5xx_ll_bus.h ****   * @brief  Enable AHB1 peripherals clock.
 385:Drivers/STM32U5xx_HAL_Driver/Inc/stm32u5xx_ll_bus.h ****   * @rmtoll AHB1ENR    GPDMA1EN     LL_AHB1_GRP1_EnableClock\n
 386:Drivers/STM32U5xx_HAL_Driver/Inc/stm32u5xx_ll_bus.h ****   *         AHB1ENR    CORDICEN     LL_AHB1_GRP1_EnableClock\n
 387:Drivers/STM32U5xx_HAL_Driver/Inc/stm32u5xx_ll_bus.h ****   *         AHB1ENR    FMACEN       LL_AHB1_GRP1_EnableClock\n
 388:Drivers/STM32U5xx_HAL_Driver/Inc/stm32u5xx_ll_bus.h ****   *         AHB1ENR    MDF1EN       LL_AHB1_GRP1_EnableClock\n
 389:Drivers/STM32U5xx_HAL_Driver/Inc/stm32u5xx_ll_bus.h ****   *         AHB1ENR    FLASHEN      LL_AHB1_GRP1_EnableClock\n
 390:Drivers/STM32U5xx_HAL_Driver/Inc/stm32u5xx_ll_bus.h ****   *         AHB1ENR    CRCEN        LL_AHB1_GRP1_EnableClock\n
 391:Drivers/STM32U5xx_HAL_Driver/Inc/stm32u5xx_ll_bus.h ****   *         AHB1ENR    JPEGEN       LL_AHB1_GRP1_EnableClock\n
 392:Drivers/STM32U5xx_HAL_Driver/Inc/stm32u5xx_ll_bus.h ****   *         AHB1ENR    TSCEN        LL_AHB1_GRP1_EnableClock\n
 393:Drivers/STM32U5xx_HAL_Driver/Inc/stm32u5xx_ll_bus.h ****   *         AHB1ENR    RAMCFGEN     LL_AHB1_GRP1_EnableClock\n
 394:Drivers/STM32U5xx_HAL_Driver/Inc/stm32u5xx_ll_bus.h ****   *         AHB1ENR    DMA2DEN      LL_AHB1_GRP1_EnableClock\n
ARM GAS  /tmp/ccyLpKvw.s 			page 22


 395:Drivers/STM32U5xx_HAL_Driver/Inc/stm32u5xx_ll_bus.h ****   *         AHB1ENR    GFXMMUEN     LL_AHB1_GRP1_EnableClock\n
 396:Drivers/STM32U5xx_HAL_Driver/Inc/stm32u5xx_ll_bus.h ****   *         AHB1ENR    GPU2DEN      LL_AHB1_GRP1_EnableClock\n
 397:Drivers/STM32U5xx_HAL_Driver/Inc/stm32u5xx_ll_bus.h ****   *         AHB1ENR    DCACHE2EN    LL_AHB1_GRP1_EnableClock\n
 398:Drivers/STM32U5xx_HAL_Driver/Inc/stm32u5xx_ll_bus.h ****   *         AHB1ENR    GTZC1EN      LL_AHB1_GRP1_EnableClock\n
 399:Drivers/STM32U5xx_HAL_Driver/Inc/stm32u5xx_ll_bus.h ****   *         AHB1ENR    BKPSRAMEN    LL_AHB1_GRP1_EnableClock\n
 400:Drivers/STM32U5xx_HAL_Driver/Inc/stm32u5xx_ll_bus.h ****   *         AHB1ENR    DCACHE1EN    LL_AHB1_GRP1_EnableClock\n
 401:Drivers/STM32U5xx_HAL_Driver/Inc/stm32u5xx_ll_bus.h ****   *         AHB1ENR    SRAM1EN      LL_AHB1_GRP1_EnableClock\n
 402:Drivers/STM32U5xx_HAL_Driver/Inc/stm32u5xx_ll_bus.h ****   * @param  Periphs This parameter can be a combination of the following values:
 403:Drivers/STM32U5xx_HAL_Driver/Inc/stm32u5xx_ll_bus.h ****   *         @arg @ref LL_AHB1_GRP1_PERIPH_ALL
 404:Drivers/STM32U5xx_HAL_Driver/Inc/stm32u5xx_ll_bus.h ****   *         @arg @ref LL_AHB1_GRP1_PERIPH_GPDMA1
 405:Drivers/STM32U5xx_HAL_Driver/Inc/stm32u5xx_ll_bus.h ****   *         @arg @ref LL_AHB1_GRP1_PERIPH_CORDIC
 406:Drivers/STM32U5xx_HAL_Driver/Inc/stm32u5xx_ll_bus.h ****   *         @arg @ref LL_AHB1_GRP1_PERIPH_FMAC
 407:Drivers/STM32U5xx_HAL_Driver/Inc/stm32u5xx_ll_bus.h ****   *         @arg @ref LL_AHB1_GRP1_PERIPH_MDF1
 408:Drivers/STM32U5xx_HAL_Driver/Inc/stm32u5xx_ll_bus.h ****   *         @arg @ref LL_AHB1_GRP1_PERIPH_FLASH
 409:Drivers/STM32U5xx_HAL_Driver/Inc/stm32u5xx_ll_bus.h ****   *         @arg @ref LL_AHB1_GRP1_PERIPH_CRC
 410:Drivers/STM32U5xx_HAL_Driver/Inc/stm32u5xx_ll_bus.h ****   *         @arg @ref LL_AHB1_GRP1_PERIPH_JPEG (*)
 411:Drivers/STM32U5xx_HAL_Driver/Inc/stm32u5xx_ll_bus.h ****   *         @arg @ref LL_AHB1_GRP1_PERIPH_TSC
 412:Drivers/STM32U5xx_HAL_Driver/Inc/stm32u5xx_ll_bus.h ****   *         @arg @ref LL_AHB1_GRP1_PERIPH_RAMCFG
 413:Drivers/STM32U5xx_HAL_Driver/Inc/stm32u5xx_ll_bus.h ****   *         @arg @ref LL_AHB1_GRP1_PERIPH_DMA2D (*)
 414:Drivers/STM32U5xx_HAL_Driver/Inc/stm32u5xx_ll_bus.h ****   *         @arg @ref LL_AHB1_GRP1_PERIPH_GFXMMU (*)
 415:Drivers/STM32U5xx_HAL_Driver/Inc/stm32u5xx_ll_bus.h ****   *         @arg @ref LL_AHB1_GRP1_PERIPH_GPU2D (*)
 416:Drivers/STM32U5xx_HAL_Driver/Inc/stm32u5xx_ll_bus.h ****   *         @arg @ref LL_AHB1_GRP1_PERIPH_DCACHE2 (*)
 417:Drivers/STM32U5xx_HAL_Driver/Inc/stm32u5xx_ll_bus.h ****   *         @arg @ref LL_AHB1_GRP1_PERIPH_GTZC1
 418:Drivers/STM32U5xx_HAL_Driver/Inc/stm32u5xx_ll_bus.h ****   *         @arg @ref LL_AHB1_GRP1_PERIPH_BKPSRAM
 419:Drivers/STM32U5xx_HAL_Driver/Inc/stm32u5xx_ll_bus.h ****   *         @arg @ref LL_AHB1_GRP1_PERIPH_DCACHE1
 420:Drivers/STM32U5xx_HAL_Driver/Inc/stm32u5xx_ll_bus.h ****   *         @arg @ref LL_AHB1_GRP1_PERIPH_SRAM1
 421:Drivers/STM32U5xx_HAL_Driver/Inc/stm32u5xx_ll_bus.h ****   *
 422:Drivers/STM32U5xx_HAL_Driver/Inc/stm32u5xx_ll_bus.h ****   *        (*) value not defined in all devices.
 423:Drivers/STM32U5xx_HAL_Driver/Inc/stm32u5xx_ll_bus.h ****   * @retval None
 424:Drivers/STM32U5xx_HAL_Driver/Inc/stm32u5xx_ll_bus.h ****   */
 425:Drivers/STM32U5xx_HAL_Driver/Inc/stm32u5xx_ll_bus.h **** __STATIC_INLINE void LL_AHB1_GRP1_EnableClock(uint32_t Periphs)
 426:Drivers/STM32U5xx_HAL_Driver/Inc/stm32u5xx_ll_bus.h **** {
 427:Drivers/STM32U5xx_HAL_Driver/Inc/stm32u5xx_ll_bus.h ****   __IO uint32_t tmpreg;
 428:Drivers/STM32U5xx_HAL_Driver/Inc/stm32u5xx_ll_bus.h ****   SET_BIT(RCC->AHB1ENR, Periphs);
 429:Drivers/STM32U5xx_HAL_Driver/Inc/stm32u5xx_ll_bus.h ****   /* Delay after an RCC peripheral clock enabling */
 430:Drivers/STM32U5xx_HAL_Driver/Inc/stm32u5xx_ll_bus.h ****   tmpreg = READ_BIT(RCC->AHB1ENR, Periphs);
 431:Drivers/STM32U5xx_HAL_Driver/Inc/stm32u5xx_ll_bus.h ****   (void)tmpreg;
 432:Drivers/STM32U5xx_HAL_Driver/Inc/stm32u5xx_ll_bus.h **** }
 433:Drivers/STM32U5xx_HAL_Driver/Inc/stm32u5xx_ll_bus.h **** 
 434:Drivers/STM32U5xx_HAL_Driver/Inc/stm32u5xx_ll_bus.h **** /**
 435:Drivers/STM32U5xx_HAL_Driver/Inc/stm32u5xx_ll_bus.h ****   * @brief  Check if AHB1 peripheral clock is enabled or not
 436:Drivers/STM32U5xx_HAL_Driver/Inc/stm32u5xx_ll_bus.h ****   * @rmtoll AHB1ENR    GPDMA1EN     LL_AHB1_GRP1_IsEnabledClock\n
 437:Drivers/STM32U5xx_HAL_Driver/Inc/stm32u5xx_ll_bus.h ****   *         AHB1ENR    CORDICEN     LL_AHB1_GRP1_IsEnabledClock\n
 438:Drivers/STM32U5xx_HAL_Driver/Inc/stm32u5xx_ll_bus.h ****   *         AHB1ENR    FMACEN       LL_AHB1_GRP1_IsEnabledClock\n
 439:Drivers/STM32U5xx_HAL_Driver/Inc/stm32u5xx_ll_bus.h ****   *         AHB1ENR    MDF1EN       LL_AHB1_GRP1_IsEnabledClock\n
 440:Drivers/STM32U5xx_HAL_Driver/Inc/stm32u5xx_ll_bus.h ****   *         AHB1ENR    FLASHEN      LL_AHB1_GRP1_IsEnabledClock\n
 441:Drivers/STM32U5xx_HAL_Driver/Inc/stm32u5xx_ll_bus.h ****   *         AHB1ENR    CRCEN        LL_AHB1_GRP1_IsEnabledClock\n
 442:Drivers/STM32U5xx_HAL_Driver/Inc/stm32u5xx_ll_bus.h ****   *         AHB1ENR    JPEGEN       LL_AHB1_GRP1_IsEnabledClock\n
 443:Drivers/STM32U5xx_HAL_Driver/Inc/stm32u5xx_ll_bus.h ****   *         AHB1ENR    TSCEN        LL_AHB1_GRP1_IsEnabledClock\n
 444:Drivers/STM32U5xx_HAL_Driver/Inc/stm32u5xx_ll_bus.h ****   *         AHB1ENR    RAMCFGEN     LL_AHB1_GRP1_IsEnabledClock\n
 445:Drivers/STM32U5xx_HAL_Driver/Inc/stm32u5xx_ll_bus.h ****   *         AHB1ENR    DMA2DEN      LL_AHB1_GRP1_IsEnabledClock\n
 446:Drivers/STM32U5xx_HAL_Driver/Inc/stm32u5xx_ll_bus.h ****   *         AHB1ENR    GFXMMUEN     LL_AHB1_GRP1_IsEnabledClock\n
 447:Drivers/STM32U5xx_HAL_Driver/Inc/stm32u5xx_ll_bus.h ****   *         AHB1ENR    GPU2DEN      LL_AHB1_GRP1_IsEnabledClock\n
 448:Drivers/STM32U5xx_HAL_Driver/Inc/stm32u5xx_ll_bus.h ****   *         AHB1ENR    DCACHE2EN    LL_AHB1_GRP1_IsEnabledClock\n
 449:Drivers/STM32U5xx_HAL_Driver/Inc/stm32u5xx_ll_bus.h ****   *         AHB1ENR    GTZC1EN      LL_AHB1_GRP1_IsEnabledClock\n
 450:Drivers/STM32U5xx_HAL_Driver/Inc/stm32u5xx_ll_bus.h ****   *         AHB1ENR    BKPSRAMEN    LL_AHB1_GRP1_IsEnabledClock\n
 451:Drivers/STM32U5xx_HAL_Driver/Inc/stm32u5xx_ll_bus.h ****   *         AHB1ENR    DCACHEEN     LL_AHB1_GRP1_IsEnabledClock\n
ARM GAS  /tmp/ccyLpKvw.s 			page 23


 452:Drivers/STM32U5xx_HAL_Driver/Inc/stm32u5xx_ll_bus.h ****   *         AHB1ENR    SRAM1EN      LL_AHB1_GRP1_IsEnabledClock\n
 453:Drivers/STM32U5xx_HAL_Driver/Inc/stm32u5xx_ll_bus.h ****   * @param  Periphs This parameter can be a combination of the following values:
 454:Drivers/STM32U5xx_HAL_Driver/Inc/stm32u5xx_ll_bus.h ****   *         @arg @ref LL_AHB1_GRP1_PERIPH_ALL
 455:Drivers/STM32U5xx_HAL_Driver/Inc/stm32u5xx_ll_bus.h ****   *         @arg @ref LL_AHB1_GRP1_PERIPH_GPDMA1
 456:Drivers/STM32U5xx_HAL_Driver/Inc/stm32u5xx_ll_bus.h ****   *         @arg @ref LL_AHB1_GRP1_PERIPH_CORDIC
 457:Drivers/STM32U5xx_HAL_Driver/Inc/stm32u5xx_ll_bus.h ****   *         @arg @ref LL_AHB1_GRP1_PERIPH_FMAC
 458:Drivers/STM32U5xx_HAL_Driver/Inc/stm32u5xx_ll_bus.h ****   *         @arg @ref LL_AHB1_GRP1_PERIPH_MDF1
 459:Drivers/STM32U5xx_HAL_Driver/Inc/stm32u5xx_ll_bus.h ****   *         @arg @ref LL_AHB1_GRP1_PERIPH_FLASH
 460:Drivers/STM32U5xx_HAL_Driver/Inc/stm32u5xx_ll_bus.h ****   *         @arg @ref LL_AHB1_GRP1_PERIPH_CRC
 461:Drivers/STM32U5xx_HAL_Driver/Inc/stm32u5xx_ll_bus.h ****   *         @arg @ref LL_AHB1_GRP1_PERIPH_JPEG (*)
 462:Drivers/STM32U5xx_HAL_Driver/Inc/stm32u5xx_ll_bus.h ****   *         @arg @ref LL_AHB1_GRP1_PERIPH_TSC
 463:Drivers/STM32U5xx_HAL_Driver/Inc/stm32u5xx_ll_bus.h ****   *         @arg @ref LL_AHB1_GRP1_PERIPH_RAMCFG
 464:Drivers/STM32U5xx_HAL_Driver/Inc/stm32u5xx_ll_bus.h ****   *         @arg @ref LL_AHB1_GRP1_PERIPH_DMA2D (*)
 465:Drivers/STM32U5xx_HAL_Driver/Inc/stm32u5xx_ll_bus.h ****   *         @arg @ref LL_AHB1_GRP1_PERIPH_GFXMMU (*)
 466:Drivers/STM32U5xx_HAL_Driver/Inc/stm32u5xx_ll_bus.h ****   *         @arg @ref LL_AHB1_GRP1_PERIPH_GPU2D (*)
 467:Drivers/STM32U5xx_HAL_Driver/Inc/stm32u5xx_ll_bus.h ****   *         @arg @ref LL_AHB1_GRP1_PERIPH_DCACHE2 (*)
 468:Drivers/STM32U5xx_HAL_Driver/Inc/stm32u5xx_ll_bus.h ****   *         @arg @ref LL_AHB1_GRP1_PERIPH_GTZC1
 469:Drivers/STM32U5xx_HAL_Driver/Inc/stm32u5xx_ll_bus.h ****   *         @arg @ref LL_AHB1_GRP1_PERIPH_BKPSRAM
 470:Drivers/STM32U5xx_HAL_Driver/Inc/stm32u5xx_ll_bus.h ****   *         @arg @ref LL_AHB1_GRP1_PERIPH_DCACHE1
 471:Drivers/STM32U5xx_HAL_Driver/Inc/stm32u5xx_ll_bus.h ****   *         @arg @ref LL_AHB1_GRP1_PERIPH_SRAM1
 472:Drivers/STM32U5xx_HAL_Driver/Inc/stm32u5xx_ll_bus.h ****   *
 473:Drivers/STM32U5xx_HAL_Driver/Inc/stm32u5xx_ll_bus.h ****   *        (*) value not defined in all devices.
 474:Drivers/STM32U5xx_HAL_Driver/Inc/stm32u5xx_ll_bus.h ****   * @retval State of Periphs (1 or 0).
 475:Drivers/STM32U5xx_HAL_Driver/Inc/stm32u5xx_ll_bus.h ****   */
 476:Drivers/STM32U5xx_HAL_Driver/Inc/stm32u5xx_ll_bus.h **** __STATIC_INLINE uint32_t LL_AHB1_GRP1_IsEnabledClock(uint32_t Periphs)
 477:Drivers/STM32U5xx_HAL_Driver/Inc/stm32u5xx_ll_bus.h **** {
 478:Drivers/STM32U5xx_HAL_Driver/Inc/stm32u5xx_ll_bus.h ****   return ((READ_BIT(RCC->AHB1ENR, Periphs) == Periphs) ? 1UL : 0UL);
 479:Drivers/STM32U5xx_HAL_Driver/Inc/stm32u5xx_ll_bus.h **** }
 480:Drivers/STM32U5xx_HAL_Driver/Inc/stm32u5xx_ll_bus.h **** 
 481:Drivers/STM32U5xx_HAL_Driver/Inc/stm32u5xx_ll_bus.h **** /**
 482:Drivers/STM32U5xx_HAL_Driver/Inc/stm32u5xx_ll_bus.h ****   * @brief  Disable AHB1 bus clock.
 483:Drivers/STM32U5xx_HAL_Driver/Inc/stm32u5xx_ll_bus.h ****   * @note   except for FLASH, BKPSRAM, ICACHE, DCACHE1 and SRAM1.
 484:Drivers/STM32U5xx_HAL_Driver/Inc/stm32u5xx_ll_bus.h ****   * @rmtoll CFGR2    AHB1DIS     LL_AHB1_GRP1_DisableBusClock
 485:Drivers/STM32U5xx_HAL_Driver/Inc/stm32u5xx_ll_bus.h ****   * @retval None
 486:Drivers/STM32U5xx_HAL_Driver/Inc/stm32u5xx_ll_bus.h ****   */
 487:Drivers/STM32U5xx_HAL_Driver/Inc/stm32u5xx_ll_bus.h **** __STATIC_INLINE void LL_AHB1_GRP1_DisableBusClock(void)
 488:Drivers/STM32U5xx_HAL_Driver/Inc/stm32u5xx_ll_bus.h **** {
 489:Drivers/STM32U5xx_HAL_Driver/Inc/stm32u5xx_ll_bus.h ****   SET_BIT(RCC->CFGR2, RCC_CFGR2_AHB1DIS);
 490:Drivers/STM32U5xx_HAL_Driver/Inc/stm32u5xx_ll_bus.h **** }
 491:Drivers/STM32U5xx_HAL_Driver/Inc/stm32u5xx_ll_bus.h **** 
 492:Drivers/STM32U5xx_HAL_Driver/Inc/stm32u5xx_ll_bus.h **** /**
 493:Drivers/STM32U5xx_HAL_Driver/Inc/stm32u5xx_ll_bus.h ****   * @brief  Disable AHB1 peripherals clock.
 494:Drivers/STM32U5xx_HAL_Driver/Inc/stm32u5xx_ll_bus.h ****   * @rmtoll AHB1ENR    GPDMA1EN     LL_AHB1_GRP1_DisableClock\n
 495:Drivers/STM32U5xx_HAL_Driver/Inc/stm32u5xx_ll_bus.h ****   *         AHB1ENR    CORDICEN     LL_AHB1_GRP1_DisableClock\n
 496:Drivers/STM32U5xx_HAL_Driver/Inc/stm32u5xx_ll_bus.h ****   *         AHB1ENR    FMACEN       LL_AHB1_GRP1_DisableClock\n
 497:Drivers/STM32U5xx_HAL_Driver/Inc/stm32u5xx_ll_bus.h ****   *         AHB1ENR    MDF1EN       LL_AHB1_GRP1_DisableClock\n
 498:Drivers/STM32U5xx_HAL_Driver/Inc/stm32u5xx_ll_bus.h ****   *         AHB1ENR    FLASHEN      LL_AHB1_GRP1_DisableClock\n
 499:Drivers/STM32U5xx_HAL_Driver/Inc/stm32u5xx_ll_bus.h ****   *         AHB1ENR    CRCEN        LL_AHB1_GRP1_DisableClock\n
 500:Drivers/STM32U5xx_HAL_Driver/Inc/stm32u5xx_ll_bus.h ****   *         AHB1ENR    JPEGEN       LL_AHB1_GRP1_DisableClock\n
 501:Drivers/STM32U5xx_HAL_Driver/Inc/stm32u5xx_ll_bus.h ****   *         AHB1ENR    TSCEN        LL_AHB1_GRP1_DisableClock\n
 502:Drivers/STM32U5xx_HAL_Driver/Inc/stm32u5xx_ll_bus.h ****   *         AHB1ENR    RAMCFGEN     LL_AHB1_GRP1_DisableClock\n
 503:Drivers/STM32U5xx_HAL_Driver/Inc/stm32u5xx_ll_bus.h ****   *         AHB1ENR    DMA2DEN      LL_AHB1_GRP1_DisableClock\n
 504:Drivers/STM32U5xx_HAL_Driver/Inc/stm32u5xx_ll_bus.h ****   *         AHB1ENR    GFXMMUEN     LL_AHB1_GRP1_DisableClock\n
 505:Drivers/STM32U5xx_HAL_Driver/Inc/stm32u5xx_ll_bus.h ****   *         AHB1ENR    GPU2DEN      LL_AHB1_GRP1_DisableClock\n
 506:Drivers/STM32U5xx_HAL_Driver/Inc/stm32u5xx_ll_bus.h ****   *         AHB1ENR    DCACHE2EN    LL_AHB1_GRP1_DisableClock\n
 507:Drivers/STM32U5xx_HAL_Driver/Inc/stm32u5xx_ll_bus.h ****   *         AHB1ENR    GTZC1EN      LL_AHB1_GRP1_DisableClock\n
 508:Drivers/STM32U5xx_HAL_Driver/Inc/stm32u5xx_ll_bus.h ****   *         AHB1ENR    BKPSRAMEN    LL_AHB1_GRP1_DisableClock\n
ARM GAS  /tmp/ccyLpKvw.s 			page 24


 509:Drivers/STM32U5xx_HAL_Driver/Inc/stm32u5xx_ll_bus.h ****   *         AHB1ENR    DCACHEEN     LL_AHB1_GRP1_DisableClock\n
 510:Drivers/STM32U5xx_HAL_Driver/Inc/stm32u5xx_ll_bus.h ****   *         AHB1ENR    SRAM1EN      LL_AHB1_GRP1_DisableClock\n
 511:Drivers/STM32U5xx_HAL_Driver/Inc/stm32u5xx_ll_bus.h ****   * @param  Periphs This parameter can be a combination of the following values:
 512:Drivers/STM32U5xx_HAL_Driver/Inc/stm32u5xx_ll_bus.h ****   *         @arg @ref LL_AHB1_GRP1_PERIPH_ALL
 513:Drivers/STM32U5xx_HAL_Driver/Inc/stm32u5xx_ll_bus.h ****   *         @arg @ref LL_AHB1_GRP1_PERIPH_GPDMA1
 514:Drivers/STM32U5xx_HAL_Driver/Inc/stm32u5xx_ll_bus.h ****   *         @arg @ref LL_AHB1_GRP1_PERIPH_CORDIC
 515:Drivers/STM32U5xx_HAL_Driver/Inc/stm32u5xx_ll_bus.h ****   *         @arg @ref LL_AHB1_GRP1_PERIPH_FMAC
 516:Drivers/STM32U5xx_HAL_Driver/Inc/stm32u5xx_ll_bus.h ****   *         @arg @ref LL_AHB1_GRP1_PERIPH_MDF1
 517:Drivers/STM32U5xx_HAL_Driver/Inc/stm32u5xx_ll_bus.h ****   *         @arg @ref LL_AHB1_GRP1_PERIPH_FLASH
 518:Drivers/STM32U5xx_HAL_Driver/Inc/stm32u5xx_ll_bus.h ****   *         @arg @ref LL_AHB1_GRP1_PERIPH_CRC
 519:Drivers/STM32U5xx_HAL_Driver/Inc/stm32u5xx_ll_bus.h ****   *         @arg @ref LL_AHB1_GRP1_PERIPH_JPEG (*)
 520:Drivers/STM32U5xx_HAL_Driver/Inc/stm32u5xx_ll_bus.h ****   *         @arg @ref LL_AHB1_GRP1_PERIPH_TSC
 521:Drivers/STM32U5xx_HAL_Driver/Inc/stm32u5xx_ll_bus.h ****   *         @arg @ref LL_AHB1_GRP1_PERIPH_RAMCFG
 522:Drivers/STM32U5xx_HAL_Driver/Inc/stm32u5xx_ll_bus.h ****   *         @arg @ref LL_AHB1_GRP1_PERIPH_DMA2D (*)
 523:Drivers/STM32U5xx_HAL_Driver/Inc/stm32u5xx_ll_bus.h ****   *         @arg @ref LL_AHB1_GRP1_PERIPH_GFXMMU (*)
 524:Drivers/STM32U5xx_HAL_Driver/Inc/stm32u5xx_ll_bus.h ****   *         @arg @ref LL_AHB1_GRP1_PERIPH_GPU2D (*)
 525:Drivers/STM32U5xx_HAL_Driver/Inc/stm32u5xx_ll_bus.h ****   *         @arg @ref LL_AHB1_GRP1_PERIPH_DCACHE2 (*)
 526:Drivers/STM32U5xx_HAL_Driver/Inc/stm32u5xx_ll_bus.h ****   *         @arg @ref LL_AHB1_GRP1_PERIPH_GTZC1
 527:Drivers/STM32U5xx_HAL_Driver/Inc/stm32u5xx_ll_bus.h ****   *         @arg @ref LL_AHB1_GRP1_PERIPH_BKPSRAM
 528:Drivers/STM32U5xx_HAL_Driver/Inc/stm32u5xx_ll_bus.h ****   *         @arg @ref LL_AHB1_GRP1_PERIPH_DCACHE1
 529:Drivers/STM32U5xx_HAL_Driver/Inc/stm32u5xx_ll_bus.h ****   *         @arg @ref LL_AHB1_GRP1_PERIPH_SRAM1
 530:Drivers/STM32U5xx_HAL_Driver/Inc/stm32u5xx_ll_bus.h ****   *
 531:Drivers/STM32U5xx_HAL_Driver/Inc/stm32u5xx_ll_bus.h ****   *        (*) value not defined in all devices.
 532:Drivers/STM32U5xx_HAL_Driver/Inc/stm32u5xx_ll_bus.h ****   * @retval None
 533:Drivers/STM32U5xx_HAL_Driver/Inc/stm32u5xx_ll_bus.h ****   */
 534:Drivers/STM32U5xx_HAL_Driver/Inc/stm32u5xx_ll_bus.h **** __STATIC_INLINE void LL_AHB1_GRP1_DisableClock(uint32_t Periphs)
 535:Drivers/STM32U5xx_HAL_Driver/Inc/stm32u5xx_ll_bus.h **** {
 536:Drivers/STM32U5xx_HAL_Driver/Inc/stm32u5xx_ll_bus.h ****   CLEAR_BIT(RCC->AHB1ENR, Periphs);
 537:Drivers/STM32U5xx_HAL_Driver/Inc/stm32u5xx_ll_bus.h **** }
 538:Drivers/STM32U5xx_HAL_Driver/Inc/stm32u5xx_ll_bus.h **** 
 539:Drivers/STM32U5xx_HAL_Driver/Inc/stm32u5xx_ll_bus.h **** /**
 540:Drivers/STM32U5xx_HAL_Driver/Inc/stm32u5xx_ll_bus.h ****   * @brief  Force AHB1 peripherals reset.
 541:Drivers/STM32U5xx_HAL_Driver/Inc/stm32u5xx_ll_bus.h ****   * @rmtoll AHB1RSTR    GPDMA1RSTR     LL_AHB1_GRP1_ForceReset\n
 542:Drivers/STM32U5xx_HAL_Driver/Inc/stm32u5xx_ll_bus.h ****   *         AHB1RSTR    CORDICRSTR     LL_AHB1_GRP1_ForceReset\n
 543:Drivers/STM32U5xx_HAL_Driver/Inc/stm32u5xx_ll_bus.h ****   *         AHB1RSTR    FMACRSTR       LL_AHB1_GRP1_ForceReset\n
 544:Drivers/STM32U5xx_HAL_Driver/Inc/stm32u5xx_ll_bus.h ****   *         AHB1RSTR    MDF1RSTR       LL_AHB1_GRP1_ForceReset\n
 545:Drivers/STM32U5xx_HAL_Driver/Inc/stm32u5xx_ll_bus.h ****   *         AHB1RSTR    CRCRSTR        LL_AHB1_GRP1_ForceReset\n
 546:Drivers/STM32U5xx_HAL_Driver/Inc/stm32u5xx_ll_bus.h ****   *         AHB1RSTR    JPEGRSTR       LL_AHB1_GRP1_ForceReset\n
 547:Drivers/STM32U5xx_HAL_Driver/Inc/stm32u5xx_ll_bus.h ****   *         AHB1RSTR    TSCRSTR        LL_AHB1_GRP1_ForceReset\n
 548:Drivers/STM32U5xx_HAL_Driver/Inc/stm32u5xx_ll_bus.h ****   *         AHB1RSTR    RAMCFGRSTR     LL_AHB1_GRP1_ForceReset\n
 549:Drivers/STM32U5xx_HAL_Driver/Inc/stm32u5xx_ll_bus.h ****   *         AHB1RSTR    DMA2DRSTR      LL_AHB1_GRP1_ForceReset\n
 550:Drivers/STM32U5xx_HAL_Driver/Inc/stm32u5xx_ll_bus.h ****   *         AHB1RSTR    GFXMMURSTR     LL_AHB1_GRP1_ForceReset\n
 551:Drivers/STM32U5xx_HAL_Driver/Inc/stm32u5xx_ll_bus.h ****   *         AHB1RSTR    GPU2DRSTR      LL_AHB1_GRP1_ForceReset\n
 552:Drivers/STM32U5xx_HAL_Driver/Inc/stm32u5xx_ll_bus.h ****   *         AHB1RSTR    DCACHE2RSTR    LL_AHB1_GRP1_ForceReset\n
 553:Drivers/STM32U5xx_HAL_Driver/Inc/stm32u5xx_ll_bus.h ****   * @param  Periphs This parameter can be a combination of the following values:
 554:Drivers/STM32U5xx_HAL_Driver/Inc/stm32u5xx_ll_bus.h ****   *         @arg @ref LL_AHB1_GRP1_PERIPH_ALL
 555:Drivers/STM32U5xx_HAL_Driver/Inc/stm32u5xx_ll_bus.h ****   *         @arg @ref LL_AHB1_GRP1_PERIPH_GPDMA1
 556:Drivers/STM32U5xx_HAL_Driver/Inc/stm32u5xx_ll_bus.h ****   *         @arg @ref LL_AHB1_GRP1_PERIPH_CORDIC
 557:Drivers/STM32U5xx_HAL_Driver/Inc/stm32u5xx_ll_bus.h ****   *         @arg @ref LL_AHB1_GRP1_PERIPH_FMAC
 558:Drivers/STM32U5xx_HAL_Driver/Inc/stm32u5xx_ll_bus.h ****   *         @arg @ref LL_AHB1_GRP1_PERIPH_MDF1
 559:Drivers/STM32U5xx_HAL_Driver/Inc/stm32u5xx_ll_bus.h ****   *         @arg @ref LL_AHB1_GRP1_PERIPH_CRC
 560:Drivers/STM32U5xx_HAL_Driver/Inc/stm32u5xx_ll_bus.h ****   *         @arg @ref LL_AHB1_GRP1_PERIPH_JPEG (*)
 561:Drivers/STM32U5xx_HAL_Driver/Inc/stm32u5xx_ll_bus.h ****   *         @arg @ref LL_AHB1_GRP1_PERIPH_TSC
 562:Drivers/STM32U5xx_HAL_Driver/Inc/stm32u5xx_ll_bus.h ****   *         @arg @ref LL_AHB1_GRP1_PERIPH_RAMCFG
 563:Drivers/STM32U5xx_HAL_Driver/Inc/stm32u5xx_ll_bus.h ****   *         @arg @ref LL_AHB1_GRP1_PERIPH_DMA2D (*)
 564:Drivers/STM32U5xx_HAL_Driver/Inc/stm32u5xx_ll_bus.h ****   *         @arg @ref LL_AHB1_GRP1_PERIPH_GFXMMU (*)
 565:Drivers/STM32U5xx_HAL_Driver/Inc/stm32u5xx_ll_bus.h ****   *         @arg @ref LL_AHB1_GRP1_PERIPH_GPU2D (*)
ARM GAS  /tmp/ccyLpKvw.s 			page 25


 566:Drivers/STM32U5xx_HAL_Driver/Inc/stm32u5xx_ll_bus.h ****   *         @arg @ref LL_AHB1_GRP1_PERIPH_DCACHE2 (*)
 567:Drivers/STM32U5xx_HAL_Driver/Inc/stm32u5xx_ll_bus.h ****   *        (*) value not defined in all devices.
 568:Drivers/STM32U5xx_HAL_Driver/Inc/stm32u5xx_ll_bus.h ****   * @retval None
 569:Drivers/STM32U5xx_HAL_Driver/Inc/stm32u5xx_ll_bus.h ****   */
 570:Drivers/STM32U5xx_HAL_Driver/Inc/stm32u5xx_ll_bus.h **** __STATIC_INLINE void LL_AHB1_GRP1_ForceReset(uint32_t Periphs)
 571:Drivers/STM32U5xx_HAL_Driver/Inc/stm32u5xx_ll_bus.h **** {
 572:Drivers/STM32U5xx_HAL_Driver/Inc/stm32u5xx_ll_bus.h ****   SET_BIT(RCC->AHB1RSTR, Periphs);
 573:Drivers/STM32U5xx_HAL_Driver/Inc/stm32u5xx_ll_bus.h **** }
 574:Drivers/STM32U5xx_HAL_Driver/Inc/stm32u5xx_ll_bus.h **** 
 575:Drivers/STM32U5xx_HAL_Driver/Inc/stm32u5xx_ll_bus.h **** /**
 576:Drivers/STM32U5xx_HAL_Driver/Inc/stm32u5xx_ll_bus.h ****   * @brief  Release AHB1 peripherals reset.
 577:Drivers/STM32U5xx_HAL_Driver/Inc/stm32u5xx_ll_bus.h ****   * @rmtoll AHB1RSTR    GPDMA1RSTR      LL_AHB1_GRP1_ReleaseReset\n
 578:Drivers/STM32U5xx_HAL_Driver/Inc/stm32u5xx_ll_bus.h ****   *         AHB1RSTR    CORDICRSTR      LL_AHB1_GRP1_ReleaseReset\n
 579:Drivers/STM32U5xx_HAL_Driver/Inc/stm32u5xx_ll_bus.h ****   *         AHB1RSTR    FMACRSTR        LL_AHB1_GRP1_ReleaseReset\n
 580:Drivers/STM32U5xx_HAL_Driver/Inc/stm32u5xx_ll_bus.h ****   *         AHB1RSTR    MDF1RSTR        LL_AHB1_GRP1_ReleaseReset\n
 581:Drivers/STM32U5xx_HAL_Driver/Inc/stm32u5xx_ll_bus.h ****   *         AHB1RSTR    CRCRSTR         LL_AHB1_GRP1_ReleaseReset\n
 582:Drivers/STM32U5xx_HAL_Driver/Inc/stm32u5xx_ll_bus.h ****   *         AHB1RSTR    JPEGRSTR        LL_AHB1_GRP1_ReleaseReset\n
 583:Drivers/STM32U5xx_HAL_Driver/Inc/stm32u5xx_ll_bus.h ****   *         AHB1RSTR    TSCRSTR         LL_AHB1_GRP1_ReleaseReset\n
 584:Drivers/STM32U5xx_HAL_Driver/Inc/stm32u5xx_ll_bus.h ****   *         AHB1RSTR    RAMCFGRSTR      LL_AHB1_GRP1_ReleaseReset\n
 585:Drivers/STM32U5xx_HAL_Driver/Inc/stm32u5xx_ll_bus.h ****   *         AHB1RSTR    DMA2DRSTR       LL_AHB1_GRP1_ReleaseReset\n
 586:Drivers/STM32U5xx_HAL_Driver/Inc/stm32u5xx_ll_bus.h ****   *         AHB1RSTR    GFXMMURSTR      LL_AHB1_GRP1_ReleaseReset\n
 587:Drivers/STM32U5xx_HAL_Driver/Inc/stm32u5xx_ll_bus.h ****   *         AHB1RSTR    GPU2DRSTR       LL_AHB1_GRP1_ReleaseReset\n
 588:Drivers/STM32U5xx_HAL_Driver/Inc/stm32u5xx_ll_bus.h ****   *         AHB1RSTR    DCACHE2RSTR     LL_AHB1_GRP1_ReleaseReset\n
 589:Drivers/STM32U5xx_HAL_Driver/Inc/stm32u5xx_ll_bus.h ****   * @param  Periphs This parameter can be a combination of the following values:
 590:Drivers/STM32U5xx_HAL_Driver/Inc/stm32u5xx_ll_bus.h ****   *         @arg @ref LL_AHB1_GRP1_PERIPH_ALL
 591:Drivers/STM32U5xx_HAL_Driver/Inc/stm32u5xx_ll_bus.h ****   *         @arg @ref LL_AHB1_GRP1_PERIPH_GPDMA1
 592:Drivers/STM32U5xx_HAL_Driver/Inc/stm32u5xx_ll_bus.h ****   *         @arg @ref LL_AHB1_GRP1_PERIPH_CORDIC
 593:Drivers/STM32U5xx_HAL_Driver/Inc/stm32u5xx_ll_bus.h ****   *         @arg @ref LL_AHB1_GRP1_PERIPH_FMAC
 594:Drivers/STM32U5xx_HAL_Driver/Inc/stm32u5xx_ll_bus.h ****   *         @arg @ref LL_AHB1_GRP1_PERIPH_MDF1
 595:Drivers/STM32U5xx_HAL_Driver/Inc/stm32u5xx_ll_bus.h ****   *         @arg @ref LL_AHB1_GRP1_PERIPH_CRC
 596:Drivers/STM32U5xx_HAL_Driver/Inc/stm32u5xx_ll_bus.h ****   *         @arg @ref LL_AHB1_GRP1_PERIPH_JPEG (*)
 597:Drivers/STM32U5xx_HAL_Driver/Inc/stm32u5xx_ll_bus.h ****   *         @arg @ref LL_AHB1_GRP1_PERIPH_TSC
 598:Drivers/STM32U5xx_HAL_Driver/Inc/stm32u5xx_ll_bus.h ****   *         @arg @ref LL_AHB1_GRP1_PERIPH_RAMCFG
 599:Drivers/STM32U5xx_HAL_Driver/Inc/stm32u5xx_ll_bus.h ****   *         @arg @ref LL_AHB1_GRP1_PERIPH_DMA2D (*)
 600:Drivers/STM32U5xx_HAL_Driver/Inc/stm32u5xx_ll_bus.h ****   *         @arg @ref LL_AHB1_GRP1_PERIPH_GFXMMU (*)
 601:Drivers/STM32U5xx_HAL_Driver/Inc/stm32u5xx_ll_bus.h ****   *         @arg @ref LL_AHB1_GRP1_PERIPH_GPU2D (*)
 602:Drivers/STM32U5xx_HAL_Driver/Inc/stm32u5xx_ll_bus.h ****   *         @arg @ref LL_AHB1_GRP1_PERIPH_DCACHE2 (*)
 603:Drivers/STM32U5xx_HAL_Driver/Inc/stm32u5xx_ll_bus.h ****   *
 604:Drivers/STM32U5xx_HAL_Driver/Inc/stm32u5xx_ll_bus.h ****   *        (*) value not defined in all devices.
 605:Drivers/STM32U5xx_HAL_Driver/Inc/stm32u5xx_ll_bus.h ****   * @retval None
 606:Drivers/STM32U5xx_HAL_Driver/Inc/stm32u5xx_ll_bus.h ****   */
 607:Drivers/STM32U5xx_HAL_Driver/Inc/stm32u5xx_ll_bus.h **** __STATIC_INLINE void LL_AHB1_GRP1_ReleaseReset(uint32_t Periphs)
 608:Drivers/STM32U5xx_HAL_Driver/Inc/stm32u5xx_ll_bus.h **** {
 609:Drivers/STM32U5xx_HAL_Driver/Inc/stm32u5xx_ll_bus.h ****   CLEAR_BIT(RCC->AHB1RSTR, Periphs);
 610:Drivers/STM32U5xx_HAL_Driver/Inc/stm32u5xx_ll_bus.h **** }
 611:Drivers/STM32U5xx_HAL_Driver/Inc/stm32u5xx_ll_bus.h **** 
 612:Drivers/STM32U5xx_HAL_Driver/Inc/stm32u5xx_ll_bus.h **** /**
 613:Drivers/STM32U5xx_HAL_Driver/Inc/stm32u5xx_ll_bus.h ****   * @brief  Enable AHB1 peripheral clocks in Sleep and Stop modes
 614:Drivers/STM32U5xx_HAL_Driver/Inc/stm32u5xx_ll_bus.h ****   * @rmtoll AHB1SMENR   GPDMA1SMEN     LL_AHB1_GRP1_EnableClockStopSleep\n
 615:Drivers/STM32U5xx_HAL_Driver/Inc/stm32u5xx_ll_bus.h ****   *         AHB1SMENR   CORDICSMEN     LL_AHB1_GRP1_EnableClockStopSleep\n
 616:Drivers/STM32U5xx_HAL_Driver/Inc/stm32u5xx_ll_bus.h ****   *         AHB1SMENR   FMACSMEN       LL_AHB1_GRP1_EnableClockStopSleep\n
 617:Drivers/STM32U5xx_HAL_Driver/Inc/stm32u5xx_ll_bus.h ****   *         AHB1SMENR   MDF1SMEN       LL_AHB1_GRP1_EnableClockStopSleep\n
 618:Drivers/STM32U5xx_HAL_Driver/Inc/stm32u5xx_ll_bus.h ****   *         AHB1SMENR   FLASHSMEN      LL_AHB1_GRP1_EnableClockStopSleep\n
 619:Drivers/STM32U5xx_HAL_Driver/Inc/stm32u5xx_ll_bus.h ****   *         AHB1SMENR   CRCSMEN        LL_AHB1_GRP1_EnableClockStopSleep\n
 620:Drivers/STM32U5xx_HAL_Driver/Inc/stm32u5xx_ll_bus.h ****   *         AHB1SMENR   JPEGSMEN       LL_AHB1_GRP1_EnableClockStopSleep\n
 621:Drivers/STM32U5xx_HAL_Driver/Inc/stm32u5xx_ll_bus.h ****   *         AHB1SMENR   TSCSMEN        LL_AHB1_GRP1_EnableClockStopSleep\n
 622:Drivers/STM32U5xx_HAL_Driver/Inc/stm32u5xx_ll_bus.h ****   *         AHB1SMENR   RAMCFGSMEN     LL_AHB1_GRP1_EnableClockStopSleep\n
ARM GAS  /tmp/ccyLpKvw.s 			page 26


 623:Drivers/STM32U5xx_HAL_Driver/Inc/stm32u5xx_ll_bus.h ****   *         AHB1SMENR   DMA2DSMEN      LL_AHB1_GRP1_EnableClockStopSleep\n
 624:Drivers/STM32U5xx_HAL_Driver/Inc/stm32u5xx_ll_bus.h ****   *         AHB1SMENR   GFXMMUSMEN     LL_AHB1_GRP1_EnableClockStopSleep\n
 625:Drivers/STM32U5xx_HAL_Driver/Inc/stm32u5xx_ll_bus.h ****   *         AHB1SMENR   GPU2DSMEN      LL_AHB1_GRP1_EnableClockStopSleep\n
 626:Drivers/STM32U5xx_HAL_Driver/Inc/stm32u5xx_ll_bus.h ****   *         AHB1SMENR   DCACHE2SMEN    LL_AHB1_GRP1_EnableClockStopSleep\n
 627:Drivers/STM32U5xx_HAL_Driver/Inc/stm32u5xx_ll_bus.h ****   *         AHB1SMENR   GTZC1SMEN      LL_AHB1_GRP1_EnableClockStopSleep\n
 628:Drivers/STM32U5xx_HAL_Driver/Inc/stm32u5xx_ll_bus.h ****   *         AHB1SMENR   BKPSRAMSMEN    LL_AHB1_GRP1_EnableClockStopSleep\n
 629:Drivers/STM32U5xx_HAL_Driver/Inc/stm32u5xx_ll_bus.h ****   *         AHB1SMENR   ICACHESMEN     LL_AHB1_GRP1_EnableClockStopSleep\n
 630:Drivers/STM32U5xx_HAL_Driver/Inc/stm32u5xx_ll_bus.h ****   *         AHB1SMENR   DCACHESMEN     LL_AHB1_GRP1_EnableClockStopSleep\n
 631:Drivers/STM32U5xx_HAL_Driver/Inc/stm32u5xx_ll_bus.h ****   *         AHB1SMENR   SRAM1SMEN      LL_AHB1_GRP1_EnableClockStopSleep\n
 632:Drivers/STM32U5xx_HAL_Driver/Inc/stm32u5xx_ll_bus.h ****   * @param  Periphs This parameter can be a combination of the following values:
 633:Drivers/STM32U5xx_HAL_Driver/Inc/stm32u5xx_ll_bus.h ****   *         @arg @ref LL_AHB1_GRP1_PERIPH_ALL
 634:Drivers/STM32U5xx_HAL_Driver/Inc/stm32u5xx_ll_bus.h ****   *         @arg @ref LL_AHB1_GRP1_PERIPH_GPDMA1
 635:Drivers/STM32U5xx_HAL_Driver/Inc/stm32u5xx_ll_bus.h ****   *         @arg @ref LL_AHB1_GRP1_PERIPH_CORDIC
 636:Drivers/STM32U5xx_HAL_Driver/Inc/stm32u5xx_ll_bus.h ****   *         @arg @ref LL_AHB1_GRP1_PERIPH_FMAC
 637:Drivers/STM32U5xx_HAL_Driver/Inc/stm32u5xx_ll_bus.h ****   *         @arg @ref LL_AHB1_GRP1_PERIPH_MDF1
 638:Drivers/STM32U5xx_HAL_Driver/Inc/stm32u5xx_ll_bus.h ****   *         @arg @ref LL_AHB1_GRP1_PERIPH_FLASH
 639:Drivers/STM32U5xx_HAL_Driver/Inc/stm32u5xx_ll_bus.h ****   *         @arg @ref LL_AHB1_GRP1_PERIPH_CRC
 640:Drivers/STM32U5xx_HAL_Driver/Inc/stm32u5xx_ll_bus.h ****   *         @arg @ref LL_AHB1_GRP1_PERIPH_JPEG (*)
 641:Drivers/STM32U5xx_HAL_Driver/Inc/stm32u5xx_ll_bus.h ****   *         @arg @ref LL_AHB1_GRP1_PERIPH_TSC
 642:Drivers/STM32U5xx_HAL_Driver/Inc/stm32u5xx_ll_bus.h ****   *         @arg @ref LL_AHB1_GRP1_PERIPH_RAMCFG
 643:Drivers/STM32U5xx_HAL_Driver/Inc/stm32u5xx_ll_bus.h ****   *         @arg @ref LL_AHB1_GRP1_PERIPH_DMA2D (*)
 644:Drivers/STM32U5xx_HAL_Driver/Inc/stm32u5xx_ll_bus.h ****   *         @arg @ref LL_AHB1_GRP1_PERIPH_GFXMMU (*)
 645:Drivers/STM32U5xx_HAL_Driver/Inc/stm32u5xx_ll_bus.h ****   *         @arg @ref LL_AHB1_GRP1_PERIPH_GPU2D (*)
 646:Drivers/STM32U5xx_HAL_Driver/Inc/stm32u5xx_ll_bus.h ****   *         @arg @ref LL_AHB1_GRP1_PERIPH_DCACHE2 (*)
 647:Drivers/STM32U5xx_HAL_Driver/Inc/stm32u5xx_ll_bus.h ****   *         @arg @ref LL_AHB1_GRP1_PERIPH_GTZC1
 648:Drivers/STM32U5xx_HAL_Driver/Inc/stm32u5xx_ll_bus.h ****   *         @arg @ref LL_AHB1_GRP1_PERIPH_BKPSRAM
 649:Drivers/STM32U5xx_HAL_Driver/Inc/stm32u5xx_ll_bus.h ****   *         @arg @ref LL_AHB1_GRP1_PERIPH_ICACHE1
 650:Drivers/STM32U5xx_HAL_Driver/Inc/stm32u5xx_ll_bus.h ****   *         @arg @ref LL_AHB1_GRP1_PERIPH_DCACHE1
 651:Drivers/STM32U5xx_HAL_Driver/Inc/stm32u5xx_ll_bus.h ****   *         @arg @ref LL_AHB1_GRP1_PERIPH_SRAM1
 652:Drivers/STM32U5xx_HAL_Driver/Inc/stm32u5xx_ll_bus.h ****   *
 653:Drivers/STM32U5xx_HAL_Driver/Inc/stm32u5xx_ll_bus.h ****   *        (*) value not defined in all devices.
 654:Drivers/STM32U5xx_HAL_Driver/Inc/stm32u5xx_ll_bus.h ****   * @retval None
 655:Drivers/STM32U5xx_HAL_Driver/Inc/stm32u5xx_ll_bus.h ****   */
 656:Drivers/STM32U5xx_HAL_Driver/Inc/stm32u5xx_ll_bus.h **** __STATIC_INLINE void LL_AHB1_GRP1_EnableClockStopSleep(uint32_t Periphs)
 657:Drivers/STM32U5xx_HAL_Driver/Inc/stm32u5xx_ll_bus.h **** {
 658:Drivers/STM32U5xx_HAL_Driver/Inc/stm32u5xx_ll_bus.h ****   __IO uint32_t tmpreg;
 659:Drivers/STM32U5xx_HAL_Driver/Inc/stm32u5xx_ll_bus.h ****   SET_BIT(RCC->AHB1SMENR, Periphs);
 660:Drivers/STM32U5xx_HAL_Driver/Inc/stm32u5xx_ll_bus.h ****   /* Delay after an RCC peripheral clock enabling */
 661:Drivers/STM32U5xx_HAL_Driver/Inc/stm32u5xx_ll_bus.h ****   tmpreg = READ_BIT(RCC->AHB1SMENR, Periphs);
 662:Drivers/STM32U5xx_HAL_Driver/Inc/stm32u5xx_ll_bus.h ****   (void)tmpreg;
 663:Drivers/STM32U5xx_HAL_Driver/Inc/stm32u5xx_ll_bus.h **** }
 664:Drivers/STM32U5xx_HAL_Driver/Inc/stm32u5xx_ll_bus.h **** 
 665:Drivers/STM32U5xx_HAL_Driver/Inc/stm32u5xx_ll_bus.h **** /**
 666:Drivers/STM32U5xx_HAL_Driver/Inc/stm32u5xx_ll_bus.h ****   * @brief  Check if AHB1 peripheral clocks in Sleep and Stop modes is enabled or not
 667:Drivers/STM32U5xx_HAL_Driver/Inc/stm32u5xx_ll_bus.h ****   * @rmtoll AHB1SMENR   GPDMA1SMEN     LL_AHB1_GRP1_IsEnabledClockStopSleep\n
 668:Drivers/STM32U5xx_HAL_Driver/Inc/stm32u5xx_ll_bus.h ****   *         AHB1SMENR   CORDICSMEN     LL_AHB1_GRP1_IsEnabledClockStopSleep\n
 669:Drivers/STM32U5xx_HAL_Driver/Inc/stm32u5xx_ll_bus.h ****   *         AHB1SMENR   FMACSMEN       LL_AHB1_GRP1_IsEnabledClockStopSleep\n
 670:Drivers/STM32U5xx_HAL_Driver/Inc/stm32u5xx_ll_bus.h ****   *         AHB1SMENR   MDF1SMEN       LL_AHB1_GRP1_IsEnabledClockStopSleep\n
 671:Drivers/STM32U5xx_HAL_Driver/Inc/stm32u5xx_ll_bus.h ****   *         AHB1SMENR   FLASHSMEN      LL_AHB1_GRP1_IsEnabledClockStopSleep\n
 672:Drivers/STM32U5xx_HAL_Driver/Inc/stm32u5xx_ll_bus.h ****   *         AHB1SMENR   CRCSMEN        LL_AHB1_GRP1_IsEnabledClockStopSleep\n
 673:Drivers/STM32U5xx_HAL_Driver/Inc/stm32u5xx_ll_bus.h ****   *         AHB1SMENR   JPEGSMEN       LL_AHB1_GRP1_IsEnabledClockStopSleep\n
 674:Drivers/STM32U5xx_HAL_Driver/Inc/stm32u5xx_ll_bus.h ****   *         AHB1SMENR   TSCSMEN        LL_AHB1_GRP1_IsEnabledClockStopSleep\n
 675:Drivers/STM32U5xx_HAL_Driver/Inc/stm32u5xx_ll_bus.h ****   *         AHB1SMENR   RAMCFGSMEN     LL_AHB1_GRP1_IsEnabledClockStopSleep\n
 676:Drivers/STM32U5xx_HAL_Driver/Inc/stm32u5xx_ll_bus.h ****   *         AHB1SMENR   DMA2DSMEN      LL_AHB1_GRP1_IsEnabledClockStopSleep\n
 677:Drivers/STM32U5xx_HAL_Driver/Inc/stm32u5xx_ll_bus.h ****   *         AHB1SMENR   GFXMMUSMEN     LL_AHB1_GRP1_IsEnabledClockStopSleep\n
 678:Drivers/STM32U5xx_HAL_Driver/Inc/stm32u5xx_ll_bus.h ****   *         AHB1SMENR   GPU2DSMEN      LL_AHB1_GRP1_IsEnabledClockStopSleep\n
 679:Drivers/STM32U5xx_HAL_Driver/Inc/stm32u5xx_ll_bus.h ****   *         AHB1SMENR   DCACHE2SMEN    LL_AHB1_GRP1_IsEnabledClockStopSleep\n
ARM GAS  /tmp/ccyLpKvw.s 			page 27


 680:Drivers/STM32U5xx_HAL_Driver/Inc/stm32u5xx_ll_bus.h ****   *         AHB1SMENR   GTZC1SMEN      LL_AHB1_GRP1_IsEnabledClockStopSleep\n
 681:Drivers/STM32U5xx_HAL_Driver/Inc/stm32u5xx_ll_bus.h ****   *         AHB1SMENR   BKPSRAMSMEN    LL_AHB1_GRP1_IsEnabledClockStopSleep\n
 682:Drivers/STM32U5xx_HAL_Driver/Inc/stm32u5xx_ll_bus.h ****   *         AHB1SMENR   ICACHESMEN     LL_AHB1_GRP1_IsEnabledClockStopSleep\n
 683:Drivers/STM32U5xx_HAL_Driver/Inc/stm32u5xx_ll_bus.h ****   *         AHB1SMENR   DCACHESMEN     LL_AHB1_GRP1_IsEnabledClockStopSleep\n
 684:Drivers/STM32U5xx_HAL_Driver/Inc/stm32u5xx_ll_bus.h ****   *         AHB1SMENR   SRAM1SMEN      LL_AHB1_GRP1_IsEnabledClockStopSleep\n
 685:Drivers/STM32U5xx_HAL_Driver/Inc/stm32u5xx_ll_bus.h ****   * @param  Periphs This parameter can be a combination of the following values:
 686:Drivers/STM32U5xx_HAL_Driver/Inc/stm32u5xx_ll_bus.h ****   *         @arg @ref LL_AHB1_GRP1_PERIPH_ALL
 687:Drivers/STM32U5xx_HAL_Driver/Inc/stm32u5xx_ll_bus.h ****   *         @arg @ref LL_AHB1_GRP1_PERIPH_GPDMA1
 688:Drivers/STM32U5xx_HAL_Driver/Inc/stm32u5xx_ll_bus.h ****   *         @arg @ref LL_AHB1_GRP1_PERIPH_CORDIC
 689:Drivers/STM32U5xx_HAL_Driver/Inc/stm32u5xx_ll_bus.h ****   *         @arg @ref LL_AHB1_GRP1_PERIPH_FMAC
 690:Drivers/STM32U5xx_HAL_Driver/Inc/stm32u5xx_ll_bus.h ****   *         @arg @ref LL_AHB1_GRP1_PERIPH_MDF1
 691:Drivers/STM32U5xx_HAL_Driver/Inc/stm32u5xx_ll_bus.h ****   *         @arg @ref LL_AHB1_GRP1_PERIPH_FLASH
 692:Drivers/STM32U5xx_HAL_Driver/Inc/stm32u5xx_ll_bus.h ****   *         @arg @ref LL_AHB1_GRP1_PERIPH_CRC
 693:Drivers/STM32U5xx_HAL_Driver/Inc/stm32u5xx_ll_bus.h ****   *         @arg @ref LL_AHB1_GRP1_PERIPH_JPEG (*)
 694:Drivers/STM32U5xx_HAL_Driver/Inc/stm32u5xx_ll_bus.h ****   *         @arg @ref LL_AHB1_GRP1_PERIPH_TSC
 695:Drivers/STM32U5xx_HAL_Driver/Inc/stm32u5xx_ll_bus.h ****   *         @arg @ref LL_AHB1_GRP1_PERIPH_RAMCFG
 696:Drivers/STM32U5xx_HAL_Driver/Inc/stm32u5xx_ll_bus.h ****   *         @arg @ref LL_AHB1_GRP1_PERIPH_DMA2D (*)
 697:Drivers/STM32U5xx_HAL_Driver/Inc/stm32u5xx_ll_bus.h ****   *         @arg @ref LL_AHB1_GRP1_PERIPH_GFXMMU (*)
 698:Drivers/STM32U5xx_HAL_Driver/Inc/stm32u5xx_ll_bus.h ****   *         @arg @ref LL_AHB1_GRP1_PERIPH_GPU2D (*)
 699:Drivers/STM32U5xx_HAL_Driver/Inc/stm32u5xx_ll_bus.h ****   *         @arg @ref LL_AHB1_GRP1_PERIPH_DCACHE2 (*)
 700:Drivers/STM32U5xx_HAL_Driver/Inc/stm32u5xx_ll_bus.h ****   *         @arg @ref LL_AHB1_GRP1_PERIPH_GTZC1
 701:Drivers/STM32U5xx_HAL_Driver/Inc/stm32u5xx_ll_bus.h ****   *         @arg @ref LL_AHB1_GRP1_PERIPH_BKPSRAM
 702:Drivers/STM32U5xx_HAL_Driver/Inc/stm32u5xx_ll_bus.h ****   *         @arg @ref LL_AHB1_GRP1_PERIPH_ICACHE1
 703:Drivers/STM32U5xx_HAL_Driver/Inc/stm32u5xx_ll_bus.h ****   *         @arg @ref LL_AHB1_GRP1_PERIPH_DCACHE1
 704:Drivers/STM32U5xx_HAL_Driver/Inc/stm32u5xx_ll_bus.h ****   *         @arg @ref LL_AHB1_GRP1_PERIPH_SRAM1
 705:Drivers/STM32U5xx_HAL_Driver/Inc/stm32u5xx_ll_bus.h ****   *
 706:Drivers/STM32U5xx_HAL_Driver/Inc/stm32u5xx_ll_bus.h ****   *        (*) value not defined in all devices.
 707:Drivers/STM32U5xx_HAL_Driver/Inc/stm32u5xx_ll_bus.h ****   * @retval State of Periphs (1 or 0).
 708:Drivers/STM32U5xx_HAL_Driver/Inc/stm32u5xx_ll_bus.h ****   */
 709:Drivers/STM32U5xx_HAL_Driver/Inc/stm32u5xx_ll_bus.h **** __STATIC_INLINE uint32_t LL_AHB1_GRP1_IsEnabledClockStopSleep(uint32_t Periphs)
 710:Drivers/STM32U5xx_HAL_Driver/Inc/stm32u5xx_ll_bus.h **** {
 711:Drivers/STM32U5xx_HAL_Driver/Inc/stm32u5xx_ll_bus.h ****   return ((READ_BIT(RCC->AHB1SMENR, Periphs) == Periphs) ? 1UL : 0UL);
 712:Drivers/STM32U5xx_HAL_Driver/Inc/stm32u5xx_ll_bus.h **** }
 713:Drivers/STM32U5xx_HAL_Driver/Inc/stm32u5xx_ll_bus.h **** 
 714:Drivers/STM32U5xx_HAL_Driver/Inc/stm32u5xx_ll_bus.h **** /**
 715:Drivers/STM32U5xx_HAL_Driver/Inc/stm32u5xx_ll_bus.h ****   * @brief  Disable AHB1 peripheral clocks in Sleep and Stop modes
 716:Drivers/STM32U5xx_HAL_Driver/Inc/stm32u5xx_ll_bus.h ****   * @rmtoll AHB1SMENR   GPDMA1SMEN     LL_AHB1_GRP1_DisableClockStopSleep\n
 717:Drivers/STM32U5xx_HAL_Driver/Inc/stm32u5xx_ll_bus.h ****   *         AHB1SMENR   CORDICSMEN     LL_AHB1_GRP1_DisableClockStopSleep\n
 718:Drivers/STM32U5xx_HAL_Driver/Inc/stm32u5xx_ll_bus.h ****   *         AHB1SMENR   FMACSMEN       LL_AHB1_GRP1_DisableClockStopSleep\n
 719:Drivers/STM32U5xx_HAL_Driver/Inc/stm32u5xx_ll_bus.h ****   *         AHB1SMENR   MDF1SMEN       LL_AHB1_GRP1_DisableClockStopSleep\n
 720:Drivers/STM32U5xx_HAL_Driver/Inc/stm32u5xx_ll_bus.h ****   *         AHB1SMENR   FLASHSMEN      LL_AHB1_GRP1_DisableClockStopSleep\n
 721:Drivers/STM32U5xx_HAL_Driver/Inc/stm32u5xx_ll_bus.h ****   *         AHB1SMENR   CRCSMEN        LL_AHB1_GRP1_DisableClockStopSleep\n
 722:Drivers/STM32U5xx_HAL_Driver/Inc/stm32u5xx_ll_bus.h ****   *         AHB1SMENR   JPEGSMEN       LL_AHB1_GRP1_DisableClockStopSleep\n
 723:Drivers/STM32U5xx_HAL_Driver/Inc/stm32u5xx_ll_bus.h ****   *         AHB1SMENR   TSCSMEN        LL_AHB1_GRP1_DisableClockStopSleep\n
 724:Drivers/STM32U5xx_HAL_Driver/Inc/stm32u5xx_ll_bus.h ****   *         AHB1SMENR   RAMCFGSMEN     LL_AHB1_GRP1_DisableClockStopSleep\n
 725:Drivers/STM32U5xx_HAL_Driver/Inc/stm32u5xx_ll_bus.h ****   *         AHB1SMENR   DMA2DSMEN      LL_AHB1_GRP1_DisableClockStopSleep\n
 726:Drivers/STM32U5xx_HAL_Driver/Inc/stm32u5xx_ll_bus.h ****   *         AHB1SMENR   GFXMMUSMEN     LL_AHB1_GRP1_DisableClockStopSleep\n
 727:Drivers/STM32U5xx_HAL_Driver/Inc/stm32u5xx_ll_bus.h ****   *         AHB1SMENR   GPU2DSMEN      LL_AHB1_GRP1_DisableClockStopSleep\n
 728:Drivers/STM32U5xx_HAL_Driver/Inc/stm32u5xx_ll_bus.h ****   *         AHB1SMENR   DCACHE2SMEN    LL_AHB1_GRP1_DisableClockStopSleep\n
 729:Drivers/STM32U5xx_HAL_Driver/Inc/stm32u5xx_ll_bus.h ****   *         AHB1SMENR   GTZC1SMEN      LL_AHB1_GRP1_DisableClockStopSleep\n
 730:Drivers/STM32U5xx_HAL_Driver/Inc/stm32u5xx_ll_bus.h ****   *         AHB1SMENR   BKPSRAMSMEN    LL_AHB1_GRP1_DisableClockStopSleep\n
 731:Drivers/STM32U5xx_HAL_Driver/Inc/stm32u5xx_ll_bus.h ****   *         AHB1SMENR   ICACHESMEN     LL_AHB1_GRP1_DisableClockStopSleep\n
 732:Drivers/STM32U5xx_HAL_Driver/Inc/stm32u5xx_ll_bus.h ****   *         AHB1SMENR   DCACHESMEN     LL_AHB1_GRP1_DisableClockStopSleep\n
 733:Drivers/STM32U5xx_HAL_Driver/Inc/stm32u5xx_ll_bus.h ****   *         AHB1SMENR   SRAM1SMEN      LL_AHB1_GRP1_DisableClockStopSleep\n
 734:Drivers/STM32U5xx_HAL_Driver/Inc/stm32u5xx_ll_bus.h ****   * @param  Periphs This parameter can be a combination of the following values:
 735:Drivers/STM32U5xx_HAL_Driver/Inc/stm32u5xx_ll_bus.h ****   *         @arg @ref LL_AHB1_GRP1_PERIPH_ALL
 736:Drivers/STM32U5xx_HAL_Driver/Inc/stm32u5xx_ll_bus.h ****   *         @arg @ref LL_AHB1_GRP1_PERIPH_GPDMA1
ARM GAS  /tmp/ccyLpKvw.s 			page 28


 737:Drivers/STM32U5xx_HAL_Driver/Inc/stm32u5xx_ll_bus.h ****   *         @arg @ref LL_AHB1_GRP1_PERIPH_CORDIC
 738:Drivers/STM32U5xx_HAL_Driver/Inc/stm32u5xx_ll_bus.h ****   *         @arg @ref LL_AHB1_GRP1_PERIPH_FMAC
 739:Drivers/STM32U5xx_HAL_Driver/Inc/stm32u5xx_ll_bus.h ****   *         @arg @ref LL_AHB1_GRP1_PERIPH_MDF1
 740:Drivers/STM32U5xx_HAL_Driver/Inc/stm32u5xx_ll_bus.h ****   *         @arg @ref LL_AHB1_GRP1_PERIPH_FLASH
 741:Drivers/STM32U5xx_HAL_Driver/Inc/stm32u5xx_ll_bus.h ****   *         @arg @ref LL_AHB1_GRP1_PERIPH_CRC
 742:Drivers/STM32U5xx_HAL_Driver/Inc/stm32u5xx_ll_bus.h ****   *         @arg @ref LL_AHB1_GRP1_PERIPH_JPEG (*)
 743:Drivers/STM32U5xx_HAL_Driver/Inc/stm32u5xx_ll_bus.h ****   *         @arg @ref LL_AHB1_GRP1_PERIPH_TSC
 744:Drivers/STM32U5xx_HAL_Driver/Inc/stm32u5xx_ll_bus.h ****   *         @arg @ref LL_AHB1_GRP1_PERIPH_RAMCFG
 745:Drivers/STM32U5xx_HAL_Driver/Inc/stm32u5xx_ll_bus.h ****   *         @arg @ref LL_AHB1_GRP1_PERIPH_DMA2D (*)
 746:Drivers/STM32U5xx_HAL_Driver/Inc/stm32u5xx_ll_bus.h ****   *         @arg @ref LL_AHB1_GRP1_PERIPH_GFXMMU (*)
 747:Drivers/STM32U5xx_HAL_Driver/Inc/stm32u5xx_ll_bus.h ****   *         @arg @ref LL_AHB1_GRP1_PERIPH_GPU2D (*)
 748:Drivers/STM32U5xx_HAL_Driver/Inc/stm32u5xx_ll_bus.h ****   *         @arg @ref LL_AHB1_GRP1_PERIPH_DCACHE2 (*)
 749:Drivers/STM32U5xx_HAL_Driver/Inc/stm32u5xx_ll_bus.h ****   *         @arg @ref LL_AHB1_GRP1_PERIPH_GTZC1
 750:Drivers/STM32U5xx_HAL_Driver/Inc/stm32u5xx_ll_bus.h ****   *         @arg @ref LL_AHB1_GRP1_PERIPH_BKPSRAM
 751:Drivers/STM32U5xx_HAL_Driver/Inc/stm32u5xx_ll_bus.h ****   *         @arg @ref LL_AHB1_GRP1_PERIPH_ICACHE1
 752:Drivers/STM32U5xx_HAL_Driver/Inc/stm32u5xx_ll_bus.h ****   *         @arg @ref LL_AHB1_GRP1_PERIPH_DCACHE1
 753:Drivers/STM32U5xx_HAL_Driver/Inc/stm32u5xx_ll_bus.h ****   *         @arg @ref LL_AHB1_GRP1_PERIPH_SRAM1
 754:Drivers/STM32U5xx_HAL_Driver/Inc/stm32u5xx_ll_bus.h ****   *
 755:Drivers/STM32U5xx_HAL_Driver/Inc/stm32u5xx_ll_bus.h ****   *        (*) value not defined in all devices.
 756:Drivers/STM32U5xx_HAL_Driver/Inc/stm32u5xx_ll_bus.h ****   * @retval None
 757:Drivers/STM32U5xx_HAL_Driver/Inc/stm32u5xx_ll_bus.h ****   */
 758:Drivers/STM32U5xx_HAL_Driver/Inc/stm32u5xx_ll_bus.h **** __STATIC_INLINE void LL_AHB1_GRP1_DisableClockStopSleep(uint32_t Periphs)
 759:Drivers/STM32U5xx_HAL_Driver/Inc/stm32u5xx_ll_bus.h **** {
 760:Drivers/STM32U5xx_HAL_Driver/Inc/stm32u5xx_ll_bus.h ****   CLEAR_BIT(RCC->AHB1SMENR, Periphs);
 761:Drivers/STM32U5xx_HAL_Driver/Inc/stm32u5xx_ll_bus.h **** }
 762:Drivers/STM32U5xx_HAL_Driver/Inc/stm32u5xx_ll_bus.h **** 
 763:Drivers/STM32U5xx_HAL_Driver/Inc/stm32u5xx_ll_bus.h **** /**
 764:Drivers/STM32U5xx_HAL_Driver/Inc/stm32u5xx_ll_bus.h ****   * @}
 765:Drivers/STM32U5xx_HAL_Driver/Inc/stm32u5xx_ll_bus.h ****   */
 766:Drivers/STM32U5xx_HAL_Driver/Inc/stm32u5xx_ll_bus.h **** 
 767:Drivers/STM32U5xx_HAL_Driver/Inc/stm32u5xx_ll_bus.h **** /** @defgroup BUS_LL_EF_AHB2_GRP1_PERIPH AHB2 GRP1 PERIPH
 768:Drivers/STM32U5xx_HAL_Driver/Inc/stm32u5xx_ll_bus.h ****   * @{
 769:Drivers/STM32U5xx_HAL_Driver/Inc/stm32u5xx_ll_bus.h ****   */
 770:Drivers/STM32U5xx_HAL_Driver/Inc/stm32u5xx_ll_bus.h **** 
 771:Drivers/STM32U5xx_HAL_Driver/Inc/stm32u5xx_ll_bus.h **** /**
 772:Drivers/STM32U5xx_HAL_Driver/Inc/stm32u5xx_ll_bus.h ****   * @brief  Enable AHB2_1 bus clock.
 773:Drivers/STM32U5xx_HAL_Driver/Inc/stm32u5xx_ll_bus.h ****   * @rmtoll CFGR2    AHB2DIS1     LL_AHB2_GRP1_EnableBusClock
 774:Drivers/STM32U5xx_HAL_Driver/Inc/stm32u5xx_ll_bus.h ****   * @retval None
 775:Drivers/STM32U5xx_HAL_Driver/Inc/stm32u5xx_ll_bus.h ****   */
 776:Drivers/STM32U5xx_HAL_Driver/Inc/stm32u5xx_ll_bus.h **** __STATIC_INLINE void LL_AHB2_GRP1_EnableBusClock(void)
 777:Drivers/STM32U5xx_HAL_Driver/Inc/stm32u5xx_ll_bus.h **** {
 778:Drivers/STM32U5xx_HAL_Driver/Inc/stm32u5xx_ll_bus.h ****   __IO uint32_t tmpreg;
 779:Drivers/STM32U5xx_HAL_Driver/Inc/stm32u5xx_ll_bus.h ****   CLEAR_BIT(RCC->CFGR2, RCC_CFGR2_AHB2DIS1);
 780:Drivers/STM32U5xx_HAL_Driver/Inc/stm32u5xx_ll_bus.h ****   tmpreg = READ_BIT(RCC->CFGR2, RCC_CFGR2_AHB2DIS1);
 781:Drivers/STM32U5xx_HAL_Driver/Inc/stm32u5xx_ll_bus.h ****   (void)(tmpreg);
 782:Drivers/STM32U5xx_HAL_Driver/Inc/stm32u5xx_ll_bus.h **** }
 783:Drivers/STM32U5xx_HAL_Driver/Inc/stm32u5xx_ll_bus.h **** 
 784:Drivers/STM32U5xx_HAL_Driver/Inc/stm32u5xx_ll_bus.h **** /**
 785:Drivers/STM32U5xx_HAL_Driver/Inc/stm32u5xx_ll_bus.h ****   * @brief  Enable AHB2 peripherals clock.
 786:Drivers/STM32U5xx_HAL_Driver/Inc/stm32u5xx_ll_bus.h ****   * @rmtoll AHB2ENR1      GPIOAEN       LL_AHB2_GRP1_EnableClock\n
 787:Drivers/STM32U5xx_HAL_Driver/Inc/stm32u5xx_ll_bus.h ****   *         AHB2ENR1      GPIOBEN       LL_AHB2_GRP1_EnableClock\n
 788:Drivers/STM32U5xx_HAL_Driver/Inc/stm32u5xx_ll_bus.h ****   *         AHB2ENR1      GPIOCEN       LL_AHB2_GRP1_EnableClock\n
 789:Drivers/STM32U5xx_HAL_Driver/Inc/stm32u5xx_ll_bus.h ****   *         AHB2ENR1      GPIODEN       LL_AHB2_GRP1_EnableClock\n
 790:Drivers/STM32U5xx_HAL_Driver/Inc/stm32u5xx_ll_bus.h ****   *         AHB2ENR1      GPIOEEN       LL_AHB2_GRP1_EnableClock\n
 791:Drivers/STM32U5xx_HAL_Driver/Inc/stm32u5xx_ll_bus.h ****   *         AHB2ENR1      GPIOFEN       LL_AHB2_GRP1_EnableClock\n
 792:Drivers/STM32U5xx_HAL_Driver/Inc/stm32u5xx_ll_bus.h ****   *         AHB2ENR1      GPIOGEN       LL_AHB2_GRP1_EnableClock\n
 793:Drivers/STM32U5xx_HAL_Driver/Inc/stm32u5xx_ll_bus.h ****   *         AHB2ENR1      GPIOHEN       LL_AHB2_GRP1_EnableClock\n
ARM GAS  /tmp/ccyLpKvw.s 			page 29


 794:Drivers/STM32U5xx_HAL_Driver/Inc/stm32u5xx_ll_bus.h ****   *         AHB2ENR1      GPIOIEN       LL_AHB2_GRP1_EnableClock\n
 795:Drivers/STM32U5xx_HAL_Driver/Inc/stm32u5xx_ll_bus.h ****   *         AHB2ENR1      GPIOJEN       LL_AHB2_GRP1_EnableClock\n
 796:Drivers/STM32U5xx_HAL_Driver/Inc/stm32u5xx_ll_bus.h ****   *         AHB2ENR1      ADC12EN       LL_AHB2_GRP1_EnableClock\n
 797:Drivers/STM32U5xx_HAL_Driver/Inc/stm32u5xx_ll_bus.h ****   *         AHB2ENR1      DCMI_PSSIEN   LL_AHB2_GRP1_EnableClock\n
 798:Drivers/STM32U5xx_HAL_Driver/Inc/stm32u5xx_ll_bus.h ****   *         AHB2ENR1      OTGEN         LL_AHB2_GRP1_EnableClock\n
 799:Drivers/STM32U5xx_HAL_Driver/Inc/stm32u5xx_ll_bus.h ****   *         AHB2ENR1      USBPHYCEN     LL_AHB2_GRP1_EnableClock\n
 800:Drivers/STM32U5xx_HAL_Driver/Inc/stm32u5xx_ll_bus.h ****   *         AHB2ENR1      AESEN         LL_AHB2_GRP1_EnableClock\n
 801:Drivers/STM32U5xx_HAL_Driver/Inc/stm32u5xx_ll_bus.h ****   *         AHB2ENR1      HASHEN        LL_AHB2_GRP1_EnableClock\n
 802:Drivers/STM32U5xx_HAL_Driver/Inc/stm32u5xx_ll_bus.h ****   *         AHB2ENR1      RNGEN         LL_AHB2_GRP1_EnableClock\n
 803:Drivers/STM32U5xx_HAL_Driver/Inc/stm32u5xx_ll_bus.h ****   *         AHB2ENR1      PKAEN         LL_AHB2_GRP1_EnableClock\n
 804:Drivers/STM32U5xx_HAL_Driver/Inc/stm32u5xx_ll_bus.h ****   *         AHB2ENR1      SAESEN        LL_AHB2_GRP1_EnableClock\n
 805:Drivers/STM32U5xx_HAL_Driver/Inc/stm32u5xx_ll_bus.h ****   *         AHB2ENR1      OCTOSPIMEN    LL_AHB2_GRP1_EnableClock\n
 806:Drivers/STM32U5xx_HAL_Driver/Inc/stm32u5xx_ll_bus.h ****   *         AHB2ENR1      OTFDEC1EN     LL_AHB2_GRP1_EnableClock\n
 807:Drivers/STM32U5xx_HAL_Driver/Inc/stm32u5xx_ll_bus.h ****   *         AHB2ENR1      OTFDEC2EN     LL_AHB2_GRP1_EnableClock\n
 808:Drivers/STM32U5xx_HAL_Driver/Inc/stm32u5xx_ll_bus.h ****   *         AHB2ENR1      SDMMC1EN      LL_AHB2_GRP1_EnableClock\n
 809:Drivers/STM32U5xx_HAL_Driver/Inc/stm32u5xx_ll_bus.h ****   *         AHB2ENR1      SDMMC2EN      LL_AHB2_GRP1_EnableClock\n
 810:Drivers/STM32U5xx_HAL_Driver/Inc/stm32u5xx_ll_bus.h ****   *         AHB2ENR1      SRAM2EN       LL_AHB2_GRP1_EnableClock\n
 811:Drivers/STM32U5xx_HAL_Driver/Inc/stm32u5xx_ll_bus.h ****   *         AHB2ENR1      SRAM3EN       LL_AHB2_GRP1_EnableClock\n
 812:Drivers/STM32U5xx_HAL_Driver/Inc/stm32u5xx_ll_bus.h ****   * @param  Periphs This parameter can be a combination of the following values:
 813:Drivers/STM32U5xx_HAL_Driver/Inc/stm32u5xx_ll_bus.h ****   *         @arg @ref LL_AHB2_GRP1_PERIPH_ALL
 814:Drivers/STM32U5xx_HAL_Driver/Inc/stm32u5xx_ll_bus.h ****   *         @arg @ref LL_AHB2_GRP1_PERIPH_GPIOA
 815:Drivers/STM32U5xx_HAL_Driver/Inc/stm32u5xx_ll_bus.h ****   *         @arg @ref LL_AHB2_GRP1_PERIPH_GPIOB
 816:Drivers/STM32U5xx_HAL_Driver/Inc/stm32u5xx_ll_bus.h ****   *         @arg @ref LL_AHB2_GRP1_PERIPH_GPIOC
 817:Drivers/STM32U5xx_HAL_Driver/Inc/stm32u5xx_ll_bus.h ****   *         @arg @ref LL_AHB2_GRP1_PERIPH_GPIOD
 818:Drivers/STM32U5xx_HAL_Driver/Inc/stm32u5xx_ll_bus.h ****   *         @arg @ref LL_AHB2_GRP1_PERIPH_GPIOE
 819:Drivers/STM32U5xx_HAL_Driver/Inc/stm32u5xx_ll_bus.h ****   *         @arg @ref LL_AHB2_GRP1_PERIPH_GPIOF (*)
 820:Drivers/STM32U5xx_HAL_Driver/Inc/stm32u5xx_ll_bus.h ****   *         @arg @ref LL_AHB2_GRP1_PERIPH_GPIOG
 821:Drivers/STM32U5xx_HAL_Driver/Inc/stm32u5xx_ll_bus.h ****   *         @arg @ref LL_AHB2_GRP1_PERIPH_GPIOH
 822:Drivers/STM32U5xx_HAL_Driver/Inc/stm32u5xx_ll_bus.h ****   *         @arg @ref LL_AHB2_GRP1_PERIPH_GPIOI (*)
 823:Drivers/STM32U5xx_HAL_Driver/Inc/stm32u5xx_ll_bus.h ****   *         @arg @ref LL_AHB2_GRP1_PERIPH_GPIOJ (*)
 824:Drivers/STM32U5xx_HAL_Driver/Inc/stm32u5xx_ll_bus.h ****   *         @arg @ref LL_AHB2_GRP1_PERIPH_ADC12
 825:Drivers/STM32U5xx_HAL_Driver/Inc/stm32u5xx_ll_bus.h ****   *         @arg @ref LL_AHB2_GRP1_PERIPH_DCMI_PSSI
 826:Drivers/STM32U5xx_HAL_Driver/Inc/stm32u5xx_ll_bus.h ****   *         @arg @ref LL_AHB2_GRP1_PERIPH_OTG_FS (*)
 827:Drivers/STM32U5xx_HAL_Driver/Inc/stm32u5xx_ll_bus.h ****   *         @arg @ref LL_AHB2_GRP1_PERIPH_OTG_HS (*)
 828:Drivers/STM32U5xx_HAL_Driver/Inc/stm32u5xx_ll_bus.h ****   *         @arg @ref LL_AHB2_GRP1_PERIPH_USBPHY (*)
 829:Drivers/STM32U5xx_HAL_Driver/Inc/stm32u5xx_ll_bus.h ****   *         @arg @ref LL_AHB2_GRP1_PERIPH_AES
 830:Drivers/STM32U5xx_HAL_Driver/Inc/stm32u5xx_ll_bus.h ****   *         @arg @ref LL_AHB2_GRP1_PERIPH_HASH
 831:Drivers/STM32U5xx_HAL_Driver/Inc/stm32u5xx_ll_bus.h ****   *         @arg @ref LL_AHB2_GRP1_PERIPH_RNG
 832:Drivers/STM32U5xx_HAL_Driver/Inc/stm32u5xx_ll_bus.h ****   *         @arg @ref LL_AHB2_GRP1_PERIPH_PKA
 833:Drivers/STM32U5xx_HAL_Driver/Inc/stm32u5xx_ll_bus.h ****   *         @arg @ref LL_AHB2_GRP1_PERIPH_SAES (*)
 834:Drivers/STM32U5xx_HAL_Driver/Inc/stm32u5xx_ll_bus.h ****   *         @arg @ref LL_AHB2_GRP1_PERIPH_OCTOSPIM (*)
 835:Drivers/STM32U5xx_HAL_Driver/Inc/stm32u5xx_ll_bus.h ****   *         @arg @ref LL_AHB2_GRP1_PERIPH_OTFDEC1 (*)
 836:Drivers/STM32U5xx_HAL_Driver/Inc/stm32u5xx_ll_bus.h ****   *         @arg @ref LL_AHB2_GRP1_PERIPH_OTFDEC2 (*)
 837:Drivers/STM32U5xx_HAL_Driver/Inc/stm32u5xx_ll_bus.h ****   *         @arg @ref LL_AHB2_GRP1_PERIPH_SDMMC1
 838:Drivers/STM32U5xx_HAL_Driver/Inc/stm32u5xx_ll_bus.h ****   *         @arg @ref LL_AHB2_GRP1_PERIPH_SDMMC2 (*)
 839:Drivers/STM32U5xx_HAL_Driver/Inc/stm32u5xx_ll_bus.h ****   *         @arg @ref LL_AHB2_GRP1_PERIPH_SRAM2
 840:Drivers/STM32U5xx_HAL_Driver/Inc/stm32u5xx_ll_bus.h ****   *         @arg @ref LL_AHB2_GRP1_PERIPH_SRAM3 (*)
 841:Drivers/STM32U5xx_HAL_Driver/Inc/stm32u5xx_ll_bus.h ****   *
 842:Drivers/STM32U5xx_HAL_Driver/Inc/stm32u5xx_ll_bus.h ****   *        (*) value not defined in all devices.
 843:Drivers/STM32U5xx_HAL_Driver/Inc/stm32u5xx_ll_bus.h ****   * @retval None
 844:Drivers/STM32U5xx_HAL_Driver/Inc/stm32u5xx_ll_bus.h ****   */
 845:Drivers/STM32U5xx_HAL_Driver/Inc/stm32u5xx_ll_bus.h **** __STATIC_INLINE void LL_AHB2_GRP1_EnableClock(uint32_t Periphs)
 846:Drivers/STM32U5xx_HAL_Driver/Inc/stm32u5xx_ll_bus.h **** {
 847:Drivers/STM32U5xx_HAL_Driver/Inc/stm32u5xx_ll_bus.h ****   __IO uint32_t tmpreg;
 848:Drivers/STM32U5xx_HAL_Driver/Inc/stm32u5xx_ll_bus.h ****   SET_BIT(RCC->AHB2ENR1, Periphs);
 849:Drivers/STM32U5xx_HAL_Driver/Inc/stm32u5xx_ll_bus.h ****   /* Delay after an RCC peripheral clock enabling */
 850:Drivers/STM32U5xx_HAL_Driver/Inc/stm32u5xx_ll_bus.h ****   tmpreg = READ_BIT(RCC->AHB2ENR1, Periphs);
ARM GAS  /tmp/ccyLpKvw.s 			page 30


 851:Drivers/STM32U5xx_HAL_Driver/Inc/stm32u5xx_ll_bus.h ****   (void)tmpreg;
 852:Drivers/STM32U5xx_HAL_Driver/Inc/stm32u5xx_ll_bus.h **** }
 853:Drivers/STM32U5xx_HAL_Driver/Inc/stm32u5xx_ll_bus.h **** 
 854:Drivers/STM32U5xx_HAL_Driver/Inc/stm32u5xx_ll_bus.h **** /**
 855:Drivers/STM32U5xx_HAL_Driver/Inc/stm32u5xx_ll_bus.h ****   * @brief  Check if AHB2 peripheral clock is enabled or not
 856:Drivers/STM32U5xx_HAL_Driver/Inc/stm32u5xx_ll_bus.h ****   * @rmtoll AHB2ENR1      GPIOAEN       LL_AHB2_GRP1_IsEnabledClock\n
 857:Drivers/STM32U5xx_HAL_Driver/Inc/stm32u5xx_ll_bus.h ****   *         AHB2ENR1      GPIOBEN       LL_AHB2_GRP1_IsEnabledClock\n
 858:Drivers/STM32U5xx_HAL_Driver/Inc/stm32u5xx_ll_bus.h ****   *         AHB2ENR1      GPIOCEN       LL_AHB2_GRP1_IsEnabledClock\n
 859:Drivers/STM32U5xx_HAL_Driver/Inc/stm32u5xx_ll_bus.h ****   *         AHB2ENR1      GPIODEN       LL_AHB2_GRP1_IsEnabledClock\n
 860:Drivers/STM32U5xx_HAL_Driver/Inc/stm32u5xx_ll_bus.h ****   *         AHB2ENR1      GPIOEEN       LL_AHB2_GRP1_IsEnabledClock\n
 861:Drivers/STM32U5xx_HAL_Driver/Inc/stm32u5xx_ll_bus.h ****   *         AHB2ENR1      GPIOFEN       LL_AHB2_GRP1_IsEnabledClock\n
 862:Drivers/STM32U5xx_HAL_Driver/Inc/stm32u5xx_ll_bus.h ****   *         AHB2ENR1      GPIOGEN       LL_AHB2_GRP1_IsEnabledClock\n
 863:Drivers/STM32U5xx_HAL_Driver/Inc/stm32u5xx_ll_bus.h ****   *         AHB2ENR1      GPIOHEN       LL_AHB2_GRP1_IsEnabledClock\n
 864:Drivers/STM32U5xx_HAL_Driver/Inc/stm32u5xx_ll_bus.h ****   *         AHB2ENR1      GPIOIEN       LL_AHB2_GRP1_IsEnabledClock\n
 865:Drivers/STM32U5xx_HAL_Driver/Inc/stm32u5xx_ll_bus.h ****   *         AHB2ENR1      GPIOJEN       LL_AHB2_GRP1_IsEnabledClock\n
 866:Drivers/STM32U5xx_HAL_Driver/Inc/stm32u5xx_ll_bus.h ****   *         AHB2ENR1      ADC12EN       LL_AHB2_GRP1_IsEnabledClock\n
 867:Drivers/STM32U5xx_HAL_Driver/Inc/stm32u5xx_ll_bus.h ****   *         AHB2ENR1      DCMI_PSSIEN   LL_AHB2_GRP1_IsEnabledClock\n
 868:Drivers/STM32U5xx_HAL_Driver/Inc/stm32u5xx_ll_bus.h ****   *         AHB2ENR1      OTGEN         LL_AHB2_GRP1_IsEnabledClock\n
 869:Drivers/STM32U5xx_HAL_Driver/Inc/stm32u5xx_ll_bus.h ****   *         AHB2ENR1      USBPHYCEN     LL_AHB2_GRP1_IsEnabledClock\n
 870:Drivers/STM32U5xx_HAL_Driver/Inc/stm32u5xx_ll_bus.h ****   *         AHB2ENR1      AESEN         LL_AHB2_GRP1_IsEnabledClock\n
 871:Drivers/STM32U5xx_HAL_Driver/Inc/stm32u5xx_ll_bus.h ****   *         AHB2ENR1      HASHEN        LL_AHB2_GRP1_IsEnabledClock\n
 872:Drivers/STM32U5xx_HAL_Driver/Inc/stm32u5xx_ll_bus.h ****   *         AHB2ENR1      RNGEN         LL_AHB2_GRP1_IsEnabledClock\n
 873:Drivers/STM32U5xx_HAL_Driver/Inc/stm32u5xx_ll_bus.h ****   *         AHB2ENR1      PKAEN         LL_AHB2_GRP1_IsEnabledClock\n
 874:Drivers/STM32U5xx_HAL_Driver/Inc/stm32u5xx_ll_bus.h ****   *         AHB2ENR1      SAESEN        LL_AHB2_GRP1_IsEnabledClock\n
 875:Drivers/STM32U5xx_HAL_Driver/Inc/stm32u5xx_ll_bus.h ****   *         AHB2ENR1      OCTOSPIMEN    LL_AHB2_GRP1_IsEnabledClock\n
 876:Drivers/STM32U5xx_HAL_Driver/Inc/stm32u5xx_ll_bus.h ****   *         AHB2ENR1      OTFDEC1EN     LL_AHB2_GRP1_IsEnabledClock\n
 877:Drivers/STM32U5xx_HAL_Driver/Inc/stm32u5xx_ll_bus.h ****   *         AHB2ENR1      OTFDEC2EN     LL_AHB2_GRP1_IsEnabledClock\n
 878:Drivers/STM32U5xx_HAL_Driver/Inc/stm32u5xx_ll_bus.h ****   *         AHB2ENR1      SDMMC1EN      LL_AHB2_GRP1_IsEnabledClock\n
 879:Drivers/STM32U5xx_HAL_Driver/Inc/stm32u5xx_ll_bus.h ****   *         AHB2ENR1      SDMMC2EN      LL_AHB2_GRP1_IsEnabledClock\n
 880:Drivers/STM32U5xx_HAL_Driver/Inc/stm32u5xx_ll_bus.h ****   *         AHB2ENR1      SRAM2EN       LL_AHB2_GRP1_IsEnabledClock\n
 881:Drivers/STM32U5xx_HAL_Driver/Inc/stm32u5xx_ll_bus.h ****   *         AHB2ENR1      SRAM3EN       LL_AHB2_GRP1_IsEnabledClock\n
 882:Drivers/STM32U5xx_HAL_Driver/Inc/stm32u5xx_ll_bus.h ****   * @param  Periphs This parameter can be a combination of the following values:
 883:Drivers/STM32U5xx_HAL_Driver/Inc/stm32u5xx_ll_bus.h ****   *         @arg @ref LL_AHB2_GRP1_PERIPH_ALL
 884:Drivers/STM32U5xx_HAL_Driver/Inc/stm32u5xx_ll_bus.h ****   *         @arg @ref LL_AHB2_GRP1_PERIPH_GPIOA
 885:Drivers/STM32U5xx_HAL_Driver/Inc/stm32u5xx_ll_bus.h ****   *         @arg @ref LL_AHB2_GRP1_PERIPH_GPIOB
 886:Drivers/STM32U5xx_HAL_Driver/Inc/stm32u5xx_ll_bus.h ****   *         @arg @ref LL_AHB2_GRP1_PERIPH_GPIOC
 887:Drivers/STM32U5xx_HAL_Driver/Inc/stm32u5xx_ll_bus.h ****   *         @arg @ref LL_AHB2_GRP1_PERIPH_GPIOD
 888:Drivers/STM32U5xx_HAL_Driver/Inc/stm32u5xx_ll_bus.h ****   *         @arg @ref LL_AHB2_GRP1_PERIPH_GPIOE
 889:Drivers/STM32U5xx_HAL_Driver/Inc/stm32u5xx_ll_bus.h ****   *         @arg @ref LL_AHB2_GRP1_PERIPH_GPIOF (*)
 890:Drivers/STM32U5xx_HAL_Driver/Inc/stm32u5xx_ll_bus.h ****   *         @arg @ref LL_AHB2_GRP1_PERIPH_GPIOG
 891:Drivers/STM32U5xx_HAL_Driver/Inc/stm32u5xx_ll_bus.h ****   *         @arg @ref LL_AHB2_GRP1_PERIPH_GPIOH
 892:Drivers/STM32U5xx_HAL_Driver/Inc/stm32u5xx_ll_bus.h ****   *         @arg @ref LL_AHB2_GRP1_PERIPH_GPIOI (*)
 893:Drivers/STM32U5xx_HAL_Driver/Inc/stm32u5xx_ll_bus.h ****   *         @arg @ref LL_AHB2_GRP1_PERIPH_GPIOJ (*)
 894:Drivers/STM32U5xx_HAL_Driver/Inc/stm32u5xx_ll_bus.h ****   *         @arg @ref LL_AHB2_GRP1_PERIPH_ADC12
 895:Drivers/STM32U5xx_HAL_Driver/Inc/stm32u5xx_ll_bus.h ****   *         @arg @ref LL_AHB2_GRP1_PERIPH_DCMI_PSSI
 896:Drivers/STM32U5xx_HAL_Driver/Inc/stm32u5xx_ll_bus.h ****   *         @arg @ref LL_AHB2_GRP1_PERIPH_OTG_FS (*)
 897:Drivers/STM32U5xx_HAL_Driver/Inc/stm32u5xx_ll_bus.h ****   *         @arg @ref LL_AHB2_GRP1_PERIPH_OTG_HS (*)
 898:Drivers/STM32U5xx_HAL_Driver/Inc/stm32u5xx_ll_bus.h ****   *         @arg @ref LL_AHB2_GRP1_PERIPH_USBPHY (*)
 899:Drivers/STM32U5xx_HAL_Driver/Inc/stm32u5xx_ll_bus.h ****   *         @arg @ref LL_AHB2_GRP1_PERIPH_AES
 900:Drivers/STM32U5xx_HAL_Driver/Inc/stm32u5xx_ll_bus.h ****   *         @arg @ref LL_AHB2_GRP1_PERIPH_HASH
 901:Drivers/STM32U5xx_HAL_Driver/Inc/stm32u5xx_ll_bus.h ****   *         @arg @ref LL_AHB2_GRP1_PERIPH_RNG
 902:Drivers/STM32U5xx_HAL_Driver/Inc/stm32u5xx_ll_bus.h ****   *         @arg @ref LL_AHB2_GRP1_PERIPH_PKA
 903:Drivers/STM32U5xx_HAL_Driver/Inc/stm32u5xx_ll_bus.h ****   *         @arg @ref LL_AHB2_GRP1_PERIPH_SAES (*)
 904:Drivers/STM32U5xx_HAL_Driver/Inc/stm32u5xx_ll_bus.h ****   *         @arg @ref LL_AHB2_GRP1_PERIPH_OCTOSPIM (*)
 905:Drivers/STM32U5xx_HAL_Driver/Inc/stm32u5xx_ll_bus.h ****   *         @arg @ref LL_AHB2_GRP1_PERIPH_OTFDEC1 (*)
 906:Drivers/STM32U5xx_HAL_Driver/Inc/stm32u5xx_ll_bus.h ****   *         @arg @ref LL_AHB2_GRP1_PERIPH_OTFDEC2 (*)
 907:Drivers/STM32U5xx_HAL_Driver/Inc/stm32u5xx_ll_bus.h ****   *         @arg @ref LL_AHB2_GRP1_PERIPH_SDMMC1
ARM GAS  /tmp/ccyLpKvw.s 			page 31


 908:Drivers/STM32U5xx_HAL_Driver/Inc/stm32u5xx_ll_bus.h ****   *         @arg @ref LL_AHB2_GRP1_PERIPH_SDMMC2 (*)
 909:Drivers/STM32U5xx_HAL_Driver/Inc/stm32u5xx_ll_bus.h ****   *         @arg @ref LL_AHB2_GRP1_PERIPH_SRAM2
 910:Drivers/STM32U5xx_HAL_Driver/Inc/stm32u5xx_ll_bus.h ****   *         @arg @ref LL_AHB2_GRP1_PERIPH_SRAM3 (*)
 911:Drivers/STM32U5xx_HAL_Driver/Inc/stm32u5xx_ll_bus.h ****   *
 912:Drivers/STM32U5xx_HAL_Driver/Inc/stm32u5xx_ll_bus.h ****   *        (*) value not defined in all devices.
 913:Drivers/STM32U5xx_HAL_Driver/Inc/stm32u5xx_ll_bus.h ****   * @retval State of Periphs (1 or 0).
 914:Drivers/STM32U5xx_HAL_Driver/Inc/stm32u5xx_ll_bus.h ****   */
 915:Drivers/STM32U5xx_HAL_Driver/Inc/stm32u5xx_ll_bus.h **** __STATIC_INLINE uint32_t LL_AHB2_GRP1_IsEnabledClock(uint32_t Periphs)
 916:Drivers/STM32U5xx_HAL_Driver/Inc/stm32u5xx_ll_bus.h **** {
 917:Drivers/STM32U5xx_HAL_Driver/Inc/stm32u5xx_ll_bus.h ****   return ((READ_BIT(RCC->AHB2ENR1, Periphs) == Periphs) ? 1UL : 0UL);
 918:Drivers/STM32U5xx_HAL_Driver/Inc/stm32u5xx_ll_bus.h **** }
 919:Drivers/STM32U5xx_HAL_Driver/Inc/stm32u5xx_ll_bus.h **** 
 920:Drivers/STM32U5xx_HAL_Driver/Inc/stm32u5xx_ll_bus.h **** /**
 921:Drivers/STM32U5xx_HAL_Driver/Inc/stm32u5xx_ll_bus.h ****   * @brief  Disable AHB2_1 bus clock.
 922:Drivers/STM32U5xx_HAL_Driver/Inc/stm32u5xx_ll_bus.h ****   * @note   except for SRAM2 and SRAM3.
 923:Drivers/STM32U5xx_HAL_Driver/Inc/stm32u5xx_ll_bus.h ****   * @rmtoll CFGR2    AHB2DIS1     LL_AHB2_GRP1_DisableBusClock
 924:Drivers/STM32U5xx_HAL_Driver/Inc/stm32u5xx_ll_bus.h ****   * @retval None
 925:Drivers/STM32U5xx_HAL_Driver/Inc/stm32u5xx_ll_bus.h ****   */
 926:Drivers/STM32U5xx_HAL_Driver/Inc/stm32u5xx_ll_bus.h **** __STATIC_INLINE void LL_AHB2_GRP1_DisableBusClock(void)
 927:Drivers/STM32U5xx_HAL_Driver/Inc/stm32u5xx_ll_bus.h **** {
 928:Drivers/STM32U5xx_HAL_Driver/Inc/stm32u5xx_ll_bus.h ****   SET_BIT(RCC->CFGR2, RCC_CFGR2_AHB2DIS1);
 929:Drivers/STM32U5xx_HAL_Driver/Inc/stm32u5xx_ll_bus.h **** }
 930:Drivers/STM32U5xx_HAL_Driver/Inc/stm32u5xx_ll_bus.h **** 
 931:Drivers/STM32U5xx_HAL_Driver/Inc/stm32u5xx_ll_bus.h **** /**
 932:Drivers/STM32U5xx_HAL_Driver/Inc/stm32u5xx_ll_bus.h ****   * @brief  Disable AHB2 peripherals clock.
 933:Drivers/STM32U5xx_HAL_Driver/Inc/stm32u5xx_ll_bus.h ****   * @rmtoll AHB2ENR1      GPIOAEN       LL_AHB2_GRP1_DisableClock\n
 934:Drivers/STM32U5xx_HAL_Driver/Inc/stm32u5xx_ll_bus.h ****   *         AHB2ENR1      GPIOBEN       LL_AHB2_GRP1_DisableClock\n
 935:Drivers/STM32U5xx_HAL_Driver/Inc/stm32u5xx_ll_bus.h ****   *         AHB2ENR1      GPIOCEN       LL_AHB2_GRP1_DisableClock\n
 936:Drivers/STM32U5xx_HAL_Driver/Inc/stm32u5xx_ll_bus.h ****   *         AHB2ENR1      GPIODEN       LL_AHB2_GRP1_DisableClock\n
 937:Drivers/STM32U5xx_HAL_Driver/Inc/stm32u5xx_ll_bus.h ****   *         AHB2ENR1      GPIOEEN       LL_AHB2_GRP1_DisableClock\n
 938:Drivers/STM32U5xx_HAL_Driver/Inc/stm32u5xx_ll_bus.h ****   *         AHB2ENR1      GPIOFEN       LL_AHB2_GRP1_DisableClock\n
 939:Drivers/STM32U5xx_HAL_Driver/Inc/stm32u5xx_ll_bus.h ****   *         AHB2ENR1      GPIOGEN       LL_AHB2_GRP1_DisableClock\n
 940:Drivers/STM32U5xx_HAL_Driver/Inc/stm32u5xx_ll_bus.h ****   *         AHB2ENR1      GPIOHEN       LL_AHB2_GRP1_DisableClock\n
 941:Drivers/STM32U5xx_HAL_Driver/Inc/stm32u5xx_ll_bus.h ****   *         AHB2ENR1      GPIOIEN       LL_AHB2_GRP1_DisableClock\n
 942:Drivers/STM32U5xx_HAL_Driver/Inc/stm32u5xx_ll_bus.h ****   *         AHB2ENR1      GPIOJEN       LL_AHB2_GRP1_DisableClock\n
 943:Drivers/STM32U5xx_HAL_Driver/Inc/stm32u5xx_ll_bus.h ****   *         AHB2ENR1      ADC12EN       LL_AHB2_GRP1_DisableClock\n
 944:Drivers/STM32U5xx_HAL_Driver/Inc/stm32u5xx_ll_bus.h ****   *         AHB2ENR1      DCMI_PSSIEN   LL_AHB2_GRP1_DisableClock\n
 945:Drivers/STM32U5xx_HAL_Driver/Inc/stm32u5xx_ll_bus.h ****   *         AHB2ENR1      OTGEN         LL_AHB2_GRP1_DisableClock\n
 946:Drivers/STM32U5xx_HAL_Driver/Inc/stm32u5xx_ll_bus.h ****   *         AHB2ENR1      USBPHYCEN     LL_AHB2_GRP1_DisableClock\n
 947:Drivers/STM32U5xx_HAL_Driver/Inc/stm32u5xx_ll_bus.h ****   *         AHB2ENR1      AESEN         LL_AHB2_GRP1_DisableClock\n
 948:Drivers/STM32U5xx_HAL_Driver/Inc/stm32u5xx_ll_bus.h ****   *         AHB2ENR1      HASHEN        LL_AHB2_GRP1_DisableClock\n
 949:Drivers/STM32U5xx_HAL_Driver/Inc/stm32u5xx_ll_bus.h ****   *         AHB2ENR1      RNGEN         LL_AHB2_GRP1_DisableClock\n
 950:Drivers/STM32U5xx_HAL_Driver/Inc/stm32u5xx_ll_bus.h ****   *         AHB2ENR1      PKAEN         LL_AHB2_GRP1_DisableClock\n
 951:Drivers/STM32U5xx_HAL_Driver/Inc/stm32u5xx_ll_bus.h ****   *         AHB2ENR1      SAESEN        LL_AHB2_GRP1_DisableClock\n
 952:Drivers/STM32U5xx_HAL_Driver/Inc/stm32u5xx_ll_bus.h ****   *         AHB2ENR1      OSPIMEN       LL_AHB2_GRP1_DisableClock\n
 953:Drivers/STM32U5xx_HAL_Driver/Inc/stm32u5xx_ll_bus.h ****   *         AHB2ENR1      OTFDEC1EN     LL_AHB2_GRP1_DisableClock\n
 954:Drivers/STM32U5xx_HAL_Driver/Inc/stm32u5xx_ll_bus.h ****   *         AHB2ENR1      OTFDEC2EN     LL_AHB2_GRP1_DisableClock\n
 955:Drivers/STM32U5xx_HAL_Driver/Inc/stm32u5xx_ll_bus.h ****   *         AHB2ENR1      SDMMC1EN      LL_AHB2_GRP1_DisableClock\n
 956:Drivers/STM32U5xx_HAL_Driver/Inc/stm32u5xx_ll_bus.h ****   *         AHB2ENR1      SDMMC2EN      LL_AHB2_GRP1_DisableClock\n
 957:Drivers/STM32U5xx_HAL_Driver/Inc/stm32u5xx_ll_bus.h ****   *         AHB2ENR1      SRAM2EN       LL_AHB2_GRP1_DisableClock\n
 958:Drivers/STM32U5xx_HAL_Driver/Inc/stm32u5xx_ll_bus.h ****   *         AHB2ENR1      SRAM3EN       LL_AHB2_GRP1_DisableClock\n
 959:Drivers/STM32U5xx_HAL_Driver/Inc/stm32u5xx_ll_bus.h ****   * @param  Periphs This parameter can be a combination of the following values:
 960:Drivers/STM32U5xx_HAL_Driver/Inc/stm32u5xx_ll_bus.h ****   *         @arg @ref LL_AHB2_GRP1_PERIPH_ALL
 961:Drivers/STM32U5xx_HAL_Driver/Inc/stm32u5xx_ll_bus.h ****   *         @arg @ref LL_AHB2_GRP1_PERIPH_GPIOA
 962:Drivers/STM32U5xx_HAL_Driver/Inc/stm32u5xx_ll_bus.h ****   *         @arg @ref LL_AHB2_GRP1_PERIPH_GPIOB
 963:Drivers/STM32U5xx_HAL_Driver/Inc/stm32u5xx_ll_bus.h ****   *         @arg @ref LL_AHB2_GRP1_PERIPH_GPIOC
 964:Drivers/STM32U5xx_HAL_Driver/Inc/stm32u5xx_ll_bus.h ****   *         @arg @ref LL_AHB2_GRP1_PERIPH_GPIOD
ARM GAS  /tmp/ccyLpKvw.s 			page 32


 965:Drivers/STM32U5xx_HAL_Driver/Inc/stm32u5xx_ll_bus.h ****   *         @arg @ref LL_AHB2_GRP1_PERIPH_GPIOE
 966:Drivers/STM32U5xx_HAL_Driver/Inc/stm32u5xx_ll_bus.h ****   *         @arg @ref LL_AHB2_GRP1_PERIPH_GPIOF (*)
 967:Drivers/STM32U5xx_HAL_Driver/Inc/stm32u5xx_ll_bus.h ****   *         @arg @ref LL_AHB2_GRP1_PERIPH_GPIOG
 968:Drivers/STM32U5xx_HAL_Driver/Inc/stm32u5xx_ll_bus.h ****   *         @arg @ref LL_AHB2_GRP1_PERIPH_GPIOH
 969:Drivers/STM32U5xx_HAL_Driver/Inc/stm32u5xx_ll_bus.h ****   *         @arg @ref LL_AHB2_GRP1_PERIPH_GPIOI (*)
 970:Drivers/STM32U5xx_HAL_Driver/Inc/stm32u5xx_ll_bus.h ****   *         @arg @ref LL_AHB2_GRP1_PERIPH_GPIOJ (*)
 971:Drivers/STM32U5xx_HAL_Driver/Inc/stm32u5xx_ll_bus.h ****   *         @arg @ref LL_AHB2_GRP1_PERIPH_ADC12
 972:Drivers/STM32U5xx_HAL_Driver/Inc/stm32u5xx_ll_bus.h ****   *         @arg @ref LL_AHB2_GRP1_PERIPH_DCMI_PSSI
 973:Drivers/STM32U5xx_HAL_Driver/Inc/stm32u5xx_ll_bus.h ****   *         @arg @ref LL_AHB2_GRP1_PERIPH_OTG_FS (*)
 974:Drivers/STM32U5xx_HAL_Driver/Inc/stm32u5xx_ll_bus.h ****   *         @arg @ref LL_AHB2_GRP1_PERIPH_OTG_HS (*)
 975:Drivers/STM32U5xx_HAL_Driver/Inc/stm32u5xx_ll_bus.h ****   *         @arg @ref LL_AHB2_GRP1_PERIPH_USBPHY (*)
 976:Drivers/STM32U5xx_HAL_Driver/Inc/stm32u5xx_ll_bus.h ****   *         @arg @ref LL_AHB2_GRP1_PERIPH_AES
 977:Drivers/STM32U5xx_HAL_Driver/Inc/stm32u5xx_ll_bus.h ****   *         @arg @ref LL_AHB2_GRP1_PERIPH_HASH
 978:Drivers/STM32U5xx_HAL_Driver/Inc/stm32u5xx_ll_bus.h ****   *         @arg @ref LL_AHB2_GRP1_PERIPH_RNG
 979:Drivers/STM32U5xx_HAL_Driver/Inc/stm32u5xx_ll_bus.h ****   *         @arg @ref LL_AHB2_GRP1_PERIPH_PKA
 980:Drivers/STM32U5xx_HAL_Driver/Inc/stm32u5xx_ll_bus.h ****   *         @arg @ref LL_AHB2_GRP1_PERIPH_SAES (*)
 981:Drivers/STM32U5xx_HAL_Driver/Inc/stm32u5xx_ll_bus.h ****   *         @arg @ref LL_AHB2_GRP1_PERIPH_OCTOSPIM (*)
 982:Drivers/STM32U5xx_HAL_Driver/Inc/stm32u5xx_ll_bus.h ****   *         @arg @ref LL_AHB2_GRP1_PERIPH_OTFDEC1 (*)
 983:Drivers/STM32U5xx_HAL_Driver/Inc/stm32u5xx_ll_bus.h ****   *         @arg @ref LL_AHB2_GRP1_PERIPH_OTFDEC2 (*)
 984:Drivers/STM32U5xx_HAL_Driver/Inc/stm32u5xx_ll_bus.h ****   *         @arg @ref LL_AHB2_GRP1_PERIPH_SDMMC1
 985:Drivers/STM32U5xx_HAL_Driver/Inc/stm32u5xx_ll_bus.h ****   *         @arg @ref LL_AHB2_GRP1_PERIPH_SDMMC2 (*)
 986:Drivers/STM32U5xx_HAL_Driver/Inc/stm32u5xx_ll_bus.h ****   *         @arg @ref LL_AHB2_GRP1_PERIPH_SRAM2
 987:Drivers/STM32U5xx_HAL_Driver/Inc/stm32u5xx_ll_bus.h ****   *         @arg @ref LL_AHB2_GRP1_PERIPH_SRAM3 (*)
 988:Drivers/STM32U5xx_HAL_Driver/Inc/stm32u5xx_ll_bus.h ****   *
 989:Drivers/STM32U5xx_HAL_Driver/Inc/stm32u5xx_ll_bus.h ****   *        (*) value not defined in all devices.
 990:Drivers/STM32U5xx_HAL_Driver/Inc/stm32u5xx_ll_bus.h ****   * @retval None
 991:Drivers/STM32U5xx_HAL_Driver/Inc/stm32u5xx_ll_bus.h ****   */
 992:Drivers/STM32U5xx_HAL_Driver/Inc/stm32u5xx_ll_bus.h **** __STATIC_INLINE void LL_AHB2_GRP1_DisableClock(uint32_t Periphs)
 993:Drivers/STM32U5xx_HAL_Driver/Inc/stm32u5xx_ll_bus.h **** {
 994:Drivers/STM32U5xx_HAL_Driver/Inc/stm32u5xx_ll_bus.h ****   CLEAR_BIT(RCC->AHB2ENR1, Periphs);
 995:Drivers/STM32U5xx_HAL_Driver/Inc/stm32u5xx_ll_bus.h **** }
 996:Drivers/STM32U5xx_HAL_Driver/Inc/stm32u5xx_ll_bus.h **** 
 997:Drivers/STM32U5xx_HAL_Driver/Inc/stm32u5xx_ll_bus.h **** /**
 998:Drivers/STM32U5xx_HAL_Driver/Inc/stm32u5xx_ll_bus.h ****   * @brief  Force AHB2 peripherals reset.
 999:Drivers/STM32U5xx_HAL_Driver/Inc/stm32u5xx_ll_bus.h ****   * @rmtoll AHB2RSTR1     GPIOARST      LL_AHB2_GRP1_ForceReset\n
1000:Drivers/STM32U5xx_HAL_Driver/Inc/stm32u5xx_ll_bus.h ****   *         AHB2RSTR1     GPIOBRST      LL_AHB2_GRP1_ForceReset\n
1001:Drivers/STM32U5xx_HAL_Driver/Inc/stm32u5xx_ll_bus.h ****   *         AHB2RSTR1     GPIOCRST      LL_AHB2_GRP1_ForceReset\n
1002:Drivers/STM32U5xx_HAL_Driver/Inc/stm32u5xx_ll_bus.h ****   *         AHB2RSTR1     GPIODRST      LL_AHB2_GRP1_ForceReset\n
1003:Drivers/STM32U5xx_HAL_Driver/Inc/stm32u5xx_ll_bus.h ****   *         AHB2RSTR1     GPIOERST      LL_AHB2_GRP1_ForceReset\n
1004:Drivers/STM32U5xx_HAL_Driver/Inc/stm32u5xx_ll_bus.h ****   *         AHB2RSTR1     GPIOFRST      LL_AHB2_GRP1_ForceReset\n
1005:Drivers/STM32U5xx_HAL_Driver/Inc/stm32u5xx_ll_bus.h ****   *         AHB2RSTR1     GPIOGRST      LL_AHB2_GRP1_ForceReset\n
1006:Drivers/STM32U5xx_HAL_Driver/Inc/stm32u5xx_ll_bus.h ****   *         AHB2RSTR1     GPIOHRST      LL_AHB2_GRP1_ForceReset\n
1007:Drivers/STM32U5xx_HAL_Driver/Inc/stm32u5xx_ll_bus.h ****   *         AHB2RSTR1     GPIOIRST      LL_AHB2_GRP1_ForceReset\n
1008:Drivers/STM32U5xx_HAL_Driver/Inc/stm32u5xx_ll_bus.h ****   *         AHB2RSTR1     GPIOJRST      LL_AHB2_GRP1_ForceReset\n
1009:Drivers/STM32U5xx_HAL_Driver/Inc/stm32u5xx_ll_bus.h ****   *         AHB2RSTR1     ADC12RST      LL_AHB2_GRP1_ForceReset\n
1010:Drivers/STM32U5xx_HAL_Driver/Inc/stm32u5xx_ll_bus.h ****   *         AHB2RSTR1     DCMI_PSSIRST  LL_AHB2_GRP1_ForceReset\n
1011:Drivers/STM32U5xx_HAL_Driver/Inc/stm32u5xx_ll_bus.h ****   *         AHB2RSTR1     OTGRST        LL_AHB2_GRP1_ForceReset\n
1012:Drivers/STM32U5xx_HAL_Driver/Inc/stm32u5xx_ll_bus.h ****   *         AHB2RSTR1     USBPHYCRST    LL_AHB2_GRP1_ForceReset\n
1013:Drivers/STM32U5xx_HAL_Driver/Inc/stm32u5xx_ll_bus.h ****   *         AHB2RSTR1     AESRST        LL_AHB2_GRP1_ForceReset\n
1014:Drivers/STM32U5xx_HAL_Driver/Inc/stm32u5xx_ll_bus.h ****   *         AHB2RSTR1     HASHRST       LL_AHB2_GRP1_ForceReset\n
1015:Drivers/STM32U5xx_HAL_Driver/Inc/stm32u5xx_ll_bus.h ****   *         AHB2RSTR1     RNGRST        LL_AHB2_GRP1_ForceReset\n
1016:Drivers/STM32U5xx_HAL_Driver/Inc/stm32u5xx_ll_bus.h ****   *         AHB2RSTR1     PKARST        LL_AHB2_GRP1_ForceReset\n
1017:Drivers/STM32U5xx_HAL_Driver/Inc/stm32u5xx_ll_bus.h ****   *         AHB2RSTR1     SAESRST       LL_AHB2_GRP1_ForceReset\n
1018:Drivers/STM32U5xx_HAL_Driver/Inc/stm32u5xx_ll_bus.h ****   *         AHB2RSTR1     OCTOSPIMRST   LL_AHB2_GRP1_ForceReset\n
1019:Drivers/STM32U5xx_HAL_Driver/Inc/stm32u5xx_ll_bus.h ****   *         AHB2RSTR1     OTFDEC1RST    LL_AHB2_GRP1_ForceReset\n
1020:Drivers/STM32U5xx_HAL_Driver/Inc/stm32u5xx_ll_bus.h ****   *         AHB2RSTR1     OTFDEC2RST    LL_AHB2_GRP1_ForceReset\n
1021:Drivers/STM32U5xx_HAL_Driver/Inc/stm32u5xx_ll_bus.h ****   *         AHB2RSTR1     SDMMC1RST     LL_AHB2_GRP1_ForceReset\n
ARM GAS  /tmp/ccyLpKvw.s 			page 33


1022:Drivers/STM32U5xx_HAL_Driver/Inc/stm32u5xx_ll_bus.h ****   *         AHB2RSTR1     SDMMC2RST     LL_AHB2_GRP1_ForceReset\n
1023:Drivers/STM32U5xx_HAL_Driver/Inc/stm32u5xx_ll_bus.h ****   * @param  Periphs This parameter can be a combination of the following values:
1024:Drivers/STM32U5xx_HAL_Driver/Inc/stm32u5xx_ll_bus.h ****   *         @arg @ref LL_AHB2_GRP1_PERIPH_ALL
1025:Drivers/STM32U5xx_HAL_Driver/Inc/stm32u5xx_ll_bus.h ****   *         @arg @ref LL_AHB2_GRP1_PERIPH_GPIOA
1026:Drivers/STM32U5xx_HAL_Driver/Inc/stm32u5xx_ll_bus.h ****   *         @arg @ref LL_AHB2_GRP1_PERIPH_GPIOB
1027:Drivers/STM32U5xx_HAL_Driver/Inc/stm32u5xx_ll_bus.h ****   *         @arg @ref LL_AHB2_GRP1_PERIPH_GPIOC
1028:Drivers/STM32U5xx_HAL_Driver/Inc/stm32u5xx_ll_bus.h ****   *         @arg @ref LL_AHB2_GRP1_PERIPH_GPIOD
1029:Drivers/STM32U5xx_HAL_Driver/Inc/stm32u5xx_ll_bus.h ****   *         @arg @ref LL_AHB2_GRP1_PERIPH_GPIOE
1030:Drivers/STM32U5xx_HAL_Driver/Inc/stm32u5xx_ll_bus.h ****   *         @arg @ref LL_AHB2_GRP1_PERIPH_GPIOF (*)
1031:Drivers/STM32U5xx_HAL_Driver/Inc/stm32u5xx_ll_bus.h ****   *         @arg @ref LL_AHB2_GRP1_PERIPH_GPIOG
1032:Drivers/STM32U5xx_HAL_Driver/Inc/stm32u5xx_ll_bus.h ****   *         @arg @ref LL_AHB2_GRP1_PERIPH_GPIOH
1033:Drivers/STM32U5xx_HAL_Driver/Inc/stm32u5xx_ll_bus.h ****   *         @arg @ref LL_AHB2_GRP1_PERIPH_GPIOI (*)
1034:Drivers/STM32U5xx_HAL_Driver/Inc/stm32u5xx_ll_bus.h ****   *         @arg @ref LL_AHB2_GRP1_PERIPH_GPIOJ (*)
1035:Drivers/STM32U5xx_HAL_Driver/Inc/stm32u5xx_ll_bus.h ****   *         @arg @ref LL_AHB2_GRP1_PERIPH_ADC12
1036:Drivers/STM32U5xx_HAL_Driver/Inc/stm32u5xx_ll_bus.h ****   *         @arg @ref LL_AHB2_GRP1_PERIPH_DCMI_PSSI
1037:Drivers/STM32U5xx_HAL_Driver/Inc/stm32u5xx_ll_bus.h ****   *         @arg @ref LL_AHB2_GRP1_PERIPH_OTG_FS (*)
1038:Drivers/STM32U5xx_HAL_Driver/Inc/stm32u5xx_ll_bus.h ****   *         @arg @ref LL_AHB2_GRP1_PERIPH_OTG_HS (*)
1039:Drivers/STM32U5xx_HAL_Driver/Inc/stm32u5xx_ll_bus.h ****   *         @arg @ref LL_AHB2_GRP1_PERIPH_USBPHY (*)
1040:Drivers/STM32U5xx_HAL_Driver/Inc/stm32u5xx_ll_bus.h ****   *         @arg @ref LL_AHB2_GRP1_PERIPH_AES
1041:Drivers/STM32U5xx_HAL_Driver/Inc/stm32u5xx_ll_bus.h ****   *         @arg @ref LL_AHB2_GRP1_PERIPH_HASH
1042:Drivers/STM32U5xx_HAL_Driver/Inc/stm32u5xx_ll_bus.h ****   *         @arg @ref LL_AHB2_GRP1_PERIPH_RNG
1043:Drivers/STM32U5xx_HAL_Driver/Inc/stm32u5xx_ll_bus.h ****   *         @arg @ref LL_AHB2_GRP1_PERIPH_PKA
1044:Drivers/STM32U5xx_HAL_Driver/Inc/stm32u5xx_ll_bus.h ****   *         @arg @ref LL_AHB2_GRP1_PERIPH_SAES (*)
1045:Drivers/STM32U5xx_HAL_Driver/Inc/stm32u5xx_ll_bus.h ****   *         @arg @ref LL_AHB2_GRP1_PERIPH_OCTOSPIM (*)
1046:Drivers/STM32U5xx_HAL_Driver/Inc/stm32u5xx_ll_bus.h ****   *         @arg @ref LL_AHB2_GRP1_PERIPH_OTFDEC1 (*)
1047:Drivers/STM32U5xx_HAL_Driver/Inc/stm32u5xx_ll_bus.h ****   *         @arg @ref LL_AHB2_GRP1_PERIPH_OTFDEC2 (*)
1048:Drivers/STM32U5xx_HAL_Driver/Inc/stm32u5xx_ll_bus.h ****   *         @arg @ref LL_AHB2_GRP1_PERIPH_SDMMC1
1049:Drivers/STM32U5xx_HAL_Driver/Inc/stm32u5xx_ll_bus.h ****   *         @arg @ref LL_AHB2_GRP1_PERIPH_SDMMC2 (*)
1050:Drivers/STM32U5xx_HAL_Driver/Inc/stm32u5xx_ll_bus.h ****   *
1051:Drivers/STM32U5xx_HAL_Driver/Inc/stm32u5xx_ll_bus.h ****   *        (*) value not defined in all devices.
1052:Drivers/STM32U5xx_HAL_Driver/Inc/stm32u5xx_ll_bus.h ****   * @retval None
1053:Drivers/STM32U5xx_HAL_Driver/Inc/stm32u5xx_ll_bus.h ****   */
1054:Drivers/STM32U5xx_HAL_Driver/Inc/stm32u5xx_ll_bus.h **** __STATIC_INLINE void LL_AHB2_GRP1_ForceReset(uint32_t Periphs)
1055:Drivers/STM32U5xx_HAL_Driver/Inc/stm32u5xx_ll_bus.h **** {
1056:Drivers/STM32U5xx_HAL_Driver/Inc/stm32u5xx_ll_bus.h ****   SET_BIT(RCC->AHB2RSTR1, Periphs);
1057:Drivers/STM32U5xx_HAL_Driver/Inc/stm32u5xx_ll_bus.h **** }
1058:Drivers/STM32U5xx_HAL_Driver/Inc/stm32u5xx_ll_bus.h **** 
1059:Drivers/STM32U5xx_HAL_Driver/Inc/stm32u5xx_ll_bus.h **** /**
1060:Drivers/STM32U5xx_HAL_Driver/Inc/stm32u5xx_ll_bus.h ****   * @brief  Release AHB2 peripherals reset.
1061:Drivers/STM32U5xx_HAL_Driver/Inc/stm32u5xx_ll_bus.h ****   * @rmtoll AHB2RSTR1     GPIOARST      LL_AHB2_GRP1_ReleaseReset\n
1062:Drivers/STM32U5xx_HAL_Driver/Inc/stm32u5xx_ll_bus.h ****   *         AHB2RSTR1     GPIOBRST      LL_AHB2_GRP1_ReleaseReset\n
1063:Drivers/STM32U5xx_HAL_Driver/Inc/stm32u5xx_ll_bus.h ****   *         AHB2RSTR1     GPIOCRST      LL_AHB2_GRP1_ReleaseReset\n
1064:Drivers/STM32U5xx_HAL_Driver/Inc/stm32u5xx_ll_bus.h ****   *         AHB2RSTR1     GPIODRST      LL_AHB2_GRP1_ReleaseReset\n
1065:Drivers/STM32U5xx_HAL_Driver/Inc/stm32u5xx_ll_bus.h ****   *         AHB2RSTR1     GPIOERST      LL_AHB2_GRP1_ReleaseReset\n
1066:Drivers/STM32U5xx_HAL_Driver/Inc/stm32u5xx_ll_bus.h ****   *         AHB2RSTR1     GPIOFRST      LL_AHB2_GRP1_ReleaseReset\n
1067:Drivers/STM32U5xx_HAL_Driver/Inc/stm32u5xx_ll_bus.h ****   *         AHB2RSTR1     GPIOGRST      LL_AHB2_GRP1_ReleaseReset\n
1068:Drivers/STM32U5xx_HAL_Driver/Inc/stm32u5xx_ll_bus.h ****   *         AHB2RSTR1     GPIOHRST      LL_AHB2_GRP1_ReleaseReset\n
1069:Drivers/STM32U5xx_HAL_Driver/Inc/stm32u5xx_ll_bus.h ****   *         AHB2RSTR1     GPIOIRST      LL_AHB2_GRP1_ReleaseReset\n
1070:Drivers/STM32U5xx_HAL_Driver/Inc/stm32u5xx_ll_bus.h ****   *         AHB2RSTR1     GPIOJRST      LL_AHB2_GRP1_ReleaseReset\n
1071:Drivers/STM32U5xx_HAL_Driver/Inc/stm32u5xx_ll_bus.h ****   *         AHB2RSTR1     ADC12RST      LL_AHB2_GRP1_ReleaseReset\n
1072:Drivers/STM32U5xx_HAL_Driver/Inc/stm32u5xx_ll_bus.h ****   *         AHB2RSTR1     DCMI_PSSIRST  LL_AHB2_GRP1_ReleaseReset\n
1073:Drivers/STM32U5xx_HAL_Driver/Inc/stm32u5xx_ll_bus.h ****   *         AHB2RSTR1     OTGRST        LL_AHB2_GRP1_ReleaseReset\n
1074:Drivers/STM32U5xx_HAL_Driver/Inc/stm32u5xx_ll_bus.h ****   *         AHB2RSTR1     USBPHYCRST    LL_AHB2_GRP1_ReleaseReset\n
1075:Drivers/STM32U5xx_HAL_Driver/Inc/stm32u5xx_ll_bus.h ****   *         AHB2RSTR1     AESRST        LL_AHB2_GRP1_ReleaseReset\n
1076:Drivers/STM32U5xx_HAL_Driver/Inc/stm32u5xx_ll_bus.h ****   *         AHB2RSTR1     HASHRST       LL_AHB2_GRP1_ReleaseReset\n
1077:Drivers/STM32U5xx_HAL_Driver/Inc/stm32u5xx_ll_bus.h ****   *         AHB2RSTR1     RNGRST        LL_AHB2_GRP1_ReleaseReset\n
1078:Drivers/STM32U5xx_HAL_Driver/Inc/stm32u5xx_ll_bus.h ****   *         AHB2RSTR1     PKARST        LL_AHB2_GRP1_ReleaseReset\n
ARM GAS  /tmp/ccyLpKvw.s 			page 34


1079:Drivers/STM32U5xx_HAL_Driver/Inc/stm32u5xx_ll_bus.h ****   *         AHB2RSTR1     SAESRST       LL_AHB2_GRP1_ReleaseReset\n
1080:Drivers/STM32U5xx_HAL_Driver/Inc/stm32u5xx_ll_bus.h ****   *         AHB2RSTR1     OCTOSPIMRST   LL_AHB2_GRP1_ReleaseReset\n
1081:Drivers/STM32U5xx_HAL_Driver/Inc/stm32u5xx_ll_bus.h ****   *         AHB2RSTR1     OTFDEC1RST    LL_AHB2_GRP1_ReleaseReset\n
1082:Drivers/STM32U5xx_HAL_Driver/Inc/stm32u5xx_ll_bus.h ****   *         AHB2RSTR1     OTFDEC2RST    LL_AHB2_GRP1_ReleaseReset\n
1083:Drivers/STM32U5xx_HAL_Driver/Inc/stm32u5xx_ll_bus.h ****   *         AHB2RSTR1     SDMMC1RST     LL_AHB2_GRP1_ReleaseReset\n
1084:Drivers/STM32U5xx_HAL_Driver/Inc/stm32u5xx_ll_bus.h ****   *         AHB2RSTR1     SDMMC2RST     LL_AHB2_GRP1_ReleaseReset\n
1085:Drivers/STM32U5xx_HAL_Driver/Inc/stm32u5xx_ll_bus.h ****   * @param  Periphs This parameter can be a combination of the following values:
1086:Drivers/STM32U5xx_HAL_Driver/Inc/stm32u5xx_ll_bus.h ****   *         @arg @ref LL_AHB2_GRP1_PERIPH_ALL
1087:Drivers/STM32U5xx_HAL_Driver/Inc/stm32u5xx_ll_bus.h ****   *         @arg @ref LL_AHB2_GRP1_PERIPH_GPIOA
1088:Drivers/STM32U5xx_HAL_Driver/Inc/stm32u5xx_ll_bus.h ****   *         @arg @ref LL_AHB2_GRP1_PERIPH_GPIOB
1089:Drivers/STM32U5xx_HAL_Driver/Inc/stm32u5xx_ll_bus.h ****   *         @arg @ref LL_AHB2_GRP1_PERIPH_GPIOC
1090:Drivers/STM32U5xx_HAL_Driver/Inc/stm32u5xx_ll_bus.h ****   *         @arg @ref LL_AHB2_GRP1_PERIPH_GPIOD
1091:Drivers/STM32U5xx_HAL_Driver/Inc/stm32u5xx_ll_bus.h ****   *         @arg @ref LL_AHB2_GRP1_PERIPH_GPIOE
1092:Drivers/STM32U5xx_HAL_Driver/Inc/stm32u5xx_ll_bus.h ****   *         @arg @ref LL_AHB2_GRP1_PERIPH_GPIOF (*)
1093:Drivers/STM32U5xx_HAL_Driver/Inc/stm32u5xx_ll_bus.h ****   *         @arg @ref LL_AHB2_GRP1_PERIPH_GPIOG
1094:Drivers/STM32U5xx_HAL_Driver/Inc/stm32u5xx_ll_bus.h ****   *         @arg @ref LL_AHB2_GRP1_PERIPH_GPIOH
1095:Drivers/STM32U5xx_HAL_Driver/Inc/stm32u5xx_ll_bus.h ****   *         @arg @ref LL_AHB2_GRP1_PERIPH_GPIOI (*)
1096:Drivers/STM32U5xx_HAL_Driver/Inc/stm32u5xx_ll_bus.h ****   *         @arg @ref LL_AHB2_GRP1_PERIPH_GPIOJ (*)
1097:Drivers/STM32U5xx_HAL_Driver/Inc/stm32u5xx_ll_bus.h ****   *         @arg @ref LL_AHB2_GRP1_PERIPH_ADC12
1098:Drivers/STM32U5xx_HAL_Driver/Inc/stm32u5xx_ll_bus.h ****   *         @arg @ref LL_AHB2_GRP1_PERIPH_DCMI_PSSI
1099:Drivers/STM32U5xx_HAL_Driver/Inc/stm32u5xx_ll_bus.h ****   *         @arg @ref LL_AHB2_GRP1_PERIPH_OTG_FS (*)
1100:Drivers/STM32U5xx_HAL_Driver/Inc/stm32u5xx_ll_bus.h ****   *         @arg @ref LL_AHB2_GRP1_PERIPH_OTG_HS (*)
1101:Drivers/STM32U5xx_HAL_Driver/Inc/stm32u5xx_ll_bus.h ****   *         @arg @ref LL_AHB2_GRP1_PERIPH_USBPHY (*)
1102:Drivers/STM32U5xx_HAL_Driver/Inc/stm32u5xx_ll_bus.h ****   *         @arg @ref LL_AHB2_GRP1_PERIPH_AES
1103:Drivers/STM32U5xx_HAL_Driver/Inc/stm32u5xx_ll_bus.h ****   *         @arg @ref LL_AHB2_GRP1_PERIPH_HASH
1104:Drivers/STM32U5xx_HAL_Driver/Inc/stm32u5xx_ll_bus.h ****   *         @arg @ref LL_AHB2_GRP1_PERIPH_RNG
1105:Drivers/STM32U5xx_HAL_Driver/Inc/stm32u5xx_ll_bus.h ****   *         @arg @ref LL_AHB2_GRP1_PERIPH_PKA
1106:Drivers/STM32U5xx_HAL_Driver/Inc/stm32u5xx_ll_bus.h ****   *         @arg @ref LL_AHB2_GRP1_PERIPH_SAES (*)
1107:Drivers/STM32U5xx_HAL_Driver/Inc/stm32u5xx_ll_bus.h ****   *         @arg @ref LL_AHB2_GRP1_PERIPH_OCTOSPIM (*)
1108:Drivers/STM32U5xx_HAL_Driver/Inc/stm32u5xx_ll_bus.h ****   *         @arg @ref LL_AHB2_GRP1_PERIPH_OTFDEC1 (*)
1109:Drivers/STM32U5xx_HAL_Driver/Inc/stm32u5xx_ll_bus.h ****   *         @arg @ref LL_AHB2_GRP1_PERIPH_OTFDEC2 (*)
1110:Drivers/STM32U5xx_HAL_Driver/Inc/stm32u5xx_ll_bus.h ****   *         @arg @ref LL_AHB2_GRP1_PERIPH_SDMMC1
1111:Drivers/STM32U5xx_HAL_Driver/Inc/stm32u5xx_ll_bus.h ****   *         @arg @ref LL_AHB2_GRP1_PERIPH_SDMMC2 (*)
1112:Drivers/STM32U5xx_HAL_Driver/Inc/stm32u5xx_ll_bus.h ****   *
1113:Drivers/STM32U5xx_HAL_Driver/Inc/stm32u5xx_ll_bus.h ****   *        (*) value not defined in all devices.
1114:Drivers/STM32U5xx_HAL_Driver/Inc/stm32u5xx_ll_bus.h ****   * @retval None
1115:Drivers/STM32U5xx_HAL_Driver/Inc/stm32u5xx_ll_bus.h ****   */
1116:Drivers/STM32U5xx_HAL_Driver/Inc/stm32u5xx_ll_bus.h **** __STATIC_INLINE void LL_AHB2_GRP1_ReleaseReset(uint32_t Periphs)
1117:Drivers/STM32U5xx_HAL_Driver/Inc/stm32u5xx_ll_bus.h **** {
1118:Drivers/STM32U5xx_HAL_Driver/Inc/stm32u5xx_ll_bus.h ****   CLEAR_BIT(RCC->AHB2RSTR1, Periphs);
1119:Drivers/STM32U5xx_HAL_Driver/Inc/stm32u5xx_ll_bus.h **** }
1120:Drivers/STM32U5xx_HAL_Driver/Inc/stm32u5xx_ll_bus.h **** 
1121:Drivers/STM32U5xx_HAL_Driver/Inc/stm32u5xx_ll_bus.h **** /**
1122:Drivers/STM32U5xx_HAL_Driver/Inc/stm32u5xx_ll_bus.h ****   * @brief  Enable AHB2 peripheral clocks in Sleep and Stop modes
1123:Drivers/STM32U5xx_HAL_Driver/Inc/stm32u5xx_ll_bus.h ****   * @rmtoll AHB2SMENR1    GPIOASMEN      LL_AHB2_GRP1_EnableClockStopSleep\n
1124:Drivers/STM32U5xx_HAL_Driver/Inc/stm32u5xx_ll_bus.h ****   *         AHB2SMENR1    GPIOBSMEN      LL_AHB2_GRP1_EnableClockStopSleep\n
1125:Drivers/STM32U5xx_HAL_Driver/Inc/stm32u5xx_ll_bus.h ****   *         AHB2SMENR1    GPIOCSMEN      LL_AHB2_GRP1_EnableClockStopSleep\n
1126:Drivers/STM32U5xx_HAL_Driver/Inc/stm32u5xx_ll_bus.h ****   *         AHB2SMENR1    GPIODSMEN      LL_AHB2_GRP1_EnableClockStopSleep\n
1127:Drivers/STM32U5xx_HAL_Driver/Inc/stm32u5xx_ll_bus.h ****   *         AHB2SMENR1    GPIOESMEN      LL_AHB2_GRP1_EnableClockStopSleep\n
1128:Drivers/STM32U5xx_HAL_Driver/Inc/stm32u5xx_ll_bus.h ****   *         AHB2SMENR1    GPIOFSMEN      LL_AHB2_GRP1_EnableClockStopSleep\n
1129:Drivers/STM32U5xx_HAL_Driver/Inc/stm32u5xx_ll_bus.h ****   *         AHB2SMENR1    GPIOGSMEN      LL_AHB2_GRP1_EnableClockStopSleep\n
1130:Drivers/STM32U5xx_HAL_Driver/Inc/stm32u5xx_ll_bus.h ****   *         AHB2SMENR1    GPIOHSMEN      LL_AHB2_GRP1_EnableClockStopSleep\n
1131:Drivers/STM32U5xx_HAL_Driver/Inc/stm32u5xx_ll_bus.h ****   *         AHB2SMENR1    GPIOISMEN      LL_AHB2_GRP1_EnableClockStopSleep\n
1132:Drivers/STM32U5xx_HAL_Driver/Inc/stm32u5xx_ll_bus.h ****   *         AHB2SMENR1    GPIOJSMEN      LL_AHB2_GRP1_EnableClockStopSleep\n
1133:Drivers/STM32U5xx_HAL_Driver/Inc/stm32u5xx_ll_bus.h ****   *         AHB2SMENR1    ADC12SMEN      LL_AHB2_GRP1_EnableClockStopSleep\n
1134:Drivers/STM32U5xx_HAL_Driver/Inc/stm32u5xx_ll_bus.h ****   *         AHB2SMENR1    DCMI_PSSISMEN  LL_AHB2_GRP1_EnableClockStopSleep\n
1135:Drivers/STM32U5xx_HAL_Driver/Inc/stm32u5xx_ll_bus.h ****   *         AHB2SMENR1    OTGSMEN        LL_AHB2_GRP1_EnableClockStopSleep\n
ARM GAS  /tmp/ccyLpKvw.s 			page 35


1136:Drivers/STM32U5xx_HAL_Driver/Inc/stm32u5xx_ll_bus.h ****   *         AHB2ENR1      USBPHYCEN      LL_AHB2_GRP1_EnableClockStopSleep\n
1137:Drivers/STM32U5xx_HAL_Driver/Inc/stm32u5xx_ll_bus.h ****   *         AHB2SMENR1    AESSMEN        LL_AHB2_GRP1_EnableClockStopSleep\n
1138:Drivers/STM32U5xx_HAL_Driver/Inc/stm32u5xx_ll_bus.h ****   *         AHB2SMENR1    HASHSMEN       LL_AHB2_GRP1_EnableClockStopSleep\n
1139:Drivers/STM32U5xx_HAL_Driver/Inc/stm32u5xx_ll_bus.h ****   *         AHB2SMENR1    RNGSMEN        LL_AHB2_GRP1_EnableClockStopSleep\n
1140:Drivers/STM32U5xx_HAL_Driver/Inc/stm32u5xx_ll_bus.h ****   *         AHB2SMENR1    PKASMEN        LL_AHB2_GRP1_EnableClockStopSleep\n
1141:Drivers/STM32U5xx_HAL_Driver/Inc/stm32u5xx_ll_bus.h ****   *         AHB2SMENR1    SAESSMEN       LL_AHB2_GRP1_EnableClockStopSleep\n
1142:Drivers/STM32U5xx_HAL_Driver/Inc/stm32u5xx_ll_bus.h ****   *         AHB2SMENR1    OSPIMSMEN      LL_AHB2_GRP1_EnableClockStopSleep\n
1143:Drivers/STM32U5xx_HAL_Driver/Inc/stm32u5xx_ll_bus.h ****   *         AHB2SMENR1    OTFDEC1SMEN    LL_AHB2_GRP1_EnableClockStopSleep\n
1144:Drivers/STM32U5xx_HAL_Driver/Inc/stm32u5xx_ll_bus.h ****   *         AHB2SMENR1    OTFDEC2SMEN    LL_AHB2_GRP1_EnableClockStopSleep\n
1145:Drivers/STM32U5xx_HAL_Driver/Inc/stm32u5xx_ll_bus.h ****   *         AHB2SMENR1    SDMMC1SMEN     LL_AHB2_GRP1_EnableClockStopSleep\n
1146:Drivers/STM32U5xx_HAL_Driver/Inc/stm32u5xx_ll_bus.h ****   *         AHB2SMENR1    SDMMC2SMEN     LL_AHB2_GRP1_EnableClockStopSleep\n
1147:Drivers/STM32U5xx_HAL_Driver/Inc/stm32u5xx_ll_bus.h ****   *         AHB2SMENR1    SRAM2SMEN      LL_AHB2_GRP1_EnableClockStopSleep\n
1148:Drivers/STM32U5xx_HAL_Driver/Inc/stm32u5xx_ll_bus.h ****   *         AHB2SMENR1    SRAM3SMEN      LL_AHB2_GRP1_EnableClockStopSleep\n
1149:Drivers/STM32U5xx_HAL_Driver/Inc/stm32u5xx_ll_bus.h ****   * @param  Periphs This parameter can be a combination of the following values:
1150:Drivers/STM32U5xx_HAL_Driver/Inc/stm32u5xx_ll_bus.h ****   *         @arg @ref LL_AHB2_GRP1_PERIPH_ALL
1151:Drivers/STM32U5xx_HAL_Driver/Inc/stm32u5xx_ll_bus.h ****   *         @arg @ref LL_AHB2_GRP1_PERIPH_GPIOA
1152:Drivers/STM32U5xx_HAL_Driver/Inc/stm32u5xx_ll_bus.h ****   *         @arg @ref LL_AHB2_GRP1_PERIPH_GPIOB
1153:Drivers/STM32U5xx_HAL_Driver/Inc/stm32u5xx_ll_bus.h ****   *         @arg @ref LL_AHB2_GRP1_PERIPH_GPIOC
1154:Drivers/STM32U5xx_HAL_Driver/Inc/stm32u5xx_ll_bus.h ****   *         @arg @ref LL_AHB2_GRP1_PERIPH_GPIOD
1155:Drivers/STM32U5xx_HAL_Driver/Inc/stm32u5xx_ll_bus.h ****   *         @arg @ref LL_AHB2_GRP1_PERIPH_GPIOE
1156:Drivers/STM32U5xx_HAL_Driver/Inc/stm32u5xx_ll_bus.h ****   *         @arg @ref LL_AHB2_GRP1_PERIPH_GPIOF (*)
1157:Drivers/STM32U5xx_HAL_Driver/Inc/stm32u5xx_ll_bus.h ****   *         @arg @ref LL_AHB2_GRP1_PERIPH_GPIOG
1158:Drivers/STM32U5xx_HAL_Driver/Inc/stm32u5xx_ll_bus.h ****   *         @arg @ref LL_AHB2_GRP1_PERIPH_GPIOH
1159:Drivers/STM32U5xx_HAL_Driver/Inc/stm32u5xx_ll_bus.h ****   *         @arg @ref LL_AHB2_GRP1_PERIPH_GPIOI (*)
1160:Drivers/STM32U5xx_HAL_Driver/Inc/stm32u5xx_ll_bus.h ****   *         @arg @ref LL_AHB2_GRP1_PERIPH_GPIOJ (*)
1161:Drivers/STM32U5xx_HAL_Driver/Inc/stm32u5xx_ll_bus.h ****   *         @arg @ref LL_AHB2_GRP1_PERIPH_ADC12
1162:Drivers/STM32U5xx_HAL_Driver/Inc/stm32u5xx_ll_bus.h ****   *         @arg @ref LL_AHB2_GRP1_PERIPH_DCMI_PSSI
1163:Drivers/STM32U5xx_HAL_Driver/Inc/stm32u5xx_ll_bus.h ****   *         @arg @ref LL_AHB2_GRP1_PERIPH_OTG_FS (*)
1164:Drivers/STM32U5xx_HAL_Driver/Inc/stm32u5xx_ll_bus.h ****   *         @arg @ref LL_AHB2_GRP1_PERIPH_OTG_HS (*)
1165:Drivers/STM32U5xx_HAL_Driver/Inc/stm32u5xx_ll_bus.h ****   *         @arg @ref LL_AHB2_GRP1_PERIPH_USBPHY (*)
1166:Drivers/STM32U5xx_HAL_Driver/Inc/stm32u5xx_ll_bus.h ****   *         @arg @ref LL_AHB2_GRP1_PERIPH_AES
1167:Drivers/STM32U5xx_HAL_Driver/Inc/stm32u5xx_ll_bus.h ****   *         @arg @ref LL_AHB2_GRP1_PERIPH_HASH
1168:Drivers/STM32U5xx_HAL_Driver/Inc/stm32u5xx_ll_bus.h ****   *         @arg @ref LL_AHB2_GRP1_PERIPH_RNG
1169:Drivers/STM32U5xx_HAL_Driver/Inc/stm32u5xx_ll_bus.h ****   *         @arg @ref LL_AHB2_GRP1_PERIPH_PKA
1170:Drivers/STM32U5xx_HAL_Driver/Inc/stm32u5xx_ll_bus.h ****   *         @arg @ref LL_AHB2_GRP1_PERIPH_SAES (*)
1171:Drivers/STM32U5xx_HAL_Driver/Inc/stm32u5xx_ll_bus.h ****   *         @arg @ref LL_AHB2_GRP1_PERIPH_OCTOSPIM (*)
1172:Drivers/STM32U5xx_HAL_Driver/Inc/stm32u5xx_ll_bus.h ****   *         @arg @ref LL_AHB2_GRP1_PERIPH_OTFDEC1 (*)
1173:Drivers/STM32U5xx_HAL_Driver/Inc/stm32u5xx_ll_bus.h ****   *         @arg @ref LL_AHB2_GRP1_PERIPH_OTFDEC2 (*)
1174:Drivers/STM32U5xx_HAL_Driver/Inc/stm32u5xx_ll_bus.h ****   *         @arg @ref LL_AHB2_GRP1_PERIPH_SDMMC1
1175:Drivers/STM32U5xx_HAL_Driver/Inc/stm32u5xx_ll_bus.h ****   *         @arg @ref LL_AHB2_GRP1_PERIPH_SDMMC2 (*)
1176:Drivers/STM32U5xx_HAL_Driver/Inc/stm32u5xx_ll_bus.h ****   *         @arg @ref LL_AHB2_GRP1_PERIPH_SRAM2
1177:Drivers/STM32U5xx_HAL_Driver/Inc/stm32u5xx_ll_bus.h ****   *         @arg @ref LL_AHB2_GRP1_PERIPH_SRAM3 (*)
1178:Drivers/STM32U5xx_HAL_Driver/Inc/stm32u5xx_ll_bus.h ****   *
1179:Drivers/STM32U5xx_HAL_Driver/Inc/stm32u5xx_ll_bus.h ****   *        (*) value not defined in all devices.
1180:Drivers/STM32U5xx_HAL_Driver/Inc/stm32u5xx_ll_bus.h ****   * @retval None
1181:Drivers/STM32U5xx_HAL_Driver/Inc/stm32u5xx_ll_bus.h ****   */
1182:Drivers/STM32U5xx_HAL_Driver/Inc/stm32u5xx_ll_bus.h **** __STATIC_INLINE void LL_AHB2_GRP1_EnableClockStopSleep(uint32_t Periphs)
1183:Drivers/STM32U5xx_HAL_Driver/Inc/stm32u5xx_ll_bus.h **** {
1184:Drivers/STM32U5xx_HAL_Driver/Inc/stm32u5xx_ll_bus.h ****   __IO uint32_t tmpreg;
1185:Drivers/STM32U5xx_HAL_Driver/Inc/stm32u5xx_ll_bus.h ****   SET_BIT(RCC->AHB2SMENR1, Periphs);
1186:Drivers/STM32U5xx_HAL_Driver/Inc/stm32u5xx_ll_bus.h ****   /* Delay after an RCC peripheral clock enabling */
1187:Drivers/STM32U5xx_HAL_Driver/Inc/stm32u5xx_ll_bus.h ****   tmpreg = READ_BIT(RCC->AHB2SMENR1, Periphs);
1188:Drivers/STM32U5xx_HAL_Driver/Inc/stm32u5xx_ll_bus.h ****   (void)tmpreg;
1189:Drivers/STM32U5xx_HAL_Driver/Inc/stm32u5xx_ll_bus.h **** }
1190:Drivers/STM32U5xx_HAL_Driver/Inc/stm32u5xx_ll_bus.h **** 
1191:Drivers/STM32U5xx_HAL_Driver/Inc/stm32u5xx_ll_bus.h **** /**
1192:Drivers/STM32U5xx_HAL_Driver/Inc/stm32u5xx_ll_bus.h ****   * @brief  Check if AHB2 peripheral clocks in Sleep and Stop modes is enabled or not
ARM GAS  /tmp/ccyLpKvw.s 			page 36


1193:Drivers/STM32U5xx_HAL_Driver/Inc/stm32u5xx_ll_bus.h ****   * @rmtoll AHB2SMENR1    GPIOASMEN      LL_AHB2_GRP1_IsEnabledClockStopSleep\n
1194:Drivers/STM32U5xx_HAL_Driver/Inc/stm32u5xx_ll_bus.h ****   *         AHB2SMENR1    GPIOBSMEN      LL_AHB2_GRP1_IsEnabledClockStopSleep\n
1195:Drivers/STM32U5xx_HAL_Driver/Inc/stm32u5xx_ll_bus.h ****   *         AHB2SMENR1    GPIOCSMEN      LL_AHB2_GRP1_IsEnabledClockStopSleep\n
1196:Drivers/STM32U5xx_HAL_Driver/Inc/stm32u5xx_ll_bus.h ****   *         AHB2SMENR1    GPIODSMEN      LL_AHB2_GRP1_IsEnabledClockStopSleep\n
1197:Drivers/STM32U5xx_HAL_Driver/Inc/stm32u5xx_ll_bus.h ****   *         AHB2SMENR1    GPIOESMEN      LL_AHB2_GRP1_IsEnabledClockStopSleep\n
1198:Drivers/STM32U5xx_HAL_Driver/Inc/stm32u5xx_ll_bus.h ****   *         AHB2SMENR1    GPIOFSMEN      LL_AHB2_GRP1_IsEnabledClockStopSleep\n
1199:Drivers/STM32U5xx_HAL_Driver/Inc/stm32u5xx_ll_bus.h ****   *         AHB2SMENR1    GPIOGSMEN      LL_AHB2_GRP1_IsEnabledClockStopSleep\n
1200:Drivers/STM32U5xx_HAL_Driver/Inc/stm32u5xx_ll_bus.h ****   *         AHB2SMENR1    GPIOHSMEN      LL_AHB2_GRP1_IsEnabledClockStopSleep\n
1201:Drivers/STM32U5xx_HAL_Driver/Inc/stm32u5xx_ll_bus.h ****   *         AHB2SMENR1    GPIOISMEN      LL_AHB2_GRP1_IsEnabledClockStopSleep\n
1202:Drivers/STM32U5xx_HAL_Driver/Inc/stm32u5xx_ll_bus.h ****   *         AHB2SMENR1    GPIOJSMEN      LL_AHB2_GRP1_IsEnabledClockStopSleep\n
1203:Drivers/STM32U5xx_HAL_Driver/Inc/stm32u5xx_ll_bus.h ****   *         AHB2SMENR1    ADC12SMEN      LL_AHB2_GRP1_IsEnabledClockStopSleep\n
1204:Drivers/STM32U5xx_HAL_Driver/Inc/stm32u5xx_ll_bus.h ****   *         AHB2SMENR1    DCMI_PSSISMEN  LL_AHB2_GRP1_IsEnabledClockStopSleep\n
1205:Drivers/STM32U5xx_HAL_Driver/Inc/stm32u5xx_ll_bus.h ****   *         AHB2SMENR1    OTGSMEN        LL_AHB2_GRP1_IsEnabledClockStopSleep\n
1206:Drivers/STM32U5xx_HAL_Driver/Inc/stm32u5xx_ll_bus.h ****   *         AHB2SMENR1    USBPHYCMEN     LL_AHB2_GRP1_IsEnabledClockStopSleep\n
1207:Drivers/STM32U5xx_HAL_Driver/Inc/stm32u5xx_ll_bus.h ****   *         AHB2SMENR1    AESSMEN        LL_AHB2_GRP1_IsEnabledClockStopSleep\n
1208:Drivers/STM32U5xx_HAL_Driver/Inc/stm32u5xx_ll_bus.h ****   *         AHB2SMENR1    HASHSMEN       LL_AHB2_GRP1_IsEnabledClockStopSleep\n
1209:Drivers/STM32U5xx_HAL_Driver/Inc/stm32u5xx_ll_bus.h ****   *         AHB2SMENR1    RNGSMEN        LL_AHB2_GRP1_IsEnabledClockStopSleep\n
1210:Drivers/STM32U5xx_HAL_Driver/Inc/stm32u5xx_ll_bus.h ****   *         AHB2SMENR1    PKASMEN        LL_AHB2_GRP1_IsEnabledClockStopSleep\n
1211:Drivers/STM32U5xx_HAL_Driver/Inc/stm32u5xx_ll_bus.h ****   *         AHB2SMENR1    SAESSMEN       LL_AHB2_GRP1_IsEnabledClockStopSleep\n
1212:Drivers/STM32U5xx_HAL_Driver/Inc/stm32u5xx_ll_bus.h ****   *         AHB2SMENR1    OSPIMSMEN      LL_AHB2_GRP1_IsEnabledClockStopSleep\n
1213:Drivers/STM32U5xx_HAL_Driver/Inc/stm32u5xx_ll_bus.h ****   *         AHB2SMENR1    OTFDEC1SMEN    LL_AHB2_GRP1_IsEnabledClockStopSleep\n
1214:Drivers/STM32U5xx_HAL_Driver/Inc/stm32u5xx_ll_bus.h ****   *         AHB2SMENR1    OTFDEC2SMEN    LL_AHB2_GRP1_IsEnabledClockStopSleep\n
1215:Drivers/STM32U5xx_HAL_Driver/Inc/stm32u5xx_ll_bus.h ****   *         AHB2SMENR1    SDMMC1SMEN     LL_AHB2_GRP1_IsEnabledClockStopSleep\n
1216:Drivers/STM32U5xx_HAL_Driver/Inc/stm32u5xx_ll_bus.h ****   *         AHB2SMENR1    SDMMC2SMEN     LL_AHB2_GRP1_IsEnabledClockStopSleep\n
1217:Drivers/STM32U5xx_HAL_Driver/Inc/stm32u5xx_ll_bus.h ****   *         AHB2SMENR1    SRAM2SMEN      LL_AHB2_GRP1_IsEnabledClockStopSleep\n
1218:Drivers/STM32U5xx_HAL_Driver/Inc/stm32u5xx_ll_bus.h ****   *         AHB2SMENR1    SRAM3SMEN      LL_AHB2_GRP1_IsEnabledClockStopSleep\n
1219:Drivers/STM32U5xx_HAL_Driver/Inc/stm32u5xx_ll_bus.h ****   * @param  Periphs This parameter can be a combination of the following values:
1220:Drivers/STM32U5xx_HAL_Driver/Inc/stm32u5xx_ll_bus.h ****   *         @arg @ref LL_AHB2_GRP1_PERIPH_ALL
1221:Drivers/STM32U5xx_HAL_Driver/Inc/stm32u5xx_ll_bus.h ****   *         @arg @ref LL_AHB2_GRP1_PERIPH_GPIOA
1222:Drivers/STM32U5xx_HAL_Driver/Inc/stm32u5xx_ll_bus.h ****   *         @arg @ref LL_AHB2_GRP1_PERIPH_GPIOB
1223:Drivers/STM32U5xx_HAL_Driver/Inc/stm32u5xx_ll_bus.h ****   *         @arg @ref LL_AHB2_GRP1_PERIPH_GPIOC
1224:Drivers/STM32U5xx_HAL_Driver/Inc/stm32u5xx_ll_bus.h ****   *         @arg @ref LL_AHB2_GRP1_PERIPH_GPIOD
1225:Drivers/STM32U5xx_HAL_Driver/Inc/stm32u5xx_ll_bus.h ****   *         @arg @ref LL_AHB2_GRP1_PERIPH_GPIOE
1226:Drivers/STM32U5xx_HAL_Driver/Inc/stm32u5xx_ll_bus.h ****   *         @arg @ref LL_AHB2_GRP1_PERIPH_GPIOF (*)
1227:Drivers/STM32U5xx_HAL_Driver/Inc/stm32u5xx_ll_bus.h ****   *         @arg @ref LL_AHB2_GRP1_PERIPH_GPIOG
1228:Drivers/STM32U5xx_HAL_Driver/Inc/stm32u5xx_ll_bus.h ****   *         @arg @ref LL_AHB2_GRP1_PERIPH_GPIOH
1229:Drivers/STM32U5xx_HAL_Driver/Inc/stm32u5xx_ll_bus.h ****   *         @arg @ref LL_AHB2_GRP1_PERIPH_GPIOI (*)
1230:Drivers/STM32U5xx_HAL_Driver/Inc/stm32u5xx_ll_bus.h ****   *         @arg @ref LL_AHB2_GRP1_PERIPH_GPIOJ (*)
1231:Drivers/STM32U5xx_HAL_Driver/Inc/stm32u5xx_ll_bus.h ****   *         @arg @ref LL_AHB2_GRP1_PERIPH_ADC12
1232:Drivers/STM32U5xx_HAL_Driver/Inc/stm32u5xx_ll_bus.h ****   *         @arg @ref LL_AHB2_GRP1_PERIPH_DCMI_PSSI
1233:Drivers/STM32U5xx_HAL_Driver/Inc/stm32u5xx_ll_bus.h ****   *         @arg @ref LL_AHB2_GRP1_PERIPH_OTG_FS (*)
1234:Drivers/STM32U5xx_HAL_Driver/Inc/stm32u5xx_ll_bus.h ****   *         @arg @ref LL_AHB2_GRP1_PERIPH_OTG_HS (*)
1235:Drivers/STM32U5xx_HAL_Driver/Inc/stm32u5xx_ll_bus.h ****   *         @arg @ref LL_AHB2_GRP1_PERIPH_USBPHY (*)
1236:Drivers/STM32U5xx_HAL_Driver/Inc/stm32u5xx_ll_bus.h ****   *         @arg @ref LL_AHB2_GRP1_PERIPH_AES
1237:Drivers/STM32U5xx_HAL_Driver/Inc/stm32u5xx_ll_bus.h ****   *         @arg @ref LL_AHB2_GRP1_PERIPH_HASH
1238:Drivers/STM32U5xx_HAL_Driver/Inc/stm32u5xx_ll_bus.h ****   *         @arg @ref LL_AHB2_GRP1_PERIPH_RNG
1239:Drivers/STM32U5xx_HAL_Driver/Inc/stm32u5xx_ll_bus.h ****   *         @arg @ref LL_AHB2_GRP1_PERIPH_PKA
1240:Drivers/STM32U5xx_HAL_Driver/Inc/stm32u5xx_ll_bus.h ****   *         @arg @ref LL_AHB2_GRP1_PERIPH_SAES (*)
1241:Drivers/STM32U5xx_HAL_Driver/Inc/stm32u5xx_ll_bus.h ****   *         @arg @ref LL_AHB2_GRP1_PERIPH_OCTOSPIM (*)
1242:Drivers/STM32U5xx_HAL_Driver/Inc/stm32u5xx_ll_bus.h ****   *         @arg @ref LL_AHB2_GRP1_PERIPH_OTFDEC1 (*)
1243:Drivers/STM32U5xx_HAL_Driver/Inc/stm32u5xx_ll_bus.h ****   *         @arg @ref LL_AHB2_GRP1_PERIPH_OTFDEC2 (*)
1244:Drivers/STM32U5xx_HAL_Driver/Inc/stm32u5xx_ll_bus.h ****   *         @arg @ref LL_AHB2_GRP1_PERIPH_SDMMC1
1245:Drivers/STM32U5xx_HAL_Driver/Inc/stm32u5xx_ll_bus.h ****   *         @arg @ref LL_AHB2_GRP1_PERIPH_SDMMC2 (*)
1246:Drivers/STM32U5xx_HAL_Driver/Inc/stm32u5xx_ll_bus.h ****   *         @arg @ref LL_AHB2_GRP1_PERIPH_SRAM2
1247:Drivers/STM32U5xx_HAL_Driver/Inc/stm32u5xx_ll_bus.h ****   *         @arg @ref LL_AHB2_GRP1_PERIPH_SRAM3 (*)
1248:Drivers/STM32U5xx_HAL_Driver/Inc/stm32u5xx_ll_bus.h ****   *
1249:Drivers/STM32U5xx_HAL_Driver/Inc/stm32u5xx_ll_bus.h ****   *        (*) value not defined in all devices.
ARM GAS  /tmp/ccyLpKvw.s 			page 37


1250:Drivers/STM32U5xx_HAL_Driver/Inc/stm32u5xx_ll_bus.h ****   * @retval State of Periphs (1 or 0).
1251:Drivers/STM32U5xx_HAL_Driver/Inc/stm32u5xx_ll_bus.h ****   */
1252:Drivers/STM32U5xx_HAL_Driver/Inc/stm32u5xx_ll_bus.h **** __STATIC_INLINE uint32_t LL_AHB2_GRP1_IsEnabledClockStopSleep(uint32_t Periphs)
1253:Drivers/STM32U5xx_HAL_Driver/Inc/stm32u5xx_ll_bus.h **** {
1254:Drivers/STM32U5xx_HAL_Driver/Inc/stm32u5xx_ll_bus.h ****   return ((READ_BIT(RCC->AHB2SMENR1, Periphs) == Periphs) ? 1UL : 0UL);
1255:Drivers/STM32U5xx_HAL_Driver/Inc/stm32u5xx_ll_bus.h **** }
1256:Drivers/STM32U5xx_HAL_Driver/Inc/stm32u5xx_ll_bus.h **** 
1257:Drivers/STM32U5xx_HAL_Driver/Inc/stm32u5xx_ll_bus.h **** /**
1258:Drivers/STM32U5xx_HAL_Driver/Inc/stm32u5xx_ll_bus.h ****   * @brief  Disable AHB2 peripheral clocks in Sleep and Stop modes
1259:Drivers/STM32U5xx_HAL_Driver/Inc/stm32u5xx_ll_bus.h ****   * @rmtoll AHB2SMENR1    GPIOASMEN      LL_AHB2_GRP1_DisableClockStopSleep\n
1260:Drivers/STM32U5xx_HAL_Driver/Inc/stm32u5xx_ll_bus.h ****   *         AHB2SMENR1    GPIOBSMEN      LL_AHB2_GRP1_DisableClockStopSleep\n
1261:Drivers/STM32U5xx_HAL_Driver/Inc/stm32u5xx_ll_bus.h ****   *         AHB2SMENR1    GPIOCSMEN      LL_AHB2_GRP1_DisableClockStopSleep\n
1262:Drivers/STM32U5xx_HAL_Driver/Inc/stm32u5xx_ll_bus.h ****   *         AHB2SMENR1    GPIODSMEN      LL_AHB2_GRP1_DisableClockStopSleep\n
1263:Drivers/STM32U5xx_HAL_Driver/Inc/stm32u5xx_ll_bus.h ****   *         AHB2SMENR1    GPIOESMEN      LL_AHB2_GRP1_DisableClockStopSleep\n
1264:Drivers/STM32U5xx_HAL_Driver/Inc/stm32u5xx_ll_bus.h ****   *         AHB2SMENR1    GPIOFSMEN      LL_AHB2_GRP1_DisableClockStopSleep\n
1265:Drivers/STM32U5xx_HAL_Driver/Inc/stm32u5xx_ll_bus.h ****   *         AHB2SMENR1    GPIOGSMEN      LL_AHB2_GRP1_DisableClockStopSleep\n
1266:Drivers/STM32U5xx_HAL_Driver/Inc/stm32u5xx_ll_bus.h ****   *         AHB2SMENR1    GPIOHSMEN      LL_AHB2_GRP1_DisableClockStopSleep\n
1267:Drivers/STM32U5xx_HAL_Driver/Inc/stm32u5xx_ll_bus.h ****   *         AHB2SMENR1    GPIOISMEN      LL_AHB2_GRP1_DisableClockStopSleep\n
1268:Drivers/STM32U5xx_HAL_Driver/Inc/stm32u5xx_ll_bus.h ****   *         AHB2SMENR1    GPIOJSMEN      LL_AHB2_GRP1_DisableClockStopSleep\n
1269:Drivers/STM32U5xx_HAL_Driver/Inc/stm32u5xx_ll_bus.h ****   *         AHB2SMENR1    ADC12SMEN      LL_AHB2_GRP1_DisableClockStopSleep\n
1270:Drivers/STM32U5xx_HAL_Driver/Inc/stm32u5xx_ll_bus.h ****   *         AHB2SMENR1    DCMI_PSSISMEN  LL_AHB2_GRP1_DisableClockStopSleep\n
1271:Drivers/STM32U5xx_HAL_Driver/Inc/stm32u5xx_ll_bus.h ****   *         AHB2SMENR1    OTGSMEN        LL_AHB2_GRP1_DisableClockStopSleep\n
1272:Drivers/STM32U5xx_HAL_Driver/Inc/stm32u5xx_ll_bus.h ****   *         AHB2SMENR1    USBPHYCSMEN    LL_AHB2_GRP1_DisableClockStopSleep\n
1273:Drivers/STM32U5xx_HAL_Driver/Inc/stm32u5xx_ll_bus.h ****   *         AHB2SMENR1    AESSMEN        LL_AHB2_GRP1_DisableClockStopSleep\n
1274:Drivers/STM32U5xx_HAL_Driver/Inc/stm32u5xx_ll_bus.h ****   *         AHB2SMENR1    HASHSMEN       LL_AHB2_GRP1_DisableClockStopSleep\n
1275:Drivers/STM32U5xx_HAL_Driver/Inc/stm32u5xx_ll_bus.h ****   *         AHB2SMENR1    RNGSMEN        LL_AHB2_GRP1_DisableClockStopSleep\n
1276:Drivers/STM32U5xx_HAL_Driver/Inc/stm32u5xx_ll_bus.h ****   *         AHB2SMENR1    PKASMEN        LL_AHB2_GRP1_DisableClockStopSleep\n
1277:Drivers/STM32U5xx_HAL_Driver/Inc/stm32u5xx_ll_bus.h ****   *         AHB2SMENR1    SAESSMEN       LL_AHB2_GRP1_DisableClockStopSleep\n
1278:Drivers/STM32U5xx_HAL_Driver/Inc/stm32u5xx_ll_bus.h ****   *         AHB2SMENR1    OSPIMSMEN      LL_AHB2_GRP1_DisableClockStopSleep\n
1279:Drivers/STM32U5xx_HAL_Driver/Inc/stm32u5xx_ll_bus.h ****   *         AHB2SMENR1    OTFDEC1SMEN    LL_AHB2_GRP1_DisableClockStopSleep\n
1280:Drivers/STM32U5xx_HAL_Driver/Inc/stm32u5xx_ll_bus.h ****   *         AHB2SMENR1    OTFDEC2SMEN    LL_AHB2_GRP1_DisableClockStopSleep\n
1281:Drivers/STM32U5xx_HAL_Driver/Inc/stm32u5xx_ll_bus.h ****   *         AHB2SMENR1    SDMMC1SMEN     LL_AHB2_GRP1_DisableClockStopSleep\n
1282:Drivers/STM32U5xx_HAL_Driver/Inc/stm32u5xx_ll_bus.h ****   *         AHB2SMENR1    SDMMC2SMEN     LL_AHB2_GRP1_DisableClockStopSleep\n
1283:Drivers/STM32U5xx_HAL_Driver/Inc/stm32u5xx_ll_bus.h ****   *         AHB2SMENR1    SRAM2SMEN      LL_AHB2_GRP1_DisableClockStopSleep\n
1284:Drivers/STM32U5xx_HAL_Driver/Inc/stm32u5xx_ll_bus.h ****   *         AHB2SMENR1    SRAM3SMEN      LL_AHB2_GRP1_DisableClockStopSleep\n
1285:Drivers/STM32U5xx_HAL_Driver/Inc/stm32u5xx_ll_bus.h ****   * @param  Periphs This parameter can be a combination of the following values:
1286:Drivers/STM32U5xx_HAL_Driver/Inc/stm32u5xx_ll_bus.h ****   *         @arg @ref LL_AHB2_GRP1_PERIPH_ALL
1287:Drivers/STM32U5xx_HAL_Driver/Inc/stm32u5xx_ll_bus.h ****   *         @arg @ref LL_AHB2_GRP1_PERIPH_GPIOA
1288:Drivers/STM32U5xx_HAL_Driver/Inc/stm32u5xx_ll_bus.h ****   *         @arg @ref LL_AHB2_GRP1_PERIPH_GPIOB
1289:Drivers/STM32U5xx_HAL_Driver/Inc/stm32u5xx_ll_bus.h ****   *         @arg @ref LL_AHB2_GRP1_PERIPH_GPIOC
1290:Drivers/STM32U5xx_HAL_Driver/Inc/stm32u5xx_ll_bus.h ****   *         @arg @ref LL_AHB2_GRP1_PERIPH_GPIOD
1291:Drivers/STM32U5xx_HAL_Driver/Inc/stm32u5xx_ll_bus.h ****   *         @arg @ref LL_AHB2_GRP1_PERIPH_GPIOE
1292:Drivers/STM32U5xx_HAL_Driver/Inc/stm32u5xx_ll_bus.h ****   *         @arg @ref LL_AHB2_GRP1_PERIPH_GPIOF (*)
1293:Drivers/STM32U5xx_HAL_Driver/Inc/stm32u5xx_ll_bus.h ****   *         @arg @ref LL_AHB2_GRP1_PERIPH_GPIOG
1294:Drivers/STM32U5xx_HAL_Driver/Inc/stm32u5xx_ll_bus.h ****   *         @arg @ref LL_AHB2_GRP1_PERIPH_GPIOH
1295:Drivers/STM32U5xx_HAL_Driver/Inc/stm32u5xx_ll_bus.h ****   *         @arg @ref LL_AHB2_GRP1_PERIPH_GPIOI (*)
1296:Drivers/STM32U5xx_HAL_Driver/Inc/stm32u5xx_ll_bus.h ****   *         @arg @ref LL_AHB2_GRP1_PERIPH_GPIOJ (*)
1297:Drivers/STM32U5xx_HAL_Driver/Inc/stm32u5xx_ll_bus.h ****   *         @arg @ref LL_AHB2_GRP1_PERIPH_ADC12
1298:Drivers/STM32U5xx_HAL_Driver/Inc/stm32u5xx_ll_bus.h ****   *         @arg @ref LL_AHB2_GRP1_PERIPH_DCMI_PSSI
1299:Drivers/STM32U5xx_HAL_Driver/Inc/stm32u5xx_ll_bus.h ****   *         @arg @ref LL_AHB2_GRP1_PERIPH_OTG_FS (*)
1300:Drivers/STM32U5xx_HAL_Driver/Inc/stm32u5xx_ll_bus.h ****   *         @arg @ref LL_AHB2_GRP1_PERIPH_OTG_HS (*)
1301:Drivers/STM32U5xx_HAL_Driver/Inc/stm32u5xx_ll_bus.h ****   *         @arg @ref LL_AHB2_GRP1_PERIPH_USBPHY (*)
1302:Drivers/STM32U5xx_HAL_Driver/Inc/stm32u5xx_ll_bus.h ****   *         @arg @ref LL_AHB2_GRP1_PERIPH_AES
1303:Drivers/STM32U5xx_HAL_Driver/Inc/stm32u5xx_ll_bus.h ****   *         @arg @ref LL_AHB2_GRP1_PERIPH_HASH
1304:Drivers/STM32U5xx_HAL_Driver/Inc/stm32u5xx_ll_bus.h ****   *         @arg @ref LL_AHB2_GRP1_PERIPH_RNG
1305:Drivers/STM32U5xx_HAL_Driver/Inc/stm32u5xx_ll_bus.h ****   *         @arg @ref LL_AHB2_GRP1_PERIPH_PKA
1306:Drivers/STM32U5xx_HAL_Driver/Inc/stm32u5xx_ll_bus.h ****   *         @arg @ref LL_AHB2_GRP1_PERIPH_SAES (*)
ARM GAS  /tmp/ccyLpKvw.s 			page 38


1307:Drivers/STM32U5xx_HAL_Driver/Inc/stm32u5xx_ll_bus.h ****   *         @arg @ref LL_AHB2_GRP1_PERIPH_OCTOSPIM (*)
1308:Drivers/STM32U5xx_HAL_Driver/Inc/stm32u5xx_ll_bus.h ****   *         @arg @ref LL_AHB2_GRP1_PERIPH_OTFDEC1 (*)
1309:Drivers/STM32U5xx_HAL_Driver/Inc/stm32u5xx_ll_bus.h ****   *         @arg @ref LL_AHB2_GRP1_PERIPH_OTFDEC2 (*)
1310:Drivers/STM32U5xx_HAL_Driver/Inc/stm32u5xx_ll_bus.h ****   *         @arg @ref LL_AHB2_GRP1_PERIPH_SDMMC1
1311:Drivers/STM32U5xx_HAL_Driver/Inc/stm32u5xx_ll_bus.h ****   *         @arg @ref LL_AHB2_GRP1_PERIPH_SDMMC2 (*)
1312:Drivers/STM32U5xx_HAL_Driver/Inc/stm32u5xx_ll_bus.h ****   *         @arg @ref LL_AHB2_GRP1_PERIPH_SRAM2
1313:Drivers/STM32U5xx_HAL_Driver/Inc/stm32u5xx_ll_bus.h ****   *         @arg @ref LL_AHB2_GRP1_PERIPH_SRAM3 (*)
1314:Drivers/STM32U5xx_HAL_Driver/Inc/stm32u5xx_ll_bus.h ****   *
1315:Drivers/STM32U5xx_HAL_Driver/Inc/stm32u5xx_ll_bus.h ****   *        (*) value not defined in all devices.
1316:Drivers/STM32U5xx_HAL_Driver/Inc/stm32u5xx_ll_bus.h ****   * @retval None
1317:Drivers/STM32U5xx_HAL_Driver/Inc/stm32u5xx_ll_bus.h ****   */
1318:Drivers/STM32U5xx_HAL_Driver/Inc/stm32u5xx_ll_bus.h **** __STATIC_INLINE void LL_AHB2_GRP1_DisableClockStopSleep(uint32_t Periphs)
1319:Drivers/STM32U5xx_HAL_Driver/Inc/stm32u5xx_ll_bus.h **** {
1320:Drivers/STM32U5xx_HAL_Driver/Inc/stm32u5xx_ll_bus.h ****   CLEAR_BIT(RCC->AHB2SMENR1, Periphs);
1321:Drivers/STM32U5xx_HAL_Driver/Inc/stm32u5xx_ll_bus.h **** }
1322:Drivers/STM32U5xx_HAL_Driver/Inc/stm32u5xx_ll_bus.h **** 
1323:Drivers/STM32U5xx_HAL_Driver/Inc/stm32u5xx_ll_bus.h **** /**
1324:Drivers/STM32U5xx_HAL_Driver/Inc/stm32u5xx_ll_bus.h ****   * @}
1325:Drivers/STM32U5xx_HAL_Driver/Inc/stm32u5xx_ll_bus.h ****   */
1326:Drivers/STM32U5xx_HAL_Driver/Inc/stm32u5xx_ll_bus.h **** 
1327:Drivers/STM32U5xx_HAL_Driver/Inc/stm32u5xx_ll_bus.h **** /** @defgroup BUS_LL_EF_AHB3 AHB3
1328:Drivers/STM32U5xx_HAL_Driver/Inc/stm32u5xx_ll_bus.h ****   * @{
1329:Drivers/STM32U5xx_HAL_Driver/Inc/stm32u5xx_ll_bus.h ****   */
1330:Drivers/STM32U5xx_HAL_Driver/Inc/stm32u5xx_ll_bus.h **** 
1331:Drivers/STM32U5xx_HAL_Driver/Inc/stm32u5xx_ll_bus.h **** /**
1332:Drivers/STM32U5xx_HAL_Driver/Inc/stm32u5xx_ll_bus.h ****   * @brief  Enable AHB3 bus clock.
1333:Drivers/STM32U5xx_HAL_Driver/Inc/stm32u5xx_ll_bus.h ****   * @rmtoll CFGR2    AHB3DIS     LL_AHB3_GRP1_EnableBusClock
1334:Drivers/STM32U5xx_HAL_Driver/Inc/stm32u5xx_ll_bus.h ****   * @retval None
1335:Drivers/STM32U5xx_HAL_Driver/Inc/stm32u5xx_ll_bus.h ****   */
1336:Drivers/STM32U5xx_HAL_Driver/Inc/stm32u5xx_ll_bus.h **** __STATIC_INLINE void LL_AHB3_GRP1_EnableBusClock(void)
1337:Drivers/STM32U5xx_HAL_Driver/Inc/stm32u5xx_ll_bus.h **** {
1338:Drivers/STM32U5xx_HAL_Driver/Inc/stm32u5xx_ll_bus.h ****   __IO uint32_t tmpreg;
1339:Drivers/STM32U5xx_HAL_Driver/Inc/stm32u5xx_ll_bus.h ****   CLEAR_BIT(RCC->CFGR3, RCC_CFGR3_AHB3DIS);
1340:Drivers/STM32U5xx_HAL_Driver/Inc/stm32u5xx_ll_bus.h ****   tmpreg = READ_BIT(RCC->CFGR3, RCC_CFGR3_AHB3DIS);
1341:Drivers/STM32U5xx_HAL_Driver/Inc/stm32u5xx_ll_bus.h ****   (void)(tmpreg);
1342:Drivers/STM32U5xx_HAL_Driver/Inc/stm32u5xx_ll_bus.h **** }
1343:Drivers/STM32U5xx_HAL_Driver/Inc/stm32u5xx_ll_bus.h **** 
1344:Drivers/STM32U5xx_HAL_Driver/Inc/stm32u5xx_ll_bus.h **** /**
1345:Drivers/STM32U5xx_HAL_Driver/Inc/stm32u5xx_ll_bus.h ****   * @brief  Enable AHB3 peripherals clock.
1346:Drivers/STM32U5xx_HAL_Driver/Inc/stm32u5xx_ll_bus.h ****   * @rmtoll AHB3ENR  LPGPIO1EN     LL_AHB3_GRP1_EnableClock\n
1347:Drivers/STM32U5xx_HAL_Driver/Inc/stm32u5xx_ll_bus.h ****   *         AHB3ENR  PWREN         LL_AHB3_GRP1_EnableClock\n
1348:Drivers/STM32U5xx_HAL_Driver/Inc/stm32u5xx_ll_bus.h ****   *         AHB3ENR  ADC4EN        LL_AHB3_GRP1_EnableClock\n
1349:Drivers/STM32U5xx_HAL_Driver/Inc/stm32u5xx_ll_bus.h ****   *         AHB3ENR  DAC1EN        LL_AHB3_GRP1_EnableClock\n
1350:Drivers/STM32U5xx_HAL_Driver/Inc/stm32u5xx_ll_bus.h ****   *         AHB3ENR  LPDMA1EN      LL_AHB3_GRP1_EnableClock\n
1351:Drivers/STM32U5xx_HAL_Driver/Inc/stm32u5xx_ll_bus.h ****   *         AHB3ENR  ADF1EN        LL_AHB3_GRP1_EnableClock\n
1352:Drivers/STM32U5xx_HAL_Driver/Inc/stm32u5xx_ll_bus.h ****   *         AHB3ENR  GTZC2EN       LL_AHB3_GRP1_EnableClock\n
1353:Drivers/STM32U5xx_HAL_Driver/Inc/stm32u5xx_ll_bus.h ****   *         AHB3ENR  SRAM4EN       LL_AHB3_GRP1_EnableClock\n
1354:Drivers/STM32U5xx_HAL_Driver/Inc/stm32u5xx_ll_bus.h ****   * @param  Periphs This parameter can be a combination of the following values:
1355:Drivers/STM32U5xx_HAL_Driver/Inc/stm32u5xx_ll_bus.h ****   *         @arg @ref LL_AHB3_GRP1_PERIPH_ALL
1356:Drivers/STM32U5xx_HAL_Driver/Inc/stm32u5xx_ll_bus.h ****   *         @arg @ref LL_AHB3_GRP1_PERIPH_LPGPIO1
1357:Drivers/STM32U5xx_HAL_Driver/Inc/stm32u5xx_ll_bus.h ****   *         @arg @ref LL_AHB3_GRP1_PERIPH_PWR
1358:Drivers/STM32U5xx_HAL_Driver/Inc/stm32u5xx_ll_bus.h ****   *         @arg @ref LL_AHB3_GRP1_PERIPH_ADC4
1359:Drivers/STM32U5xx_HAL_Driver/Inc/stm32u5xx_ll_bus.h ****   *         @arg @ref LL_AHB3_GRP1_PERIPH_DAC1
1360:Drivers/STM32U5xx_HAL_Driver/Inc/stm32u5xx_ll_bus.h ****   *         @arg @ref LL_AHB3_GRP1_PERIPH_LPDMA1
1361:Drivers/STM32U5xx_HAL_Driver/Inc/stm32u5xx_ll_bus.h ****   *         @arg @ref LL_AHB3_GRP1_PERIPH_ADF1
1362:Drivers/STM32U5xx_HAL_Driver/Inc/stm32u5xx_ll_bus.h ****   *         @arg @ref LL_AHB3_GRP1_PERIPH_GTZC2
1363:Drivers/STM32U5xx_HAL_Driver/Inc/stm32u5xx_ll_bus.h ****   *         @arg @ref LL_AHB3_GRP1_PERIPH_SRAM4
ARM GAS  /tmp/ccyLpKvw.s 			page 39


1364:Drivers/STM32U5xx_HAL_Driver/Inc/stm32u5xx_ll_bus.h ****   * @retval None
1365:Drivers/STM32U5xx_HAL_Driver/Inc/stm32u5xx_ll_bus.h ****   */
1366:Drivers/STM32U5xx_HAL_Driver/Inc/stm32u5xx_ll_bus.h **** __STATIC_INLINE void LL_AHB3_GRP1_EnableClock(uint32_t Periphs)
1367:Drivers/STM32U5xx_HAL_Driver/Inc/stm32u5xx_ll_bus.h **** {
1368:Drivers/STM32U5xx_HAL_Driver/Inc/stm32u5xx_ll_bus.h ****   __IO uint32_t tmpreg;
1369:Drivers/STM32U5xx_HAL_Driver/Inc/stm32u5xx_ll_bus.h ****   SET_BIT(RCC->AHB3ENR, Periphs);
1370:Drivers/STM32U5xx_HAL_Driver/Inc/stm32u5xx_ll_bus.h ****   /* Delay after an RCC peripheral clock enabling */
1371:Drivers/STM32U5xx_HAL_Driver/Inc/stm32u5xx_ll_bus.h ****   tmpreg = READ_BIT(RCC->AHB3ENR, Periphs);
1372:Drivers/STM32U5xx_HAL_Driver/Inc/stm32u5xx_ll_bus.h ****   (void)tmpreg;
1373:Drivers/STM32U5xx_HAL_Driver/Inc/stm32u5xx_ll_bus.h **** }
1374:Drivers/STM32U5xx_HAL_Driver/Inc/stm32u5xx_ll_bus.h **** 
1375:Drivers/STM32U5xx_HAL_Driver/Inc/stm32u5xx_ll_bus.h **** /**
1376:Drivers/STM32U5xx_HAL_Driver/Inc/stm32u5xx_ll_bus.h ****   * @brief  Check if AHB3 peripheral clock is enabled or not
1377:Drivers/STM32U5xx_HAL_Driver/Inc/stm32u5xx_ll_bus.h ****   * @rmtoll AHB3ENR  LPGPIO1EN     LL_AHB3_GRP1_IsEnabledClock\n
1378:Drivers/STM32U5xx_HAL_Driver/Inc/stm32u5xx_ll_bus.h ****   *         AHB3ENR  PWREN         LL_AHB3_GRP1_IsEnabledClock\n
1379:Drivers/STM32U5xx_HAL_Driver/Inc/stm32u5xx_ll_bus.h ****   *         AHB3ENR  ADC4EN        LL_AHB3_GRP1_IsEnabledClock\n
1380:Drivers/STM32U5xx_HAL_Driver/Inc/stm32u5xx_ll_bus.h ****   *         AHB3ENR  DAC1EN        LL_AHB3_GRP1_IsEnabledClock\n
1381:Drivers/STM32U5xx_HAL_Driver/Inc/stm32u5xx_ll_bus.h ****   *         AHB3ENR  LPDMA1EN      LL_AHB3_GRP1_IsEnabledClock\n
1382:Drivers/STM32U5xx_HAL_Driver/Inc/stm32u5xx_ll_bus.h ****   *         AHB3ENR  ADF1EN        LL_AHB3_GRP1_IsEnabledClock\n
1383:Drivers/STM32U5xx_HAL_Driver/Inc/stm32u5xx_ll_bus.h ****   *         AHB3ENR  GTZC2EN       LL_AHB3_GRP1_IsEnabledClock\n
1384:Drivers/STM32U5xx_HAL_Driver/Inc/stm32u5xx_ll_bus.h ****   *         AHB3ENR  SRAM4EN       LL_AHB3_GRP1_IsEnabledClock\n
1385:Drivers/STM32U5xx_HAL_Driver/Inc/stm32u5xx_ll_bus.h ****   * @param  Periphs This parameter can be a combination of the following values:
1386:Drivers/STM32U5xx_HAL_Driver/Inc/stm32u5xx_ll_bus.h ****   *         @arg @ref LL_AHB3_GRP1_PERIPH_ALL
1387:Drivers/STM32U5xx_HAL_Driver/Inc/stm32u5xx_ll_bus.h ****   *         @arg @ref LL_AHB3_GRP1_PERIPH_LPGPIO1
1388:Drivers/STM32U5xx_HAL_Driver/Inc/stm32u5xx_ll_bus.h ****   *         @arg @ref LL_AHB3_GRP1_PERIPH_PWR
1389:Drivers/STM32U5xx_HAL_Driver/Inc/stm32u5xx_ll_bus.h ****   *         @arg @ref LL_AHB3_GRP1_PERIPH_ADC4
1390:Drivers/STM32U5xx_HAL_Driver/Inc/stm32u5xx_ll_bus.h ****   *         @arg @ref LL_AHB3_GRP1_PERIPH_DAC1
1391:Drivers/STM32U5xx_HAL_Driver/Inc/stm32u5xx_ll_bus.h ****   *         @arg @ref LL_AHB3_GRP1_PERIPH_LPDMA1
1392:Drivers/STM32U5xx_HAL_Driver/Inc/stm32u5xx_ll_bus.h ****   *         @arg @ref LL_AHB3_GRP1_PERIPH_ADF1
1393:Drivers/STM32U5xx_HAL_Driver/Inc/stm32u5xx_ll_bus.h ****   *         @arg @ref LL_AHB3_GRP1_PERIPH_GTZC2
1394:Drivers/STM32U5xx_HAL_Driver/Inc/stm32u5xx_ll_bus.h ****   *         @arg @ref LL_AHB3_GRP1_PERIPH_SRAM4
1395:Drivers/STM32U5xx_HAL_Driver/Inc/stm32u5xx_ll_bus.h ****   * @retval State of Periphs (1 or 0).
1396:Drivers/STM32U5xx_HAL_Driver/Inc/stm32u5xx_ll_bus.h ****   */
1397:Drivers/STM32U5xx_HAL_Driver/Inc/stm32u5xx_ll_bus.h **** __STATIC_INLINE uint32_t LL_AHB3_GRP1_IsEnabledClock(uint32_t Periphs)
1398:Drivers/STM32U5xx_HAL_Driver/Inc/stm32u5xx_ll_bus.h **** {
1399:Drivers/STM32U5xx_HAL_Driver/Inc/stm32u5xx_ll_bus.h ****   return ((READ_BIT(RCC->AHB3ENR, Periphs) == Periphs) ? 1UL : 0UL);
1400:Drivers/STM32U5xx_HAL_Driver/Inc/stm32u5xx_ll_bus.h **** }
1401:Drivers/STM32U5xx_HAL_Driver/Inc/stm32u5xx_ll_bus.h **** 
1402:Drivers/STM32U5xx_HAL_Driver/Inc/stm32u5xx_ll_bus.h **** /**
1403:Drivers/STM32U5xx_HAL_Driver/Inc/stm32u5xx_ll_bus.h ****   * @brief  Disable AHB3 bus clock.
1404:Drivers/STM32U5xx_HAL_Driver/Inc/stm32u5xx_ll_bus.h ****   * @rmtoll CFGR2    AHB3DIS     LL_AHB3_GRP1_DisableBusClock
1405:Drivers/STM32U5xx_HAL_Driver/Inc/stm32u5xx_ll_bus.h ****   * @retval None
1406:Drivers/STM32U5xx_HAL_Driver/Inc/stm32u5xx_ll_bus.h ****   */
1407:Drivers/STM32U5xx_HAL_Driver/Inc/stm32u5xx_ll_bus.h **** __STATIC_INLINE void LL_AHB3_GRP1_DisableBusClock(void)
1408:Drivers/STM32U5xx_HAL_Driver/Inc/stm32u5xx_ll_bus.h **** {
1409:Drivers/STM32U5xx_HAL_Driver/Inc/stm32u5xx_ll_bus.h ****   SET_BIT(RCC->CFGR3, RCC_CFGR3_AHB3DIS);
1410:Drivers/STM32U5xx_HAL_Driver/Inc/stm32u5xx_ll_bus.h **** }
1411:Drivers/STM32U5xx_HAL_Driver/Inc/stm32u5xx_ll_bus.h **** 
1412:Drivers/STM32U5xx_HAL_Driver/Inc/stm32u5xx_ll_bus.h **** /**
1413:Drivers/STM32U5xx_HAL_Driver/Inc/stm32u5xx_ll_bus.h ****   * @brief  Disable AHB3 peripherals clock.
1414:Drivers/STM32U5xx_HAL_Driver/Inc/stm32u5xx_ll_bus.h ****   * @rmtoll AHB3ENR  LPGPIO1EN     LL_AHB3_GRP1_DisableClock\n
1415:Drivers/STM32U5xx_HAL_Driver/Inc/stm32u5xx_ll_bus.h ****   *         AHB3ENR  PWREN         LL_AHB3_GRP1_DisableClock\n
1416:Drivers/STM32U5xx_HAL_Driver/Inc/stm32u5xx_ll_bus.h ****   *         AHB3ENR  ADC4EN        LL_AHB3_GRP1_DisableClock\n
1417:Drivers/STM32U5xx_HAL_Driver/Inc/stm32u5xx_ll_bus.h ****   *         AHB3ENR  DAC1EN        LL_AHB3_GRP1_DisableClock\n
1418:Drivers/STM32U5xx_HAL_Driver/Inc/stm32u5xx_ll_bus.h ****   *         AHB3ENR  LPDMA1EN      LL_AHB3_GRP1_DisableClock\n
1419:Drivers/STM32U5xx_HAL_Driver/Inc/stm32u5xx_ll_bus.h ****   *         AHB3ENR  ADF1EN        LL_AHB3_GRP1_DisableClock\n
1420:Drivers/STM32U5xx_HAL_Driver/Inc/stm32u5xx_ll_bus.h ****   *         AHB3ENR  GTZC2EN       LL_AHB3_GRP1_DisableClock\n
ARM GAS  /tmp/ccyLpKvw.s 			page 40


1421:Drivers/STM32U5xx_HAL_Driver/Inc/stm32u5xx_ll_bus.h ****   *         AHB3ENR  SRAM4EN       LL_AHB3_GRP1_DisableClock\n
1422:Drivers/STM32U5xx_HAL_Driver/Inc/stm32u5xx_ll_bus.h ****   * @param  Periphs This parameter can be a combination of the following values:
1423:Drivers/STM32U5xx_HAL_Driver/Inc/stm32u5xx_ll_bus.h ****   *         @arg @ref LL_AHB3_GRP1_PERIPH_ALL
1424:Drivers/STM32U5xx_HAL_Driver/Inc/stm32u5xx_ll_bus.h ****   *         @arg @ref LL_AHB3_GRP1_PERIPH_LPGPIO1
1425:Drivers/STM32U5xx_HAL_Driver/Inc/stm32u5xx_ll_bus.h ****   *         @arg @ref LL_AHB3_GRP1_PERIPH_PWR
1426:Drivers/STM32U5xx_HAL_Driver/Inc/stm32u5xx_ll_bus.h ****   *         @arg @ref LL_AHB3_GRP1_PERIPH_ADC4
1427:Drivers/STM32U5xx_HAL_Driver/Inc/stm32u5xx_ll_bus.h ****   *         @arg @ref LL_AHB3_GRP1_PERIPH_DAC1
1428:Drivers/STM32U5xx_HAL_Driver/Inc/stm32u5xx_ll_bus.h ****   *         @arg @ref LL_AHB3_GRP1_PERIPH_LPDMA1
1429:Drivers/STM32U5xx_HAL_Driver/Inc/stm32u5xx_ll_bus.h ****   *         @arg @ref LL_AHB3_GRP1_PERIPH_ADF1
1430:Drivers/STM32U5xx_HAL_Driver/Inc/stm32u5xx_ll_bus.h ****   *         @arg @ref LL_AHB3_GRP1_PERIPH_GTZC2
1431:Drivers/STM32U5xx_HAL_Driver/Inc/stm32u5xx_ll_bus.h ****   *         @arg @ref LL_AHB3_GRP1_PERIPH_SRAM4
1432:Drivers/STM32U5xx_HAL_Driver/Inc/stm32u5xx_ll_bus.h ****   * @retval None
1433:Drivers/STM32U5xx_HAL_Driver/Inc/stm32u5xx_ll_bus.h ****   */
1434:Drivers/STM32U5xx_HAL_Driver/Inc/stm32u5xx_ll_bus.h **** __STATIC_INLINE void LL_AHB3_GRP1_DisableClock(uint32_t Periphs)
1435:Drivers/STM32U5xx_HAL_Driver/Inc/stm32u5xx_ll_bus.h **** {
1436:Drivers/STM32U5xx_HAL_Driver/Inc/stm32u5xx_ll_bus.h ****   CLEAR_BIT(RCC->AHB3ENR, Periphs);
1437:Drivers/STM32U5xx_HAL_Driver/Inc/stm32u5xx_ll_bus.h **** }
1438:Drivers/STM32U5xx_HAL_Driver/Inc/stm32u5xx_ll_bus.h **** 
1439:Drivers/STM32U5xx_HAL_Driver/Inc/stm32u5xx_ll_bus.h **** /**
1440:Drivers/STM32U5xx_HAL_Driver/Inc/stm32u5xx_ll_bus.h ****   * @brief  Force AHB3 peripherals reset.
1441:Drivers/STM32U5xx_HAL_Driver/Inc/stm32u5xx_ll_bus.h ****   * @rmtoll AHB3RSTR  LPGPIO1RST     LL_AHB3_GRP1_ForceReset\n
1442:Drivers/STM32U5xx_HAL_Driver/Inc/stm32u5xx_ll_bus.h ****   *         AHB3RSTR  PWRRST         LL_AHB3_GRP1_ForceReset\n
1443:Drivers/STM32U5xx_HAL_Driver/Inc/stm32u5xx_ll_bus.h ****   *         AHB3RSTR  ADC4RST        LL_AHB3_GRP1_ForceReset\n
1444:Drivers/STM32U5xx_HAL_Driver/Inc/stm32u5xx_ll_bus.h ****   *         AHB3RSTR  DAC1RST        LL_AHB3_GRP1_ForceReset\n
1445:Drivers/STM32U5xx_HAL_Driver/Inc/stm32u5xx_ll_bus.h ****   *         AHB3RSTR  LPDMA1RST      LL_AHB3_GRP1_ForceReset\n
1446:Drivers/STM32U5xx_HAL_Driver/Inc/stm32u5xx_ll_bus.h ****   *         AHB3RSTR  ADF1RST        LL_AHB3_GRP1_ForceReset\n
1447:Drivers/STM32U5xx_HAL_Driver/Inc/stm32u5xx_ll_bus.h ****   *         AHB3RSTR  GTZC2RST       LL_AHB3_GRP1_ForceReset\n
1448:Drivers/STM32U5xx_HAL_Driver/Inc/stm32u5xx_ll_bus.h ****   * @param  Periphs This parameter can be a combination of the following values:
1449:Drivers/STM32U5xx_HAL_Driver/Inc/stm32u5xx_ll_bus.h ****   *         @arg @ref LL_AHB3_GRP1_PERIPH_ALL
1450:Drivers/STM32U5xx_HAL_Driver/Inc/stm32u5xx_ll_bus.h ****   *         @arg @ref LL_AHB3_GRP1_PERIPH_LPGPIO1
1451:Drivers/STM32U5xx_HAL_Driver/Inc/stm32u5xx_ll_bus.h ****   *         @arg @ref LL_AHB3_GRP1_PERIPH_PWR
1452:Drivers/STM32U5xx_HAL_Driver/Inc/stm32u5xx_ll_bus.h ****   *         @arg @ref LL_AHB3_GRP1_PERIPH_ADC4
1453:Drivers/STM32U5xx_HAL_Driver/Inc/stm32u5xx_ll_bus.h ****   *         @arg @ref LL_AHB3_GRP1_PERIPH_DAC1
1454:Drivers/STM32U5xx_HAL_Driver/Inc/stm32u5xx_ll_bus.h ****   *         @arg @ref LL_AHB3_GRP1_PERIPH_LPDMA1
1455:Drivers/STM32U5xx_HAL_Driver/Inc/stm32u5xx_ll_bus.h ****   *         @arg @ref LL_AHB3_GRP1_PERIPH_ADF1
1456:Drivers/STM32U5xx_HAL_Driver/Inc/stm32u5xx_ll_bus.h ****   *         @arg @ref LL_AHB3_GRP1_PERIPH_GTZC2
1457:Drivers/STM32U5xx_HAL_Driver/Inc/stm32u5xx_ll_bus.h ****   * @retval None
1458:Drivers/STM32U5xx_HAL_Driver/Inc/stm32u5xx_ll_bus.h ****   */
1459:Drivers/STM32U5xx_HAL_Driver/Inc/stm32u5xx_ll_bus.h **** __STATIC_INLINE void LL_AHB3_GRP1_ForceReset(uint32_t Periphs)
1460:Drivers/STM32U5xx_HAL_Driver/Inc/stm32u5xx_ll_bus.h **** {
1461:Drivers/STM32U5xx_HAL_Driver/Inc/stm32u5xx_ll_bus.h ****   SET_BIT(RCC->AHB3RSTR, Periphs);
1462:Drivers/STM32U5xx_HAL_Driver/Inc/stm32u5xx_ll_bus.h **** }
1463:Drivers/STM32U5xx_HAL_Driver/Inc/stm32u5xx_ll_bus.h **** 
1464:Drivers/STM32U5xx_HAL_Driver/Inc/stm32u5xx_ll_bus.h **** /**
1465:Drivers/STM32U5xx_HAL_Driver/Inc/stm32u5xx_ll_bus.h ****   * @brief  Release AHB3 peripherals reset.
1466:Drivers/STM32U5xx_HAL_Driver/Inc/stm32u5xx_ll_bus.h ****   * @rmtoll AHB3RSTR  LPGPIO1RST     LL_AHB3_GRP1_ReleaseReset\n
1467:Drivers/STM32U5xx_HAL_Driver/Inc/stm32u5xx_ll_bus.h ****   *         AHB3RSTR  PWRRST         LL_AHB3_GRP1_ReleaseReset\n
1468:Drivers/STM32U5xx_HAL_Driver/Inc/stm32u5xx_ll_bus.h ****   *         AHB3RSTR  ADC4RST        LL_AHB3_GRP1_ReleaseReset\n
1469:Drivers/STM32U5xx_HAL_Driver/Inc/stm32u5xx_ll_bus.h ****   *         AHB3RSTR  DAC1RST        LL_AHB3_GRP1_ReleaseReset\n
1470:Drivers/STM32U5xx_HAL_Driver/Inc/stm32u5xx_ll_bus.h ****   *         AHB3RSTR  LPDMA1RST      LL_AHB3_GRP1_ReleaseReset\n
1471:Drivers/STM32U5xx_HAL_Driver/Inc/stm32u5xx_ll_bus.h ****   *         AHB3RSTR  ADF1RST        LL_AHB3_GRP1_ReleaseReset\n
1472:Drivers/STM32U5xx_HAL_Driver/Inc/stm32u5xx_ll_bus.h ****   *         AHB3RSTR  GTZC2RST       LL_AHB3_GRP1_ReleaseReset\n
1473:Drivers/STM32U5xx_HAL_Driver/Inc/stm32u5xx_ll_bus.h ****   * @param  Periphs This parameter can be a combination of the following values:
1474:Drivers/STM32U5xx_HAL_Driver/Inc/stm32u5xx_ll_bus.h ****   *         @arg @ref LL_AHB3_GRP1_PERIPH_ALL
1475:Drivers/STM32U5xx_HAL_Driver/Inc/stm32u5xx_ll_bus.h ****   *         @arg @ref LL_AHB3_GRP1_PERIPH_LPGPIO1
1476:Drivers/STM32U5xx_HAL_Driver/Inc/stm32u5xx_ll_bus.h ****   *         @arg @ref LL_AHB3_GRP1_PERIPH_PWR
1477:Drivers/STM32U5xx_HAL_Driver/Inc/stm32u5xx_ll_bus.h ****   *         @arg @ref LL_AHB3_GRP1_PERIPH_ADC4
ARM GAS  /tmp/ccyLpKvw.s 			page 41


1478:Drivers/STM32U5xx_HAL_Driver/Inc/stm32u5xx_ll_bus.h ****   *         @arg @ref LL_AHB3_GRP1_PERIPH_DAC1
1479:Drivers/STM32U5xx_HAL_Driver/Inc/stm32u5xx_ll_bus.h ****   *         @arg @ref LL_AHB3_GRP1_PERIPH_LPDMA1
1480:Drivers/STM32U5xx_HAL_Driver/Inc/stm32u5xx_ll_bus.h ****   *         @arg @ref LL_AHB3_GRP1_PERIPH_ADF1
1481:Drivers/STM32U5xx_HAL_Driver/Inc/stm32u5xx_ll_bus.h ****   *         @arg @ref LL_AHB3_GRP1_PERIPH_GTZC2
1482:Drivers/STM32U5xx_HAL_Driver/Inc/stm32u5xx_ll_bus.h ****   * @retval None
1483:Drivers/STM32U5xx_HAL_Driver/Inc/stm32u5xx_ll_bus.h ****   */
1484:Drivers/STM32U5xx_HAL_Driver/Inc/stm32u5xx_ll_bus.h **** __STATIC_INLINE void LL_AHB3_GRP1_ReleaseReset(uint32_t Periphs)
1485:Drivers/STM32U5xx_HAL_Driver/Inc/stm32u5xx_ll_bus.h **** {
1486:Drivers/STM32U5xx_HAL_Driver/Inc/stm32u5xx_ll_bus.h ****   CLEAR_BIT(RCC->AHB3RSTR, Periphs);
1487:Drivers/STM32U5xx_HAL_Driver/Inc/stm32u5xx_ll_bus.h **** }
1488:Drivers/STM32U5xx_HAL_Driver/Inc/stm32u5xx_ll_bus.h **** 
1489:Drivers/STM32U5xx_HAL_Driver/Inc/stm32u5xx_ll_bus.h **** /**
1490:Drivers/STM32U5xx_HAL_Driver/Inc/stm32u5xx_ll_bus.h ****   * @brief  Enable AHB3 peripheral clocks in Sleep and Stop modes
1491:Drivers/STM32U5xx_HAL_Driver/Inc/stm32u5xx_ll_bus.h ****   * @rmtoll AHB3SMENR  LPGPIO1SMEN    LL_AHB3_GRP1_EnableClockStopSleep\n
1492:Drivers/STM32U5xx_HAL_Driver/Inc/stm32u5xx_ll_bus.h ****   *         AHB3SMENR  PWRSMEN        LL_AHB3_GRP1_EnableClockStopSleep\n
1493:Drivers/STM32U5xx_HAL_Driver/Inc/stm32u5xx_ll_bus.h ****   *         AHB3SMENR  ADC4SMEN       LL_AHB3_GRP1_EnableClockStopSleep\n
1494:Drivers/STM32U5xx_HAL_Driver/Inc/stm32u5xx_ll_bus.h ****   *         AHB3SMENR  DAC1SMEN       LL_AHB3_GRP1_EnableClockStopSleep\n
1495:Drivers/STM32U5xx_HAL_Driver/Inc/stm32u5xx_ll_bus.h ****   *         AHB3SMENR  LPDMA1SMEN     LL_AHB3_GRP1_EnableClockStopSleep\n
1496:Drivers/STM32U5xx_HAL_Driver/Inc/stm32u5xx_ll_bus.h ****   *         AHB3SMENR  ADF1SMEN       LL_AHB3_GRP1_EnableClockStopSleep\n
1497:Drivers/STM32U5xx_HAL_Driver/Inc/stm32u5xx_ll_bus.h ****   *         AHB3SMENR  GTZC2SMEN      LL_AHB3_GRP1_EnableClockStopSleep\n
1498:Drivers/STM32U5xx_HAL_Driver/Inc/stm32u5xx_ll_bus.h ****   *         AHB3SMENR  SRAM4SMEN      LL_AHB3_GRP1_EnableClockStopSleep\n
1499:Drivers/STM32U5xx_HAL_Driver/Inc/stm32u5xx_ll_bus.h ****   * @param  Periphs This parameter can be a combination of the following values:
1500:Drivers/STM32U5xx_HAL_Driver/Inc/stm32u5xx_ll_bus.h ****   *         @arg @ref LL_AHB3_GRP1_PERIPH_ALL
1501:Drivers/STM32U5xx_HAL_Driver/Inc/stm32u5xx_ll_bus.h ****   *         @arg @ref LL_AHB3_GRP1_PERIPH_LPGPIO1
1502:Drivers/STM32U5xx_HAL_Driver/Inc/stm32u5xx_ll_bus.h ****   *         @arg @ref LL_AHB3_GRP1_PERIPH_PWR
1503:Drivers/STM32U5xx_HAL_Driver/Inc/stm32u5xx_ll_bus.h ****   *         @arg @ref LL_AHB3_GRP1_PERIPH_ADC4
1504:Drivers/STM32U5xx_HAL_Driver/Inc/stm32u5xx_ll_bus.h ****   *         @arg @ref LL_AHB3_GRP1_PERIPH_DAC1
1505:Drivers/STM32U5xx_HAL_Driver/Inc/stm32u5xx_ll_bus.h ****   *         @arg @ref LL_AHB3_GRP1_PERIPH_LPDMA1
1506:Drivers/STM32U5xx_HAL_Driver/Inc/stm32u5xx_ll_bus.h ****   *         @arg @ref LL_AHB3_GRP1_PERIPH_ADF1
1507:Drivers/STM32U5xx_HAL_Driver/Inc/stm32u5xx_ll_bus.h ****   *         @arg @ref LL_AHB3_GRP1_PERIPH_GTZC2
1508:Drivers/STM32U5xx_HAL_Driver/Inc/stm32u5xx_ll_bus.h ****   *         @arg @ref LL_AHB3_GRP1_PERIPH_SRAM4
1509:Drivers/STM32U5xx_HAL_Driver/Inc/stm32u5xx_ll_bus.h ****   * @retval None
1510:Drivers/STM32U5xx_HAL_Driver/Inc/stm32u5xx_ll_bus.h ****   */
1511:Drivers/STM32U5xx_HAL_Driver/Inc/stm32u5xx_ll_bus.h **** __STATIC_INLINE void LL_AHB3_GRP1_EnableClockStopSleep(uint32_t Periphs)
1512:Drivers/STM32U5xx_HAL_Driver/Inc/stm32u5xx_ll_bus.h **** {
1513:Drivers/STM32U5xx_HAL_Driver/Inc/stm32u5xx_ll_bus.h ****   __IO uint32_t tmpreg;
1514:Drivers/STM32U5xx_HAL_Driver/Inc/stm32u5xx_ll_bus.h ****   SET_BIT(RCC->AHB3SMENR, Periphs);
1515:Drivers/STM32U5xx_HAL_Driver/Inc/stm32u5xx_ll_bus.h ****   /* Delay after an RCC peripheral clock enabling */
1516:Drivers/STM32U5xx_HAL_Driver/Inc/stm32u5xx_ll_bus.h ****   tmpreg = READ_BIT(RCC->AHB3SMENR, Periphs);
1517:Drivers/STM32U5xx_HAL_Driver/Inc/stm32u5xx_ll_bus.h ****   (void)tmpreg;
1518:Drivers/STM32U5xx_HAL_Driver/Inc/stm32u5xx_ll_bus.h **** }
1519:Drivers/STM32U5xx_HAL_Driver/Inc/stm32u5xx_ll_bus.h **** 
1520:Drivers/STM32U5xx_HAL_Driver/Inc/stm32u5xx_ll_bus.h **** /**
1521:Drivers/STM32U5xx_HAL_Driver/Inc/stm32u5xx_ll_bus.h ****   * @brief  Check if AHB3 peripheral clocks in Sleep and Stop modes is enabled or not
1522:Drivers/STM32U5xx_HAL_Driver/Inc/stm32u5xx_ll_bus.h ****   * @rmtoll AHB3SMENR  LPGPIO1SMEN    LL_AHB3_GRP1_IsEnabledClockStopSleep\n
1523:Drivers/STM32U5xx_HAL_Driver/Inc/stm32u5xx_ll_bus.h ****   *         AHB3SMENR  PWRSMEN        LL_AHB3_GRP1_IsEnabledClockStopSleep\n
1524:Drivers/STM32U5xx_HAL_Driver/Inc/stm32u5xx_ll_bus.h ****   *         AHB3SMENR  ADC4SMEN       LL_AHB3_GRP1_IsEnabledClockStopSleep\n
1525:Drivers/STM32U5xx_HAL_Driver/Inc/stm32u5xx_ll_bus.h ****   *         AHB3SMENR  DAC1SMEN       LL_AHB3_GRP1_IsEnabledClockStopSleep\n
1526:Drivers/STM32U5xx_HAL_Driver/Inc/stm32u5xx_ll_bus.h ****   *         AHB3SMENR  LPDMA1SMEN     LL_AHB3_GRP1_IsEnabledClockStopSleep\n
1527:Drivers/STM32U5xx_HAL_Driver/Inc/stm32u5xx_ll_bus.h ****   *         AHB3SMENR  ADF1SMEN       LL_AHB3_GRP1_IsEnabledClockStopSleep\n
1528:Drivers/STM32U5xx_HAL_Driver/Inc/stm32u5xx_ll_bus.h ****   *         AHB3SMENR  GTZC2SMEN      LL_AHB3_GRP1_IsEnabledClockStopSleep\n
1529:Drivers/STM32U5xx_HAL_Driver/Inc/stm32u5xx_ll_bus.h ****   *         AHB3SMENR  SRAM4SMEN      LL_AHB3_GRP1_IsEnabledClockStopSleep\n
1530:Drivers/STM32U5xx_HAL_Driver/Inc/stm32u5xx_ll_bus.h ****   * @param  Periphs This parameter can be a combination of the following values:
1531:Drivers/STM32U5xx_HAL_Driver/Inc/stm32u5xx_ll_bus.h ****   *         @arg @ref LL_AHB3_GRP1_PERIPH_ALL
1532:Drivers/STM32U5xx_HAL_Driver/Inc/stm32u5xx_ll_bus.h ****   *         @arg @ref LL_AHB3_GRP1_PERIPH_LPGPIO1
1533:Drivers/STM32U5xx_HAL_Driver/Inc/stm32u5xx_ll_bus.h ****   *         @arg @ref LL_AHB3_GRP1_PERIPH_PWR
1534:Drivers/STM32U5xx_HAL_Driver/Inc/stm32u5xx_ll_bus.h ****   *         @arg @ref LL_AHB3_GRP1_PERIPH_ADC4
ARM GAS  /tmp/ccyLpKvw.s 			page 42


1535:Drivers/STM32U5xx_HAL_Driver/Inc/stm32u5xx_ll_bus.h ****   *         @arg @ref LL_AHB3_GRP1_PERIPH_DAC1
1536:Drivers/STM32U5xx_HAL_Driver/Inc/stm32u5xx_ll_bus.h ****   *         @arg @ref LL_AHB3_GRP1_PERIPH_LPDMA1
1537:Drivers/STM32U5xx_HAL_Driver/Inc/stm32u5xx_ll_bus.h ****   *         @arg @ref LL_AHB3_GRP1_PERIPH_ADF1
1538:Drivers/STM32U5xx_HAL_Driver/Inc/stm32u5xx_ll_bus.h ****   *         @arg @ref LL_AHB3_GRP1_PERIPH_GTZC2
1539:Drivers/STM32U5xx_HAL_Driver/Inc/stm32u5xx_ll_bus.h ****   *         @arg @ref LL_AHB3_GRP1_PERIPH_SRAM4
1540:Drivers/STM32U5xx_HAL_Driver/Inc/stm32u5xx_ll_bus.h ****   * @retval State of Periphs (1 or 0).
1541:Drivers/STM32U5xx_HAL_Driver/Inc/stm32u5xx_ll_bus.h ****   */
1542:Drivers/STM32U5xx_HAL_Driver/Inc/stm32u5xx_ll_bus.h **** __STATIC_INLINE uint32_t LL_AHB3_GRP1_IsEnabledClockStopSleep(uint32_t Periphs)
1543:Drivers/STM32U5xx_HAL_Driver/Inc/stm32u5xx_ll_bus.h **** {
1544:Drivers/STM32U5xx_HAL_Driver/Inc/stm32u5xx_ll_bus.h ****   return ((READ_BIT(RCC->AHB3SMENR, Periphs) == Periphs) ? 1UL : 0UL);
1545:Drivers/STM32U5xx_HAL_Driver/Inc/stm32u5xx_ll_bus.h **** }
1546:Drivers/STM32U5xx_HAL_Driver/Inc/stm32u5xx_ll_bus.h **** 
1547:Drivers/STM32U5xx_HAL_Driver/Inc/stm32u5xx_ll_bus.h **** /**
1548:Drivers/STM32U5xx_HAL_Driver/Inc/stm32u5xx_ll_bus.h ****   * @brief  Disable AHB3 peripheral clocks in Sleep and Stop modes
1549:Drivers/STM32U5xx_HAL_Driver/Inc/stm32u5xx_ll_bus.h ****   * @rmtoll AHB3SMENR  LPGPIO1SMEN    LL_AHB3_GRP1_DisableClockStopSleep\n
1550:Drivers/STM32U5xx_HAL_Driver/Inc/stm32u5xx_ll_bus.h ****   *         AHB3SMENR  PWRSMEN        LL_AHB3_GRP1_DisableClockStopSleep\n
1551:Drivers/STM32U5xx_HAL_Driver/Inc/stm32u5xx_ll_bus.h ****   *         AHB3SMENR  ADC4SMEN       LL_AHB3_GRP1_DisableClockStopSleep\n
1552:Drivers/STM32U5xx_HAL_Driver/Inc/stm32u5xx_ll_bus.h ****   *         AHB3SMENR  DAC1SMEN       LL_AHB3_GRP1_DisableClockStopSleep\n
1553:Drivers/STM32U5xx_HAL_Driver/Inc/stm32u5xx_ll_bus.h ****   *         AHB3SMENR  LPDMA1SMEN     LL_AHB3_GRP1_DisableClockStopSleep\n
1554:Drivers/STM32U5xx_HAL_Driver/Inc/stm32u5xx_ll_bus.h ****   *         AHB3SMENR  ADF1SMEN       LL_AHB3_GRP1_DisableClockStopSleep\n
1555:Drivers/STM32U5xx_HAL_Driver/Inc/stm32u5xx_ll_bus.h ****   *         AHB3SMENR  GTZC2SMEN      LL_AHB3_GRP1_DisableClockStopSleep\n
1556:Drivers/STM32U5xx_HAL_Driver/Inc/stm32u5xx_ll_bus.h ****   *         AHB3SMENR  SRAM4SMEN      LL_AHB3_GRP1_DisableClockStopSleep\n
1557:Drivers/STM32U5xx_HAL_Driver/Inc/stm32u5xx_ll_bus.h ****   * @param  Periphs This parameter can be a combination of the following values:
1558:Drivers/STM32U5xx_HAL_Driver/Inc/stm32u5xx_ll_bus.h ****   *         @arg @ref LL_AHB3_GRP1_PERIPH_ALL
1559:Drivers/STM32U5xx_HAL_Driver/Inc/stm32u5xx_ll_bus.h ****   *         @arg @ref LL_AHB3_GRP1_PERIPH_LPGPIO1
1560:Drivers/STM32U5xx_HAL_Driver/Inc/stm32u5xx_ll_bus.h ****   *         @arg @ref LL_AHB3_GRP1_PERIPH_PWR
1561:Drivers/STM32U5xx_HAL_Driver/Inc/stm32u5xx_ll_bus.h ****   *         @arg @ref LL_AHB3_GRP1_PERIPH_ADC4
1562:Drivers/STM32U5xx_HAL_Driver/Inc/stm32u5xx_ll_bus.h ****   *         @arg @ref LL_AHB3_GRP1_PERIPH_DAC1
1563:Drivers/STM32U5xx_HAL_Driver/Inc/stm32u5xx_ll_bus.h ****   *         @arg @ref LL_AHB3_GRP1_PERIPH_LPDMA1
1564:Drivers/STM32U5xx_HAL_Driver/Inc/stm32u5xx_ll_bus.h ****   *         @arg @ref LL_AHB3_GRP1_PERIPH_ADF1
1565:Drivers/STM32U5xx_HAL_Driver/Inc/stm32u5xx_ll_bus.h ****   *         @arg @ref LL_AHB3_GRP1_PERIPH_GTZC2
1566:Drivers/STM32U5xx_HAL_Driver/Inc/stm32u5xx_ll_bus.h ****   *         @arg @ref LL_AHB3_GRP1_PERIPH_SRAM4
1567:Drivers/STM32U5xx_HAL_Driver/Inc/stm32u5xx_ll_bus.h ****   * @retval None
1568:Drivers/STM32U5xx_HAL_Driver/Inc/stm32u5xx_ll_bus.h ****   */
1569:Drivers/STM32U5xx_HAL_Driver/Inc/stm32u5xx_ll_bus.h **** __STATIC_INLINE void LL_AHB3_GRP1_DisableClockStopSleep(uint32_t Periphs)
1570:Drivers/STM32U5xx_HAL_Driver/Inc/stm32u5xx_ll_bus.h **** {
1571:Drivers/STM32U5xx_HAL_Driver/Inc/stm32u5xx_ll_bus.h ****   CLEAR_BIT(RCC->AHB3SMENR, Periphs);
1572:Drivers/STM32U5xx_HAL_Driver/Inc/stm32u5xx_ll_bus.h **** }
1573:Drivers/STM32U5xx_HAL_Driver/Inc/stm32u5xx_ll_bus.h **** 
1574:Drivers/STM32U5xx_HAL_Driver/Inc/stm32u5xx_ll_bus.h **** /**
1575:Drivers/STM32U5xx_HAL_Driver/Inc/stm32u5xx_ll_bus.h ****   * @}
1576:Drivers/STM32U5xx_HAL_Driver/Inc/stm32u5xx_ll_bus.h ****   */
1577:Drivers/STM32U5xx_HAL_Driver/Inc/stm32u5xx_ll_bus.h **** 
1578:Drivers/STM32U5xx_HAL_Driver/Inc/stm32u5xx_ll_bus.h **** /** @defgroup BUS_LL_EF_AHB2_GRP2_PERIPH AHB2 GRP2 PERIPH
1579:Drivers/STM32U5xx_HAL_Driver/Inc/stm32u5xx_ll_bus.h ****   * @{
1580:Drivers/STM32U5xx_HAL_Driver/Inc/stm32u5xx_ll_bus.h ****   */
1581:Drivers/STM32U5xx_HAL_Driver/Inc/stm32u5xx_ll_bus.h **** 
1582:Drivers/STM32U5xx_HAL_Driver/Inc/stm32u5xx_ll_bus.h **** /**
1583:Drivers/STM32U5xx_HAL_Driver/Inc/stm32u5xx_ll_bus.h ****   * @brief  Enable AHB2_2 bus clock.
1584:Drivers/STM32U5xx_HAL_Driver/Inc/stm32u5xx_ll_bus.h ****   * @rmtoll CFGR2    AHB2DIS2     LL_AHB2_GRP2_EnableBusClock
1585:Drivers/STM32U5xx_HAL_Driver/Inc/stm32u5xx_ll_bus.h ****   * @retval None
1586:Drivers/STM32U5xx_HAL_Driver/Inc/stm32u5xx_ll_bus.h ****   */
1587:Drivers/STM32U5xx_HAL_Driver/Inc/stm32u5xx_ll_bus.h **** __STATIC_INLINE void LL_AHB2_GRP2_EnableBusClock(void)
1588:Drivers/STM32U5xx_HAL_Driver/Inc/stm32u5xx_ll_bus.h **** {
1589:Drivers/STM32U5xx_HAL_Driver/Inc/stm32u5xx_ll_bus.h ****   __IO uint32_t tmpreg;
1590:Drivers/STM32U5xx_HAL_Driver/Inc/stm32u5xx_ll_bus.h ****   CLEAR_BIT(RCC->CFGR2, RCC_CFGR2_AHB2DIS2);
1591:Drivers/STM32U5xx_HAL_Driver/Inc/stm32u5xx_ll_bus.h ****   tmpreg = READ_BIT(RCC->CFGR2, RCC_CFGR2_AHB2DIS2);
ARM GAS  /tmp/ccyLpKvw.s 			page 43


1592:Drivers/STM32U5xx_HAL_Driver/Inc/stm32u5xx_ll_bus.h ****   (void)(tmpreg);
1593:Drivers/STM32U5xx_HAL_Driver/Inc/stm32u5xx_ll_bus.h **** }
1594:Drivers/STM32U5xx_HAL_Driver/Inc/stm32u5xx_ll_bus.h **** 
1595:Drivers/STM32U5xx_HAL_Driver/Inc/stm32u5xx_ll_bus.h **** /**
1596:Drivers/STM32U5xx_HAL_Driver/Inc/stm32u5xx_ll_bus.h ****   * @brief  Enable AHB2 peripherals clock.
1597:Drivers/STM32U5xx_HAL_Driver/Inc/stm32u5xx_ll_bus.h ****   * @rmtoll AHB2ENR2  FSMCEN            LL_AHB2_GRP2_EnableClock\n
1598:Drivers/STM32U5xx_HAL_Driver/Inc/stm32u5xx_ll_bus.h ****   *         AHB2ENR2  OCTOSPI1EN        LL_AHB2_GRP2_EnableClock\n
1599:Drivers/STM32U5xx_HAL_Driver/Inc/stm32u5xx_ll_bus.h ****   *         AHB2ENR2  OCTOSPI2EN        LL_AHB2_GRP2_EnableClock\n
1600:Drivers/STM32U5xx_HAL_Driver/Inc/stm32u5xx_ll_bus.h ****   *         AHB2ENR2  HSPI1EN           LL_AHB2_GRP2_EnableClock\n
1601:Drivers/STM32U5xx_HAL_Driver/Inc/stm32u5xx_ll_bus.h ****   *         AHB2ENR2  SRAM6EN           LL_AHB2_GRP2_EnableClock\n
1602:Drivers/STM32U5xx_HAL_Driver/Inc/stm32u5xx_ll_bus.h ****   *         AHB2ENR2  SRAM5EN           LL_AHB2_GRP2_EnableClock\n
1603:Drivers/STM32U5xx_HAL_Driver/Inc/stm32u5xx_ll_bus.h ****   * @param  Periphs This parameter can be a combination of the following values:
1604:Drivers/STM32U5xx_HAL_Driver/Inc/stm32u5xx_ll_bus.h ****   *         @arg @ref LL_AHB2_GRP2_PERIPH_ALL
1605:Drivers/STM32U5xx_HAL_Driver/Inc/stm32u5xx_ll_bus.h ****   *         @arg @ref LL_AHB2_GRP2_PERIPH_FSMC (*)
1606:Drivers/STM32U5xx_HAL_Driver/Inc/stm32u5xx_ll_bus.h ****   *         @arg @ref LL_AHB2_GRP2_PERIPH_OCTOSPI1
1607:Drivers/STM32U5xx_HAL_Driver/Inc/stm32u5xx_ll_bus.h ****   *         @arg @ref LL_AHB2_GRP2_PERIPH_OCTOSPI2 (*)
1608:Drivers/STM32U5xx_HAL_Driver/Inc/stm32u5xx_ll_bus.h ****   *         @arg @ref LL_AHB2_GRP2_PERIPH_HSPI1 (*)
1609:Drivers/STM32U5xx_HAL_Driver/Inc/stm32u5xx_ll_bus.h ****   *         @arg @ref LL_AHB2_GRP2_PERIPH_SRAM6 (*)
1610:Drivers/STM32U5xx_HAL_Driver/Inc/stm32u5xx_ll_bus.h ****   *         @arg @ref LL_AHB2_GRP2_PERIPH_SRAM5 (*)
1611:Drivers/STM32U5xx_HAL_Driver/Inc/stm32u5xx_ll_bus.h ****   *
1612:Drivers/STM32U5xx_HAL_Driver/Inc/stm32u5xx_ll_bus.h ****   *
1613:Drivers/STM32U5xx_HAL_Driver/Inc/stm32u5xx_ll_bus.h ****   *        (*) value not defined in all devices.
1614:Drivers/STM32U5xx_HAL_Driver/Inc/stm32u5xx_ll_bus.h ****   * @retval None
1615:Drivers/STM32U5xx_HAL_Driver/Inc/stm32u5xx_ll_bus.h ****   */
1616:Drivers/STM32U5xx_HAL_Driver/Inc/stm32u5xx_ll_bus.h **** __STATIC_INLINE void LL_AHB2_GRP2_EnableClock(uint32_t Periphs)
1617:Drivers/STM32U5xx_HAL_Driver/Inc/stm32u5xx_ll_bus.h **** {
1618:Drivers/STM32U5xx_HAL_Driver/Inc/stm32u5xx_ll_bus.h ****   __IO uint32_t tmpreg;
1619:Drivers/STM32U5xx_HAL_Driver/Inc/stm32u5xx_ll_bus.h ****   SET_BIT(RCC->AHB2ENR2, Periphs);
1620:Drivers/STM32U5xx_HAL_Driver/Inc/stm32u5xx_ll_bus.h ****   /* Delay after an RCC peripheral clock enabling */
1621:Drivers/STM32U5xx_HAL_Driver/Inc/stm32u5xx_ll_bus.h ****   tmpreg = READ_BIT(RCC->AHB2ENR2, Periphs);
1622:Drivers/STM32U5xx_HAL_Driver/Inc/stm32u5xx_ll_bus.h ****   (void)tmpreg;
1623:Drivers/STM32U5xx_HAL_Driver/Inc/stm32u5xx_ll_bus.h **** }
1624:Drivers/STM32U5xx_HAL_Driver/Inc/stm32u5xx_ll_bus.h **** 
1625:Drivers/STM32U5xx_HAL_Driver/Inc/stm32u5xx_ll_bus.h **** /**
1626:Drivers/STM32U5xx_HAL_Driver/Inc/stm32u5xx_ll_bus.h ****   * @brief  Check if AHB2 peripheral clock is enabled or not
1627:Drivers/STM32U5xx_HAL_Driver/Inc/stm32u5xx_ll_bus.h ****   * @rmtoll AHB2ENR2  FSMCEN            LL_AHB2_GRP2_IsEnabledClock\n
1628:Drivers/STM32U5xx_HAL_Driver/Inc/stm32u5xx_ll_bus.h ****   *         AHB2ENR2  OCTOSPI1EN        LL_AHB2_GRP2_IsEnabledClock\n
1629:Drivers/STM32U5xx_HAL_Driver/Inc/stm32u5xx_ll_bus.h ****   *         AHB2ENR2  OCTOSPI2EN        LL_AHB2_GRP2_IsEnabledClock\n
1630:Drivers/STM32U5xx_HAL_Driver/Inc/stm32u5xx_ll_bus.h ****   *         AHB2ENR2  HSPI1EN           LL_AHB2_GRP2_IsEnabledClock\n
1631:Drivers/STM32U5xx_HAL_Driver/Inc/stm32u5xx_ll_bus.h ****   *         AHB2ENR2  SRAM6EN           LL_AHB2_GRP2_DisableClock\n
1632:Drivers/STM32U5xx_HAL_Driver/Inc/stm32u5xx_ll_bus.h ****   *         AHB2ENR2  SRAM5EN           LL_AHB2_GRP2_IsEnabledClock\n
1633:Drivers/STM32U5xx_HAL_Driver/Inc/stm32u5xx_ll_bus.h ****   * @param  Periphs This parameter can be a combination of the following values:
1634:Drivers/STM32U5xx_HAL_Driver/Inc/stm32u5xx_ll_bus.h ****   *         @arg @ref LL_AHB2_GRP2_PERIPH_ALL
1635:Drivers/STM32U5xx_HAL_Driver/Inc/stm32u5xx_ll_bus.h ****   *         @arg @ref LL_AHB2_GRP2_PERIPH_FSMC (*)
1636:Drivers/STM32U5xx_HAL_Driver/Inc/stm32u5xx_ll_bus.h ****   *         @arg @ref LL_AHB2_GRP2_PERIPH_OCTOSPI1
1637:Drivers/STM32U5xx_HAL_Driver/Inc/stm32u5xx_ll_bus.h ****   *         @arg @ref LL_AHB2_GRP2_PERIPH_OCTOSPI2 (*)
1638:Drivers/STM32U5xx_HAL_Driver/Inc/stm32u5xx_ll_bus.h ****   *         @arg @ref LL_AHB2_GRP2_PERIPH_HSPI1 (*)
1639:Drivers/STM32U5xx_HAL_Driver/Inc/stm32u5xx_ll_bus.h ****   *         @arg @ref LL_AHB2_GRP2_PERIPH_SRAM6 (*)
1640:Drivers/STM32U5xx_HAL_Driver/Inc/stm32u5xx_ll_bus.h ****   *         @arg @ref LL_AHB2_GRP2_PERIPH_SRAM5 (*)
1641:Drivers/STM32U5xx_HAL_Driver/Inc/stm32u5xx_ll_bus.h ****   *
1642:Drivers/STM32U5xx_HAL_Driver/Inc/stm32u5xx_ll_bus.h ****   *        (*) value not defined in all devices.
1643:Drivers/STM32U5xx_HAL_Driver/Inc/stm32u5xx_ll_bus.h ****   * @retval None
1644:Drivers/STM32U5xx_HAL_Driver/Inc/stm32u5xx_ll_bus.h ****   * @retval State of Periphs (1 or 0).
1645:Drivers/STM32U5xx_HAL_Driver/Inc/stm32u5xx_ll_bus.h ****   */
1646:Drivers/STM32U5xx_HAL_Driver/Inc/stm32u5xx_ll_bus.h **** __STATIC_INLINE uint32_t LL_AHB2_GRP2_IsEnabledClock(uint32_t Periphs)
1647:Drivers/STM32U5xx_HAL_Driver/Inc/stm32u5xx_ll_bus.h **** {
1648:Drivers/STM32U5xx_HAL_Driver/Inc/stm32u5xx_ll_bus.h ****   return ((READ_BIT(RCC->AHB2ENR2, Periphs) == Periphs) ? 1UL : 0UL);
ARM GAS  /tmp/ccyLpKvw.s 			page 44


1649:Drivers/STM32U5xx_HAL_Driver/Inc/stm32u5xx_ll_bus.h **** }
1650:Drivers/STM32U5xx_HAL_Driver/Inc/stm32u5xx_ll_bus.h **** 
1651:Drivers/STM32U5xx_HAL_Driver/Inc/stm32u5xx_ll_bus.h **** /**
1652:Drivers/STM32U5xx_HAL_Driver/Inc/stm32u5xx_ll_bus.h ****   * @brief  Disable AHB2_2 bus clock.
1653:Drivers/STM32U5xx_HAL_Driver/Inc/stm32u5xx_ll_bus.h ****   * @rmtoll CFGR2    AHB2DIS2     LL_AHB2_GRP2_DisableBusClock
1654:Drivers/STM32U5xx_HAL_Driver/Inc/stm32u5xx_ll_bus.h ****   * @retval None
1655:Drivers/STM32U5xx_HAL_Driver/Inc/stm32u5xx_ll_bus.h ****   */
1656:Drivers/STM32U5xx_HAL_Driver/Inc/stm32u5xx_ll_bus.h **** __STATIC_INLINE void LL_AHB2_GRP2_DisableBusClock(void)
1657:Drivers/STM32U5xx_HAL_Driver/Inc/stm32u5xx_ll_bus.h **** {
1658:Drivers/STM32U5xx_HAL_Driver/Inc/stm32u5xx_ll_bus.h ****   SET_BIT(RCC->CFGR2, RCC_CFGR2_AHB2DIS2);
1659:Drivers/STM32U5xx_HAL_Driver/Inc/stm32u5xx_ll_bus.h **** }
1660:Drivers/STM32U5xx_HAL_Driver/Inc/stm32u5xx_ll_bus.h **** 
1661:Drivers/STM32U5xx_HAL_Driver/Inc/stm32u5xx_ll_bus.h **** /**
1662:Drivers/STM32U5xx_HAL_Driver/Inc/stm32u5xx_ll_bus.h ****   * @brief  Disable AHB2 peripherals clock.
1663:Drivers/STM32U5xx_HAL_Driver/Inc/stm32u5xx_ll_bus.h ****   * @rmtoll AHB2ENR2  FSMCEN            LL_AHB2_GRP2_DisableClock\n
1664:Drivers/STM32U5xx_HAL_Driver/Inc/stm32u5xx_ll_bus.h ****   *         AHB2ENR2  OCTOSPI1EN        LL_AHB2_GRP2_DisableClock\n
1665:Drivers/STM32U5xx_HAL_Driver/Inc/stm32u5xx_ll_bus.h ****   *         AHB2ENR2  OCTOSPI2EN        LL_AHB2_GRP2_DisableClock\n
1666:Drivers/STM32U5xx_HAL_Driver/Inc/stm32u5xx_ll_bus.h ****   *         AHB2ENR2  HSPI1EN           LL_AHB2_GRP2_DisableClock\n
1667:Drivers/STM32U5xx_HAL_Driver/Inc/stm32u5xx_ll_bus.h ****   *         AHB2ENR2  SRAM6EN           LL_AHB2_GRP2_DisableClock\n
1668:Drivers/STM32U5xx_HAL_Driver/Inc/stm32u5xx_ll_bus.h ****   *         AHB2ENR2  SRAM5EN           LL_AHB2_GRP2_DisableClock\n
1669:Drivers/STM32U5xx_HAL_Driver/Inc/stm32u5xx_ll_bus.h ****   * @param  Periphs This parameter can be a combination of the following values:
1670:Drivers/STM32U5xx_HAL_Driver/Inc/stm32u5xx_ll_bus.h ****   *         @arg @ref LL_AHB2_GRP2_PERIPH_ALL
1671:Drivers/STM32U5xx_HAL_Driver/Inc/stm32u5xx_ll_bus.h ****   *         @arg @ref LL_AHB2_GRP2_PERIPH_FSMC (*)
1672:Drivers/STM32U5xx_HAL_Driver/Inc/stm32u5xx_ll_bus.h ****   *         @arg @ref LL_AHB2_GRP2_PERIPH_OCTOSPI1
1673:Drivers/STM32U5xx_HAL_Driver/Inc/stm32u5xx_ll_bus.h ****   *         @arg @ref LL_AHB2_GRP2_PERIPH_OCTOSPI2 (*)
1674:Drivers/STM32U5xx_HAL_Driver/Inc/stm32u5xx_ll_bus.h ****   *         @arg @ref LL_AHB2_GRP2_PERIPH_HSPI1 (*)
1675:Drivers/STM32U5xx_HAL_Driver/Inc/stm32u5xx_ll_bus.h ****   *         @arg @ref LL_AHB2_GRP2_PERIPH_SRAM6 (*)
1676:Drivers/STM32U5xx_HAL_Driver/Inc/stm32u5xx_ll_bus.h ****   *         @arg @ref LL_AHB2_GRP2_PERIPH_SRAM5 (*)
1677:Drivers/STM32U5xx_HAL_Driver/Inc/stm32u5xx_ll_bus.h ****   *
1678:Drivers/STM32U5xx_HAL_Driver/Inc/stm32u5xx_ll_bus.h ****   *        (*) value not defined in all devices.
1679:Drivers/STM32U5xx_HAL_Driver/Inc/stm32u5xx_ll_bus.h ****   * @retval None
1680:Drivers/STM32U5xx_HAL_Driver/Inc/stm32u5xx_ll_bus.h ****   */
1681:Drivers/STM32U5xx_HAL_Driver/Inc/stm32u5xx_ll_bus.h **** __STATIC_INLINE void LL_AHB2_GRP2_DisableClock(uint32_t Periphs)
1682:Drivers/STM32U5xx_HAL_Driver/Inc/stm32u5xx_ll_bus.h **** {
1683:Drivers/STM32U5xx_HAL_Driver/Inc/stm32u5xx_ll_bus.h ****   CLEAR_BIT(RCC->AHB2ENR2, Periphs);
1684:Drivers/STM32U5xx_HAL_Driver/Inc/stm32u5xx_ll_bus.h **** }
1685:Drivers/STM32U5xx_HAL_Driver/Inc/stm32u5xx_ll_bus.h **** 
1686:Drivers/STM32U5xx_HAL_Driver/Inc/stm32u5xx_ll_bus.h **** /**
1687:Drivers/STM32U5xx_HAL_Driver/Inc/stm32u5xx_ll_bus.h ****   * @brief  Force AHB2 peripherals reset.
1688:Drivers/STM32U5xx_HAL_Driver/Inc/stm32u5xx_ll_bus.h ****   * @rmtoll AHB2RSTR2  FSMCRST            LL_AHB2_GRP2_ForceReset\n
1689:Drivers/STM32U5xx_HAL_Driver/Inc/stm32u5xx_ll_bus.h ****   *         AHB2RSTR2  OCTOSPI1RST        LL_AHB2_GRP2_ForceReset\n
1690:Drivers/STM32U5xx_HAL_Driver/Inc/stm32u5xx_ll_bus.h ****   *         AHB2RSTR2  OCTOSPI2RST        LL_AHB2_GRP2_ForceReset\n
1691:Drivers/STM32U5xx_HAL_Driver/Inc/stm32u5xx_ll_bus.h ****   *         AHB2RSTR2  HSPI1RST           LL_AHB2_GRP2_ForceReset\n
1692:Drivers/STM32U5xx_HAL_Driver/Inc/stm32u5xx_ll_bus.h ****   * @param  Periphs This parameter can be a combination of the following values:
1693:Drivers/STM32U5xx_HAL_Driver/Inc/stm32u5xx_ll_bus.h ****   *         @arg @ref LL_AHB2_GRP2_PERIPH_ALL
1694:Drivers/STM32U5xx_HAL_Driver/Inc/stm32u5xx_ll_bus.h ****   *         @arg @ref LL_AHB2_GRP2_PERIPH_FSMC (*)
1695:Drivers/STM32U5xx_HAL_Driver/Inc/stm32u5xx_ll_bus.h ****   *         @arg @ref LL_AHB2_GRP2_PERIPH_OCTOSPI1
1696:Drivers/STM32U5xx_HAL_Driver/Inc/stm32u5xx_ll_bus.h ****   *         @arg @ref LL_AHB2_GRP2_PERIPH_OCTOSPI2 (*)
1697:Drivers/STM32U5xx_HAL_Driver/Inc/stm32u5xx_ll_bus.h ****   *         @arg @ref LL_AHB2_GRP2_PERIPH_HSPI1 (*)
1698:Drivers/STM32U5xx_HAL_Driver/Inc/stm32u5xx_ll_bus.h ****   *
1699:Drivers/STM32U5xx_HAL_Driver/Inc/stm32u5xx_ll_bus.h ****   *        (*) value not defined in all devices.
1700:Drivers/STM32U5xx_HAL_Driver/Inc/stm32u5xx_ll_bus.h ****   * @retval None
1701:Drivers/STM32U5xx_HAL_Driver/Inc/stm32u5xx_ll_bus.h ****   */
1702:Drivers/STM32U5xx_HAL_Driver/Inc/stm32u5xx_ll_bus.h **** __STATIC_INLINE void LL_AHB2_GRP2_ForceReset(uint32_t Periphs)
1703:Drivers/STM32U5xx_HAL_Driver/Inc/stm32u5xx_ll_bus.h **** {
1704:Drivers/STM32U5xx_HAL_Driver/Inc/stm32u5xx_ll_bus.h ****   SET_BIT(RCC->AHB2RSTR2, Periphs);
1705:Drivers/STM32U5xx_HAL_Driver/Inc/stm32u5xx_ll_bus.h **** }
ARM GAS  /tmp/ccyLpKvw.s 			page 45


1706:Drivers/STM32U5xx_HAL_Driver/Inc/stm32u5xx_ll_bus.h **** 
1707:Drivers/STM32U5xx_HAL_Driver/Inc/stm32u5xx_ll_bus.h **** /**
1708:Drivers/STM32U5xx_HAL_Driver/Inc/stm32u5xx_ll_bus.h ****   * @brief  Release AHB2 peripherals reset.
1709:Drivers/STM32U5xx_HAL_Driver/Inc/stm32u5xx_ll_bus.h ****   * @rmtoll AHB2RSTR2  FSMCRST            LL_AHB2_GRP2_ReleaseReset\n
1710:Drivers/STM32U5xx_HAL_Driver/Inc/stm32u5xx_ll_bus.h ****   *         AHB2RSTR2  OCTOSPI1RST        LL_AHB2_GRP2_ReleaseReset\n
1711:Drivers/STM32U5xx_HAL_Driver/Inc/stm32u5xx_ll_bus.h ****   *         AHB2RSTR2  OCTOSPI2RST        LL_AHB2_GRP2_ReleaseReset\n
1712:Drivers/STM32U5xx_HAL_Driver/Inc/stm32u5xx_ll_bus.h ****   *         AHB2RSTR2  HSPI1RST           LL_AHB2_GRP2_ReleaseReset\n
1713:Drivers/STM32U5xx_HAL_Driver/Inc/stm32u5xx_ll_bus.h ****   * @param  Periphs This parameter can be a combination of the following values:
1714:Drivers/STM32U5xx_HAL_Driver/Inc/stm32u5xx_ll_bus.h ****   *         @arg @ref LL_AHB2_GRP2_PERIPH_ALL
1715:Drivers/STM32U5xx_HAL_Driver/Inc/stm32u5xx_ll_bus.h ****   *         @arg @ref LL_AHB2_GRP2_PERIPH_FSMC (*)
1716:Drivers/STM32U5xx_HAL_Driver/Inc/stm32u5xx_ll_bus.h ****   *         @arg @ref LL_AHB2_GRP2_PERIPH_OCTOSPI1
1717:Drivers/STM32U5xx_HAL_Driver/Inc/stm32u5xx_ll_bus.h ****   *         @arg @ref LL_AHB2_GRP2_PERIPH_OCTOSPI2 (*)
1718:Drivers/STM32U5xx_HAL_Driver/Inc/stm32u5xx_ll_bus.h ****   *         @arg @ref LL_AHB2_GRP2_PERIPH_HSPI1 (*)
1719:Drivers/STM32U5xx_HAL_Driver/Inc/stm32u5xx_ll_bus.h ****   *
1720:Drivers/STM32U5xx_HAL_Driver/Inc/stm32u5xx_ll_bus.h ****   *        (*) value not defined in all devices.
1721:Drivers/STM32U5xx_HAL_Driver/Inc/stm32u5xx_ll_bus.h ****   * @retval None
1722:Drivers/STM32U5xx_HAL_Driver/Inc/stm32u5xx_ll_bus.h ****   */
1723:Drivers/STM32U5xx_HAL_Driver/Inc/stm32u5xx_ll_bus.h **** __STATIC_INLINE void LL_AHB2_GRP2_ReleaseReset(uint32_t Periphs)
1724:Drivers/STM32U5xx_HAL_Driver/Inc/stm32u5xx_ll_bus.h **** {
1725:Drivers/STM32U5xx_HAL_Driver/Inc/stm32u5xx_ll_bus.h ****   CLEAR_BIT(RCC->AHB2RSTR2, Periphs);
1726:Drivers/STM32U5xx_HAL_Driver/Inc/stm32u5xx_ll_bus.h **** }
1727:Drivers/STM32U5xx_HAL_Driver/Inc/stm32u5xx_ll_bus.h **** 
1728:Drivers/STM32U5xx_HAL_Driver/Inc/stm32u5xx_ll_bus.h **** /**
1729:Drivers/STM32U5xx_HAL_Driver/Inc/stm32u5xx_ll_bus.h ****   * @brief  Enable AHB2 peripheral clocks in Sleep and Stop modes
1730:Drivers/STM32U5xx_HAL_Driver/Inc/stm32u5xx_ll_bus.h ****   * @rmtoll AHB2SMENR2  FSMCSMEN            LL_AHB2_GRP2_EnableClockStopSleep\n
1731:Drivers/STM32U5xx_HAL_Driver/Inc/stm32u5xx_ll_bus.h ****   *         AHB2SMENR2  OCTOSPI1SMEN        LL_AHB2_GRP2_EnableClockStopSleep\n
1732:Drivers/STM32U5xx_HAL_Driver/Inc/stm32u5xx_ll_bus.h ****   *         AHB2SMENR2  OCTOSPI2SMEN        LL_AHB2_GRP2_EnableClockStopSleep\n
1733:Drivers/STM32U5xx_HAL_Driver/Inc/stm32u5xx_ll_bus.h ****   *         AHB2SMENR2  HSPI1SMEN           LL_AHB2_GRP2_EnableClockStopSleep\n
1734:Drivers/STM32U5xx_HAL_Driver/Inc/stm32u5xx_ll_bus.h ****   *         AHB2SMENR2  SRAM6SMEN           LL_AHB2_GRP2_IsEnabledClockStopSleep\n
1735:Drivers/STM32U5xx_HAL_Driver/Inc/stm32u5xx_ll_bus.h ****   *         AHB2SMENR2  SRAM5SMEN           LL_AHB2_GRP2_EnableClockStopSleep\n
1736:Drivers/STM32U5xx_HAL_Driver/Inc/stm32u5xx_ll_bus.h ****   * @param  Periphs This parameter can be a combination of the following values:
1737:Drivers/STM32U5xx_HAL_Driver/Inc/stm32u5xx_ll_bus.h ****   *         @arg @ref LL_AHB2_GRP2_PERIPH_ALL
1738:Drivers/STM32U5xx_HAL_Driver/Inc/stm32u5xx_ll_bus.h ****   *         @arg @ref LL_AHB2_GRP2_PERIPH_FSMC (*)
1739:Drivers/STM32U5xx_HAL_Driver/Inc/stm32u5xx_ll_bus.h ****   *         @arg @ref LL_AHB2_GRP2_PERIPH_OCTOSPI1
1740:Drivers/STM32U5xx_HAL_Driver/Inc/stm32u5xx_ll_bus.h ****   *         @arg @ref LL_AHB2_GRP2_PERIPH_OCTOSPI2 (*)
1741:Drivers/STM32U5xx_HAL_Driver/Inc/stm32u5xx_ll_bus.h ****   *         @arg @ref LL_AHB2_GRP2_PERIPH_HSPI1 (*)
1742:Drivers/STM32U5xx_HAL_Driver/Inc/stm32u5xx_ll_bus.h ****   *         @arg @ref LL_AHB2_GRP2_PERIPH_SRAM6 (*)
1743:Drivers/STM32U5xx_HAL_Driver/Inc/stm32u5xx_ll_bus.h ****   *         @arg @ref LL_AHB2_GRP2_PERIPH_SRAM5 (*)
1744:Drivers/STM32U5xx_HAL_Driver/Inc/stm32u5xx_ll_bus.h ****   *
1745:Drivers/STM32U5xx_HAL_Driver/Inc/stm32u5xx_ll_bus.h ****   *        (*) value not defined in all devices.
1746:Drivers/STM32U5xx_HAL_Driver/Inc/stm32u5xx_ll_bus.h ****   * @retval None
1747:Drivers/STM32U5xx_HAL_Driver/Inc/stm32u5xx_ll_bus.h ****   */
1748:Drivers/STM32U5xx_HAL_Driver/Inc/stm32u5xx_ll_bus.h **** __STATIC_INLINE void LL_AHB2_GRP2_EnableClockStopSleep(uint32_t Periphs)
1749:Drivers/STM32U5xx_HAL_Driver/Inc/stm32u5xx_ll_bus.h **** {
1750:Drivers/STM32U5xx_HAL_Driver/Inc/stm32u5xx_ll_bus.h ****   __IO uint32_t tmpreg;
1751:Drivers/STM32U5xx_HAL_Driver/Inc/stm32u5xx_ll_bus.h ****   SET_BIT(RCC->AHB2SMENR2, Periphs);
1752:Drivers/STM32U5xx_HAL_Driver/Inc/stm32u5xx_ll_bus.h ****   /* Delay after an RCC peripheral clock enabling */
1753:Drivers/STM32U5xx_HAL_Driver/Inc/stm32u5xx_ll_bus.h ****   tmpreg = READ_BIT(RCC->AHB2SMENR2, Periphs);
1754:Drivers/STM32U5xx_HAL_Driver/Inc/stm32u5xx_ll_bus.h ****   (void)tmpreg;
1755:Drivers/STM32U5xx_HAL_Driver/Inc/stm32u5xx_ll_bus.h **** }
1756:Drivers/STM32U5xx_HAL_Driver/Inc/stm32u5xx_ll_bus.h **** 
1757:Drivers/STM32U5xx_HAL_Driver/Inc/stm32u5xx_ll_bus.h **** /**
1758:Drivers/STM32U5xx_HAL_Driver/Inc/stm32u5xx_ll_bus.h ****   * @brief  Check if AHB2 peripheral clocks in Sleep and Stop modes is enabled or not
1759:Drivers/STM32U5xx_HAL_Driver/Inc/stm32u5xx_ll_bus.h ****   * @rmtoll AHB2SMENR2  FSMCSMEN            LL_AHB2_GRP2_IsEnabledClockStopSleep\n
1760:Drivers/STM32U5xx_HAL_Driver/Inc/stm32u5xx_ll_bus.h ****   *         AHB2SMENR2  OCTOSPI1SMEN        LL_AHB2_GRP2_IsEnabledClockStopSleep\n
1761:Drivers/STM32U5xx_HAL_Driver/Inc/stm32u5xx_ll_bus.h ****   *         AHB2SMENR2  OCTOSPI2SMEN        LL_AHB2_GRP2_IsEnabledClockStopSleep\n
1762:Drivers/STM32U5xx_HAL_Driver/Inc/stm32u5xx_ll_bus.h ****   *         AHB2SMENR2  HSPI1SMEN           LL_AHB2_GRP2_IsEnabledClockStopSleep\n
ARM GAS  /tmp/ccyLpKvw.s 			page 46


1763:Drivers/STM32U5xx_HAL_Driver/Inc/stm32u5xx_ll_bus.h ****   *         AHB2SMENR2  SRAM6SMEN           LL_AHB2_GRP2_IsEnabledClockStopSleep\n
1764:Drivers/STM32U5xx_HAL_Driver/Inc/stm32u5xx_ll_bus.h ****   *         AHB2SMENR2  SRAM5SMEN           LL_AHB2_GRP2_IsEnabledClockStopSleep\n
1765:Drivers/STM32U5xx_HAL_Driver/Inc/stm32u5xx_ll_bus.h ****   * @param  Periphs This parameter can be a combination of the following values:
1766:Drivers/STM32U5xx_HAL_Driver/Inc/stm32u5xx_ll_bus.h ****   *         @arg @ref LL_AHB2_GRP2_PERIPH_ALL
1767:Drivers/STM32U5xx_HAL_Driver/Inc/stm32u5xx_ll_bus.h ****   *         @arg @ref LL_AHB2_GRP2_PERIPH_FSMC (*)
1768:Drivers/STM32U5xx_HAL_Driver/Inc/stm32u5xx_ll_bus.h ****   *         @arg @ref LL_AHB2_GRP2_PERIPH_OCTOSPI1
1769:Drivers/STM32U5xx_HAL_Driver/Inc/stm32u5xx_ll_bus.h ****   *         @arg @ref LL_AHB2_GRP2_PERIPH_OCTOSPI2 (*)
1770:Drivers/STM32U5xx_HAL_Driver/Inc/stm32u5xx_ll_bus.h ****   *         @arg @ref LL_AHB2_GRP2_PERIPH_HSPI1 (*)
1771:Drivers/STM32U5xx_HAL_Driver/Inc/stm32u5xx_ll_bus.h ****   *         @arg @ref LL_AHB2_GRP2_PERIPH_SRAM6 (*)
1772:Drivers/STM32U5xx_HAL_Driver/Inc/stm32u5xx_ll_bus.h ****   *         @arg @ref LL_AHB2_GRP2_PERIPH_SRAM5 (*)
1773:Drivers/STM32U5xx_HAL_Driver/Inc/stm32u5xx_ll_bus.h ****   *
1774:Drivers/STM32U5xx_HAL_Driver/Inc/stm32u5xx_ll_bus.h ****   *        (*) value not defined in all devices.
1775:Drivers/STM32U5xx_HAL_Driver/Inc/stm32u5xx_ll_bus.h ****   * @retval State of Periphs (1 or 0).
1776:Drivers/STM32U5xx_HAL_Driver/Inc/stm32u5xx_ll_bus.h ****   */
1777:Drivers/STM32U5xx_HAL_Driver/Inc/stm32u5xx_ll_bus.h **** __STATIC_INLINE uint32_t LL_AHB2_GRP2_IsEnabledClockStopSleep(uint32_t Periphs)
1778:Drivers/STM32U5xx_HAL_Driver/Inc/stm32u5xx_ll_bus.h **** {
1779:Drivers/STM32U5xx_HAL_Driver/Inc/stm32u5xx_ll_bus.h ****   return ((READ_BIT(RCC->AHB2SMENR2, Periphs) == Periphs) ? 1UL : 0UL);
1780:Drivers/STM32U5xx_HAL_Driver/Inc/stm32u5xx_ll_bus.h **** }
1781:Drivers/STM32U5xx_HAL_Driver/Inc/stm32u5xx_ll_bus.h **** 
1782:Drivers/STM32U5xx_HAL_Driver/Inc/stm32u5xx_ll_bus.h **** /**
1783:Drivers/STM32U5xx_HAL_Driver/Inc/stm32u5xx_ll_bus.h ****   * @brief  Disable AHB2 peripheral clocks in Sleep and Stop modes
1784:Drivers/STM32U5xx_HAL_Driver/Inc/stm32u5xx_ll_bus.h ****   * @rmtoll AHB2SMENR2  FSMCSMEN            LL_AHB2_GRP2_DisableClockStopSleep\n
1785:Drivers/STM32U5xx_HAL_Driver/Inc/stm32u5xx_ll_bus.h ****   *         AHB2SMENR2  OCTOSPI1SMEN        LL_AHB2_GRP2_DisableClockStopSleep\n
1786:Drivers/STM32U5xx_HAL_Driver/Inc/stm32u5xx_ll_bus.h ****   *         AHB2SMENR2  OCTOSPI2SMEN        LL_AHB2_GRP2_DisableClockStopSleep\n
1787:Drivers/STM32U5xx_HAL_Driver/Inc/stm32u5xx_ll_bus.h ****   *         AHB2SMENR2  HSPI1SMEN           LL_AHB2_GRP2_DisableClockStopSleep\n
1788:Drivers/STM32U5xx_HAL_Driver/Inc/stm32u5xx_ll_bus.h ****   *         AHB2SMENR2  SRAM6SMEN           LL_AHB2_GRP2_DisableClockStopSleep\n
1789:Drivers/STM32U5xx_HAL_Driver/Inc/stm32u5xx_ll_bus.h ****   *         AHB2SMENR2  SRAM5SMEN           LL_AHB2_GRP2_DisableClockStopSleep\n
1790:Drivers/STM32U5xx_HAL_Driver/Inc/stm32u5xx_ll_bus.h ****   * @param  Periphs This parameter can be a combination of the following values:
1791:Drivers/STM32U5xx_HAL_Driver/Inc/stm32u5xx_ll_bus.h ****   *         @arg @ref LL_AHB2_GRP2_PERIPH_ALL
1792:Drivers/STM32U5xx_HAL_Driver/Inc/stm32u5xx_ll_bus.h ****   *         @arg @ref LL_AHB2_GRP2_PERIPH_FSMC (*)
1793:Drivers/STM32U5xx_HAL_Driver/Inc/stm32u5xx_ll_bus.h ****   *         @arg @ref LL_AHB2_GRP2_PERIPH_OCTOSPI1
1794:Drivers/STM32U5xx_HAL_Driver/Inc/stm32u5xx_ll_bus.h ****   *         @arg @ref LL_AHB2_GRP2_PERIPH_OCTOSPI2 (*)
1795:Drivers/STM32U5xx_HAL_Driver/Inc/stm32u5xx_ll_bus.h ****   *         @arg @ref LL_AHB2_GRP2_PERIPH_HSPI1 (*)
1796:Drivers/STM32U5xx_HAL_Driver/Inc/stm32u5xx_ll_bus.h ****   *         @arg @ref LL_AHB2_GRP2_PERIPH_SRAM6 (*)
1797:Drivers/STM32U5xx_HAL_Driver/Inc/stm32u5xx_ll_bus.h ****   *         @arg @ref LL_AHB2_GRP2_PERIPH_SRAM5 (*)
1798:Drivers/STM32U5xx_HAL_Driver/Inc/stm32u5xx_ll_bus.h ****   *
1799:Drivers/STM32U5xx_HAL_Driver/Inc/stm32u5xx_ll_bus.h ****   *        (*) value not defined in all devices.
1800:Drivers/STM32U5xx_HAL_Driver/Inc/stm32u5xx_ll_bus.h ****   * @retval None
1801:Drivers/STM32U5xx_HAL_Driver/Inc/stm32u5xx_ll_bus.h ****   */
1802:Drivers/STM32U5xx_HAL_Driver/Inc/stm32u5xx_ll_bus.h **** __STATIC_INLINE void LL_AHB2_GRP2_DisableClockStopSleep(uint32_t Periphs)
1803:Drivers/STM32U5xx_HAL_Driver/Inc/stm32u5xx_ll_bus.h **** {
1804:Drivers/STM32U5xx_HAL_Driver/Inc/stm32u5xx_ll_bus.h ****   CLEAR_BIT(RCC->AHB2SMENR2, Periphs);
1805:Drivers/STM32U5xx_HAL_Driver/Inc/stm32u5xx_ll_bus.h **** }
1806:Drivers/STM32U5xx_HAL_Driver/Inc/stm32u5xx_ll_bus.h **** 
1807:Drivers/STM32U5xx_HAL_Driver/Inc/stm32u5xx_ll_bus.h **** /**
1808:Drivers/STM32U5xx_HAL_Driver/Inc/stm32u5xx_ll_bus.h ****   * @}
1809:Drivers/STM32U5xx_HAL_Driver/Inc/stm32u5xx_ll_bus.h ****   */
1810:Drivers/STM32U5xx_HAL_Driver/Inc/stm32u5xx_ll_bus.h **** 
1811:Drivers/STM32U5xx_HAL_Driver/Inc/stm32u5xx_ll_bus.h **** /** @defgroup BUS_LL_EF_APB1 APB1
1812:Drivers/STM32U5xx_HAL_Driver/Inc/stm32u5xx_ll_bus.h ****   * @{
1813:Drivers/STM32U5xx_HAL_Driver/Inc/stm32u5xx_ll_bus.h ****   */
1814:Drivers/STM32U5xx_HAL_Driver/Inc/stm32u5xx_ll_bus.h **** 
1815:Drivers/STM32U5xx_HAL_Driver/Inc/stm32u5xx_ll_bus.h **** /**
1816:Drivers/STM32U5xx_HAL_Driver/Inc/stm32u5xx_ll_bus.h ****   * @brief  Enable APB1 bus clock.
1817:Drivers/STM32U5xx_HAL_Driver/Inc/stm32u5xx_ll_bus.h ****   * @rmtoll CFGR2    APB1DIS     LL_APB1_GRP1_EnableBusClock
1818:Drivers/STM32U5xx_HAL_Driver/Inc/stm32u5xx_ll_bus.h ****   * @retval None
1819:Drivers/STM32U5xx_HAL_Driver/Inc/stm32u5xx_ll_bus.h ****   */
ARM GAS  /tmp/ccyLpKvw.s 			page 47


1820:Drivers/STM32U5xx_HAL_Driver/Inc/stm32u5xx_ll_bus.h **** __STATIC_INLINE void LL_APB1_GRP1_EnableBusClock(void)
1821:Drivers/STM32U5xx_HAL_Driver/Inc/stm32u5xx_ll_bus.h **** {
1822:Drivers/STM32U5xx_HAL_Driver/Inc/stm32u5xx_ll_bus.h ****   __IO uint32_t tmpreg;
1823:Drivers/STM32U5xx_HAL_Driver/Inc/stm32u5xx_ll_bus.h ****   CLEAR_BIT(RCC->CFGR2, RCC_CFGR2_APB1DIS);
1824:Drivers/STM32U5xx_HAL_Driver/Inc/stm32u5xx_ll_bus.h ****   tmpreg = READ_BIT(RCC->CFGR2, RCC_CFGR2_APB1DIS);
1825:Drivers/STM32U5xx_HAL_Driver/Inc/stm32u5xx_ll_bus.h ****   (void)(tmpreg);
1826:Drivers/STM32U5xx_HAL_Driver/Inc/stm32u5xx_ll_bus.h **** }
1827:Drivers/STM32U5xx_HAL_Driver/Inc/stm32u5xx_ll_bus.h **** 
1828:Drivers/STM32U5xx_HAL_Driver/Inc/stm32u5xx_ll_bus.h **** /**
1829:Drivers/STM32U5xx_HAL_Driver/Inc/stm32u5xx_ll_bus.h ****   * @brief  Enable APB1 peripherals clock.
1830:Drivers/STM32U5xx_HAL_Driver/Inc/stm32u5xx_ll_bus.h ****   * @rmtoll APB1ENR1     TIM2EN        LL_APB1_GRP1_EnableClock\n
1831:Drivers/STM32U5xx_HAL_Driver/Inc/stm32u5xx_ll_bus.h ****   *         APB1ENR1     TIM3EN        LL_APB1_GRP1_EnableClock\n
1832:Drivers/STM32U5xx_HAL_Driver/Inc/stm32u5xx_ll_bus.h ****   *         APB1ENR1     TIM4EN        LL_APB1_GRP1_EnableClock\n
1833:Drivers/STM32U5xx_HAL_Driver/Inc/stm32u5xx_ll_bus.h ****   *         APB1ENR1     TIM5EN        LL_APB1_GRP1_EnableClock\n
1834:Drivers/STM32U5xx_HAL_Driver/Inc/stm32u5xx_ll_bus.h ****   *         APB1ENR1     TIM6EN        LL_APB1_GRP1_EnableClock\n
1835:Drivers/STM32U5xx_HAL_Driver/Inc/stm32u5xx_ll_bus.h ****   *         APB1ENR1     TIM7EN        LL_APB1_GRP1_EnableClock\n
1836:Drivers/STM32U5xx_HAL_Driver/Inc/stm32u5xx_ll_bus.h ****   *         APB1ENR1     WWDGEN        LL_APB1_GRP1_EnableClock\n
1837:Drivers/STM32U5xx_HAL_Driver/Inc/stm32u5xx_ll_bus.h ****   *         APB1ENR1     SPI2EN        LL_APB1_GRP1_EnableClock\n
1838:Drivers/STM32U5xx_HAL_Driver/Inc/stm32u5xx_ll_bus.h ****   *         APB1ENR1     USART2EN      LL_APB1_GRP1_EnableClock\n
1839:Drivers/STM32U5xx_HAL_Driver/Inc/stm32u5xx_ll_bus.h ****   *         APB1ENR1     USART3EN      LL_APB1_GRP1_EnableClock\n
1840:Drivers/STM32U5xx_HAL_Driver/Inc/stm32u5xx_ll_bus.h ****   *         APB1ENR1     UART4EN       LL_APB1_GRP1_EnableClock\n
1841:Drivers/STM32U5xx_HAL_Driver/Inc/stm32u5xx_ll_bus.h ****   *         APB1ENR1     UART5EN       LL_APB1_GRP1_EnableClock\n
1842:Drivers/STM32U5xx_HAL_Driver/Inc/stm32u5xx_ll_bus.h ****   *         APB1ENR1     I2C1EN        LL_APB1_GRP1_EnableClock\n
1843:Drivers/STM32U5xx_HAL_Driver/Inc/stm32u5xx_ll_bus.h ****   *         APB1ENR1     I2C2EN        LL_APB1_GRP1_EnableClock\n
1844:Drivers/STM32U5xx_HAL_Driver/Inc/stm32u5xx_ll_bus.h ****   *         APB1ENR1     CRSEN         LL_APB1_GRP1_EnableClock\n
1845:Drivers/STM32U5xx_HAL_Driver/Inc/stm32u5xx_ll_bus.h ****   *         APB1ENR1     USART6N       LL_APB1_GRP1_EnableClock\n
1846:Drivers/STM32U5xx_HAL_Driver/Inc/stm32u5xx_ll_bus.h ****   * @param  Periphs This parameter can be a combination of the following values:
1847:Drivers/STM32U5xx_HAL_Driver/Inc/stm32u5xx_ll_bus.h ****   *         @arg @ref LL_APB1_GRP1_PERIPH_ALL
1848:Drivers/STM32U5xx_HAL_Driver/Inc/stm32u5xx_ll_bus.h ****   *         @arg @ref LL_APB1_GRP1_PERIPH_TIM2
1849:Drivers/STM32U5xx_HAL_Driver/Inc/stm32u5xx_ll_bus.h ****   *         @arg @ref LL_APB1_GRP1_PERIPH_TIM3
1850:Drivers/STM32U5xx_HAL_Driver/Inc/stm32u5xx_ll_bus.h ****   *         @arg @ref LL_APB1_GRP1_PERIPH_TIM4
1851:Drivers/STM32U5xx_HAL_Driver/Inc/stm32u5xx_ll_bus.h ****   *         @arg @ref LL_APB1_GRP1_PERIPH_TIM5
1852:Drivers/STM32U5xx_HAL_Driver/Inc/stm32u5xx_ll_bus.h ****   *         @arg @ref LL_APB1_GRP1_PERIPH_TIM6
1853:Drivers/STM32U5xx_HAL_Driver/Inc/stm32u5xx_ll_bus.h ****   *         @arg @ref LL_APB1_GRP1_PERIPH_TIM7
1854:Drivers/STM32U5xx_HAL_Driver/Inc/stm32u5xx_ll_bus.h ****   *         @arg @ref LL_APB1_GRP1_PERIPH_WWDG
1855:Drivers/STM32U5xx_HAL_Driver/Inc/stm32u5xx_ll_bus.h ****   *         @arg @ref LL_APB1_GRP1_PERIPH_SPI2
1856:Drivers/STM32U5xx_HAL_Driver/Inc/stm32u5xx_ll_bus.h ****   *         @arg @ref LL_APB1_GRP1_PERIPH_USART2 (*)
1857:Drivers/STM32U5xx_HAL_Driver/Inc/stm32u5xx_ll_bus.h ****   *         @arg @ref LL_APB1_GRP1_PERIPH_USART3
1858:Drivers/STM32U5xx_HAL_Driver/Inc/stm32u5xx_ll_bus.h ****   *         @arg @ref LL_APB1_GRP1_PERIPH_UART4
1859:Drivers/STM32U5xx_HAL_Driver/Inc/stm32u5xx_ll_bus.h ****   *         @arg @ref LL_APB1_GRP1_PERIPH_UART5
1860:Drivers/STM32U5xx_HAL_Driver/Inc/stm32u5xx_ll_bus.h ****   *         @arg @ref LL_APB1_GRP1_PERIPH_I2C1
1861:Drivers/STM32U5xx_HAL_Driver/Inc/stm32u5xx_ll_bus.h ****   *         @arg @ref LL_APB1_GRP1_PERIPH_I2C2
1862:Drivers/STM32U5xx_HAL_Driver/Inc/stm32u5xx_ll_bus.h ****   *         @arg @ref LL_APB1_GRP1_PERIPH_CRS
1863:Drivers/STM32U5xx_HAL_Driver/Inc/stm32u5xx_ll_bus.h ****   *         @arg @ref LL_APB1_GRP1_PERIPH_USART6 (*)
1864:Drivers/STM32U5xx_HAL_Driver/Inc/stm32u5xx_ll_bus.h ****   *
1865:Drivers/STM32U5xx_HAL_Driver/Inc/stm32u5xx_ll_bus.h ****   *        (*) value not defined in all devices.
1866:Drivers/STM32U5xx_HAL_Driver/Inc/stm32u5xx_ll_bus.h ****   * @retval None
1867:Drivers/STM32U5xx_HAL_Driver/Inc/stm32u5xx_ll_bus.h ****   */
1868:Drivers/STM32U5xx_HAL_Driver/Inc/stm32u5xx_ll_bus.h **** __STATIC_INLINE void LL_APB1_GRP1_EnableClock(uint32_t Periphs)
1869:Drivers/STM32U5xx_HAL_Driver/Inc/stm32u5xx_ll_bus.h **** {
1870:Drivers/STM32U5xx_HAL_Driver/Inc/stm32u5xx_ll_bus.h ****   __IO uint32_t tmpreg;
1871:Drivers/STM32U5xx_HAL_Driver/Inc/stm32u5xx_ll_bus.h ****   SET_BIT(RCC->APB1ENR1, Periphs);
1872:Drivers/STM32U5xx_HAL_Driver/Inc/stm32u5xx_ll_bus.h ****   /* Delay after an RCC peripheral clock enabling */
1873:Drivers/STM32U5xx_HAL_Driver/Inc/stm32u5xx_ll_bus.h ****   tmpreg = READ_BIT(RCC->APB1ENR1, Periphs);
1874:Drivers/STM32U5xx_HAL_Driver/Inc/stm32u5xx_ll_bus.h ****   (void)tmpreg;
1875:Drivers/STM32U5xx_HAL_Driver/Inc/stm32u5xx_ll_bus.h **** }
1876:Drivers/STM32U5xx_HAL_Driver/Inc/stm32u5xx_ll_bus.h **** 
ARM GAS  /tmp/ccyLpKvw.s 			page 48


1877:Drivers/STM32U5xx_HAL_Driver/Inc/stm32u5xx_ll_bus.h **** /**
1878:Drivers/STM32U5xx_HAL_Driver/Inc/stm32u5xx_ll_bus.h ****   * @brief  Enable APB1 peripherals clock.
1879:Drivers/STM32U5xx_HAL_Driver/Inc/stm32u5xx_ll_bus.h ****   * @rmtoll APB1ENR2     I2C4EN        LL_APB1_GRP2_EnableClock\n
1880:Drivers/STM32U5xx_HAL_Driver/Inc/stm32u5xx_ll_bus.h ****   *         APB1ENR2     I2C5EN        LL_APB1_GRP2_EnableClock\n
1881:Drivers/STM32U5xx_HAL_Driver/Inc/stm32u5xx_ll_bus.h ****   *         APB1ENR2     I2C6EN        LL_APB1_GRP2_EnableClock\n
1882:Drivers/STM32U5xx_HAL_Driver/Inc/stm32u5xx_ll_bus.h ****   *         APB1ENR2     LPTIM2EN      LL_APB1_GRP2_EnableClock\n
1883:Drivers/STM32U5xx_HAL_Driver/Inc/stm32u5xx_ll_bus.h ****   *         APB1ENR2     FDCAN1EN      LL_APB1_GRP2_EnableClock\n
1884:Drivers/STM32U5xx_HAL_Driver/Inc/stm32u5xx_ll_bus.h ****   *         APB1ENR2     UCPD1EN       LL_APB1_GRP2_EnableClock
1885:Drivers/STM32U5xx_HAL_Driver/Inc/stm32u5xx_ll_bus.h ****   * @param  Periphs This parameter can be a combination of the following values:
1886:Drivers/STM32U5xx_HAL_Driver/Inc/stm32u5xx_ll_bus.h ****   *         @arg @ref LL_APB1_GRP2_PERIPH_ALL
1887:Drivers/STM32U5xx_HAL_Driver/Inc/stm32u5xx_ll_bus.h ****   *         @arg @ref LL_APB1_GRP2_PERIPH_I2C4
1888:Drivers/STM32U5xx_HAL_Driver/Inc/stm32u5xx_ll_bus.h ****   *         @arg @ref LL_APB1_GRP2_PERIPH_I2C5 (*)
1889:Drivers/STM32U5xx_HAL_Driver/Inc/stm32u5xx_ll_bus.h ****   *         @arg @ref LL_APB1_GRP2_PERIPH_I2C6 (*)
1890:Drivers/STM32U5xx_HAL_Driver/Inc/stm32u5xx_ll_bus.h ****   *         @arg @ref LL_APB1_GRP2_PERIPH_LPTIM2
1891:Drivers/STM32U5xx_HAL_Driver/Inc/stm32u5xx_ll_bus.h ****   *         @arg @ref LL_APB1_GRP2_PERIPH_FDCAN1
1892:Drivers/STM32U5xx_HAL_Driver/Inc/stm32u5xx_ll_bus.h ****   *         @arg @ref LL_APB1_GRP2_PERIPH_UCPD1 (*)
1893:Drivers/STM32U5xx_HAL_Driver/Inc/stm32u5xx_ll_bus.h ****   * @retval None
1894:Drivers/STM32U5xx_HAL_Driver/Inc/stm32u5xx_ll_bus.h ****   */
1895:Drivers/STM32U5xx_HAL_Driver/Inc/stm32u5xx_ll_bus.h **** __STATIC_INLINE void LL_APB1_GRP2_EnableClock(uint32_t Periphs)
 293              		.loc 2 1895 22 view .LVU85
 294              	.LBB15:
1896:Drivers/STM32U5xx_HAL_Driver/Inc/stm32u5xx_ll_bus.h **** {
1897:Drivers/STM32U5xx_HAL_Driver/Inc/stm32u5xx_ll_bus.h ****   __IO uint32_t tmpreg;
 295              		.loc 2 1897 3 view .LVU86
1898:Drivers/STM32U5xx_HAL_Driver/Inc/stm32u5xx_ll_bus.h ****   SET_BIT(RCC->APB1ENR2, Periphs);
 296              		.loc 2 1898 3 view .LVU87
 297 0012 1B4B     		ldr	r3, .L7
 298 0014 D3F8A020 		ldr	r2, [r3, #160]
 299 0018 42F40002 		orr	r2, r2, #8388608
 300 001c C3F8A020 		str	r2, [r3, #160]
1899:Drivers/STM32U5xx_HAL_Driver/Inc/stm32u5xx_ll_bus.h ****   /* Delay after an RCC peripheral clock enabling */
1900:Drivers/STM32U5xx_HAL_Driver/Inc/stm32u5xx_ll_bus.h ****   tmpreg = READ_BIT(RCC->APB1ENR2, Periphs);
 301              		.loc 2 1900 3 view .LVU88
 302              		.loc 2 1900 12 is_stmt 0 view .LVU89
 303 0020 D3F8A020 		ldr	r2, [r3, #160]
 304 0024 02F40002 		and	r2, r2, #8388608
 305              		.loc 2 1900 10 view .LVU90
 306 0028 0392     		str	r2, [sp, #12]
1901:Drivers/STM32U5xx_HAL_Driver/Inc/stm32u5xx_ll_bus.h ****   (void)tmpreg;
 307              		.loc 2 1901 3 is_stmt 1 view .LVU91
 308 002a 039A     		ldr	r2, [sp, #12]
 309              	.LVL10:
 310              		.loc 2 1901 3 is_stmt 0 view .LVU92
 311              	.LBE15:
 312              	.LBE14:
 333:Core/Src/main.c ****   LL_AHB2_GRP1_EnableClock(LL_AHB2_GRP1_PERIPH_GPIOA);
 313              		.loc 1 333 3 is_stmt 1 view .LVU93
 314              	.LBB16:
 315              	.LBI16:
 845:Drivers/STM32U5xx_HAL_Driver/Inc/stm32u5xx_ll_bus.h **** {
 316              		.loc 2 845 22 view .LVU94
 317              	.LBB17:
 847:Drivers/STM32U5xx_HAL_Driver/Inc/stm32u5xx_ll_bus.h ****   SET_BIT(RCC->AHB2ENR1, Periphs);
 318              		.loc 2 847 3 view .LVU95
 848:Drivers/STM32U5xx_HAL_Driver/Inc/stm32u5xx_ll_bus.h ****   /* Delay after an RCC peripheral clock enabling */
 319              		.loc 2 848 3 view .LVU96
 320 002c D3F88C20 		ldr	r2, [r3, #140]
ARM GAS  /tmp/ccyLpKvw.s 			page 49


 321 0030 42F00202 		orr	r2, r2, #2
 322 0034 C3F88C20 		str	r2, [r3, #140]
 850:Drivers/STM32U5xx_HAL_Driver/Inc/stm32u5xx_ll_bus.h ****   (void)tmpreg;
 323              		.loc 2 850 3 view .LVU97
 850:Drivers/STM32U5xx_HAL_Driver/Inc/stm32u5xx_ll_bus.h ****   (void)tmpreg;
 324              		.loc 2 850 12 is_stmt 0 view .LVU98
 325 0038 D3F88C20 		ldr	r2, [r3, #140]
 326 003c 02F00202 		and	r2, r2, #2
 850:Drivers/STM32U5xx_HAL_Driver/Inc/stm32u5xx_ll_bus.h ****   (void)tmpreg;
 327              		.loc 2 850 10 view .LVU99
 328 0040 0292     		str	r2, [sp, #8]
 851:Drivers/STM32U5xx_HAL_Driver/Inc/stm32u5xx_ll_bus.h **** }
 329              		.loc 2 851 3 is_stmt 1 view .LVU100
 330 0042 029A     		ldr	r2, [sp, #8]
 331              	.LVL11:
 851:Drivers/STM32U5xx_HAL_Driver/Inc/stm32u5xx_ll_bus.h **** }
 332              		.loc 2 851 3 is_stmt 0 view .LVU101
 333              	.LBE17:
 334              	.LBE16:
 334:Core/Src/main.c ****   /**UCPD1 GPIO Configuration
 335              		.loc 1 334 3 is_stmt 1 view .LVU102
 336              	.LBB18:
 337              	.LBI18:
 845:Drivers/STM32U5xx_HAL_Driver/Inc/stm32u5xx_ll_bus.h **** {
 338              		.loc 2 845 22 view .LVU103
 339              	.LBB19:
 847:Drivers/STM32U5xx_HAL_Driver/Inc/stm32u5xx_ll_bus.h ****   SET_BIT(RCC->AHB2ENR1, Periphs);
 340              		.loc 2 847 3 view .LVU104
 848:Drivers/STM32U5xx_HAL_Driver/Inc/stm32u5xx_ll_bus.h ****   /* Delay after an RCC peripheral clock enabling */
 341              		.loc 2 848 3 view .LVU105
 342 0044 D3F88C20 		ldr	r2, [r3, #140]
 343 0048 42F00102 		orr	r2, r2, #1
 344 004c C3F88C20 		str	r2, [r3, #140]
 850:Drivers/STM32U5xx_HAL_Driver/Inc/stm32u5xx_ll_bus.h ****   (void)tmpreg;
 345              		.loc 2 850 3 view .LVU106
 850:Drivers/STM32U5xx_HAL_Driver/Inc/stm32u5xx_ll_bus.h ****   (void)tmpreg;
 346              		.loc 2 850 12 is_stmt 0 view .LVU107
 347 0050 D3F88C30 		ldr	r3, [r3, #140]
 348 0054 03F00103 		and	r3, r3, #1
 850:Drivers/STM32U5xx_HAL_Driver/Inc/stm32u5xx_ll_bus.h ****   (void)tmpreg;
 349              		.loc 2 850 10 view .LVU108
 350 0058 0193     		str	r3, [sp, #4]
 851:Drivers/STM32U5xx_HAL_Driver/Inc/stm32u5xx_ll_bus.h **** }
 351              		.loc 2 851 3 is_stmt 1 view .LVU109
 352 005a 019B     		ldr	r3, [sp, #4]
 353              	.LVL12:
 851:Drivers/STM32U5xx_HAL_Driver/Inc/stm32u5xx_ll_bus.h **** }
 354              		.loc 2 851 3 is_stmt 0 view .LVU110
