ARM GAS  /tmp/cc0vokHo.s 			page 1


   1              		.cpu cortex-m33
   2              		.arch armv8-m.main
   3              		.fpu fpv4-sp-d16
   4              		.arch_extension dsp
   5              		.eabi_attribute 27, 1
   6              		.eabi_attribute 28, 1
   7              		.eabi_attribute 20, 1
   8              		.eabi_attribute 21, 1
   9              		.eabi_attribute 23, 3
  10              		.eabi_attribute 24, 1
  11              		.eabi_attribute 25, 1
  12              		.eabi_attribute 26, 1
  13              		.eabi_attribute 30, 1
  14              		.eabi_attribute 34, 1
  15              		.eabi_attribute 18, 4
  16              		.file	"stm32u5xx_ll_usb.c"
  17              		.text
  18              	.Ltext0:
  19              		.cfi_sections	.debug_frame
  20              		.section	.text.USB_CoreReset,"ax",%progbits
  21              		.align	1
  22              		.syntax unified
  23              		.thumb
  24              		.thumb_func
  26              	USB_CoreReset:
  27              	.LVL0:
  28              	.LFB379:
  29              		.file 1 "Drivers/STM32U5xx_HAL_Driver/Src/stm32u5xx_ll_usb.c"
   1:Drivers/STM32U5xx_HAL_Driver/Src/stm32u5xx_ll_usb.c **** /**
   2:Drivers/STM32U5xx_HAL_Driver/Src/stm32u5xx_ll_usb.c ****   ******************************************************************************
   3:Drivers/STM32U5xx_HAL_Driver/Src/stm32u5xx_ll_usb.c ****   * @file    stm32u5xx_ll_usb.c
   4:Drivers/STM32U5xx_HAL_Driver/Src/stm32u5xx_ll_usb.c ****   * @author  MCD Application Team
   5:Drivers/STM32U5xx_HAL_Driver/Src/stm32u5xx_ll_usb.c ****   * @brief   USB Low Layer HAL module driver.
   6:Drivers/STM32U5xx_HAL_Driver/Src/stm32u5xx_ll_usb.c ****   *
   7:Drivers/STM32U5xx_HAL_Driver/Src/stm32u5xx_ll_usb.c ****   *          This file provides firmware functions to manage the following
   8:Drivers/STM32U5xx_HAL_Driver/Src/stm32u5xx_ll_usb.c ****   *          functionalities of the USB Peripheral Controller:
   9:Drivers/STM32U5xx_HAL_Driver/Src/stm32u5xx_ll_usb.c ****   *           + Initialization/de-initialization functions
  10:Drivers/STM32U5xx_HAL_Driver/Src/stm32u5xx_ll_usb.c ****   *           + I/O operation functions
  11:Drivers/STM32U5xx_HAL_Driver/Src/stm32u5xx_ll_usb.c ****   *           + Peripheral Control functions
  12:Drivers/STM32U5xx_HAL_Driver/Src/stm32u5xx_ll_usb.c ****   *           + Peripheral State functions
  13:Drivers/STM32U5xx_HAL_Driver/Src/stm32u5xx_ll_usb.c ****   *
  14:Drivers/STM32U5xx_HAL_Driver/Src/stm32u5xx_ll_usb.c ****   ******************************************************************************
  15:Drivers/STM32U5xx_HAL_Driver/Src/stm32u5xx_ll_usb.c ****   * @attention
  16:Drivers/STM32U5xx_HAL_Driver/Src/stm32u5xx_ll_usb.c ****   *
  17:Drivers/STM32U5xx_HAL_Driver/Src/stm32u5xx_ll_usb.c ****   * Copyright (c) 2021 STMicroelectronics.
  18:Drivers/STM32U5xx_HAL_Driver/Src/stm32u5xx_ll_usb.c ****   * All rights reserved.
  19:Drivers/STM32U5xx_HAL_Driver/Src/stm32u5xx_ll_usb.c ****   *
  20:Drivers/STM32U5xx_HAL_Driver/Src/stm32u5xx_ll_usb.c ****   * This software is licensed under terms that can be found in the LICENSE file
  21:Drivers/STM32U5xx_HAL_Driver/Src/stm32u5xx_ll_usb.c ****   * in the root directory of this software component.
  22:Drivers/STM32U5xx_HAL_Driver/Src/stm32u5xx_ll_usb.c ****   * If no LICENSE file comes with this software, it is provided AS-IS.
  23:Drivers/STM32U5xx_HAL_Driver/Src/stm32u5xx_ll_usb.c ****   *
  24:Drivers/STM32U5xx_HAL_Driver/Src/stm32u5xx_ll_usb.c ****   ******************************************************************************
  25:Drivers/STM32U5xx_HAL_Driver/Src/stm32u5xx_ll_usb.c ****   @verbatim
  26:Drivers/STM32U5xx_HAL_Driver/Src/stm32u5xx_ll_usb.c ****   ==============================================================================
  27:Drivers/STM32U5xx_HAL_Driver/Src/stm32u5xx_ll_usb.c ****                     ##### How to use this driver #####
  28:Drivers/STM32U5xx_HAL_Driver/Src/stm32u5xx_ll_usb.c ****   ==============================================================================
  29:Drivers/STM32U5xx_HAL_Driver/Src/stm32u5xx_ll_usb.c ****     [..]
ARM GAS  /tmp/cc0vokHo.s 			page 2


  30:Drivers/STM32U5xx_HAL_Driver/Src/stm32u5xx_ll_usb.c ****       (#) Fill parameters of Init structure in USB_CfgTypeDef structure.
  31:Drivers/STM32U5xx_HAL_Driver/Src/stm32u5xx_ll_usb.c **** 
  32:Drivers/STM32U5xx_HAL_Driver/Src/stm32u5xx_ll_usb.c ****       (#) Call USB_CoreInit() API to initialize the USB Core peripheral.
  33:Drivers/STM32U5xx_HAL_Driver/Src/stm32u5xx_ll_usb.c **** 
  34:Drivers/STM32U5xx_HAL_Driver/Src/stm32u5xx_ll_usb.c ****       (#) The upper HAL HCD/PCD driver will call the right routines for its internal processes.
  35:Drivers/STM32U5xx_HAL_Driver/Src/stm32u5xx_ll_usb.c **** 
  36:Drivers/STM32U5xx_HAL_Driver/Src/stm32u5xx_ll_usb.c ****   @endverbatim
  37:Drivers/STM32U5xx_HAL_Driver/Src/stm32u5xx_ll_usb.c **** 
  38:Drivers/STM32U5xx_HAL_Driver/Src/stm32u5xx_ll_usb.c ****   ******************************************************************************
  39:Drivers/STM32U5xx_HAL_Driver/Src/stm32u5xx_ll_usb.c ****   */
  40:Drivers/STM32U5xx_HAL_Driver/Src/stm32u5xx_ll_usb.c **** 
  41:Drivers/STM32U5xx_HAL_Driver/Src/stm32u5xx_ll_usb.c **** /* Includes ------------------------------------------------------------------*/
  42:Drivers/STM32U5xx_HAL_Driver/Src/stm32u5xx_ll_usb.c **** #include "stm32u5xx_hal.h"
  43:Drivers/STM32U5xx_HAL_Driver/Src/stm32u5xx_ll_usb.c **** 
  44:Drivers/STM32U5xx_HAL_Driver/Src/stm32u5xx_ll_usb.c **** /** @addtogroup STM32U5xx_LL_USB_DRIVER
  45:Drivers/STM32U5xx_HAL_Driver/Src/stm32u5xx_ll_usb.c ****   * @{
  46:Drivers/STM32U5xx_HAL_Driver/Src/stm32u5xx_ll_usb.c ****   */
  47:Drivers/STM32U5xx_HAL_Driver/Src/stm32u5xx_ll_usb.c **** 
  48:Drivers/STM32U5xx_HAL_Driver/Src/stm32u5xx_ll_usb.c **** #if defined (HAL_PCD_MODULE_ENABLED) || defined (HAL_HCD_MODULE_ENABLED)
  49:Drivers/STM32U5xx_HAL_Driver/Src/stm32u5xx_ll_usb.c **** #if defined (USB_OTG_FS) || defined (USB_OTG_HS) || defined (USB_DRD_FS)
  50:Drivers/STM32U5xx_HAL_Driver/Src/stm32u5xx_ll_usb.c **** /* Private typedef -----------------------------------------------------------*/
  51:Drivers/STM32U5xx_HAL_Driver/Src/stm32u5xx_ll_usb.c **** /* Private define ------------------------------------------------------------*/
  52:Drivers/STM32U5xx_HAL_Driver/Src/stm32u5xx_ll_usb.c **** /* Private macro -------------------------------------------------------------*/
  53:Drivers/STM32U5xx_HAL_Driver/Src/stm32u5xx_ll_usb.c **** /* Private variables ---------------------------------------------------------*/
  54:Drivers/STM32U5xx_HAL_Driver/Src/stm32u5xx_ll_usb.c **** /* Private function prototypes -----------------------------------------------*/
  55:Drivers/STM32U5xx_HAL_Driver/Src/stm32u5xx_ll_usb.c **** /* Private functions ---------------------------------------------------------*/
  56:Drivers/STM32U5xx_HAL_Driver/Src/stm32u5xx_ll_usb.c **** #if defined (USB_OTG_FS) || defined (USB_OTG_HS)
  57:Drivers/STM32U5xx_HAL_Driver/Src/stm32u5xx_ll_usb.c **** static HAL_StatusTypeDef USB_CoreReset(USB_OTG_GlobalTypeDef *USBx);
  58:Drivers/STM32U5xx_HAL_Driver/Src/stm32u5xx_ll_usb.c **** 
  59:Drivers/STM32U5xx_HAL_Driver/Src/stm32u5xx_ll_usb.c **** /* Exported functions --------------------------------------------------------*/
  60:Drivers/STM32U5xx_HAL_Driver/Src/stm32u5xx_ll_usb.c **** /** @defgroup USB_LL_Exported_Functions USB Low Layer Exported Functions
  61:Drivers/STM32U5xx_HAL_Driver/Src/stm32u5xx_ll_usb.c ****   * @{
  62:Drivers/STM32U5xx_HAL_Driver/Src/stm32u5xx_ll_usb.c ****   */
  63:Drivers/STM32U5xx_HAL_Driver/Src/stm32u5xx_ll_usb.c **** 
  64:Drivers/STM32U5xx_HAL_Driver/Src/stm32u5xx_ll_usb.c **** /** @defgroup USB_LL_Exported_Functions_Group1 Initialization/de-initialization functions
  65:Drivers/STM32U5xx_HAL_Driver/Src/stm32u5xx_ll_usb.c ****   *  @brief    Initialization and Configuration functions
  66:Drivers/STM32U5xx_HAL_Driver/Src/stm32u5xx_ll_usb.c ****   *
  67:Drivers/STM32U5xx_HAL_Driver/Src/stm32u5xx_ll_usb.c **** @verbatim
  68:Drivers/STM32U5xx_HAL_Driver/Src/stm32u5xx_ll_usb.c ****  ===============================================================================
  69:Drivers/STM32U5xx_HAL_Driver/Src/stm32u5xx_ll_usb.c ****                       ##### Initialization/de-initialization functions #####
  70:Drivers/STM32U5xx_HAL_Driver/Src/stm32u5xx_ll_usb.c ****  ===============================================================================
  71:Drivers/STM32U5xx_HAL_Driver/Src/stm32u5xx_ll_usb.c **** 
  72:Drivers/STM32U5xx_HAL_Driver/Src/stm32u5xx_ll_usb.c **** @endverbatim
  73:Drivers/STM32U5xx_HAL_Driver/Src/stm32u5xx_ll_usb.c ****   * @{
  74:Drivers/STM32U5xx_HAL_Driver/Src/stm32u5xx_ll_usb.c ****   */
  75:Drivers/STM32U5xx_HAL_Driver/Src/stm32u5xx_ll_usb.c **** 
  76:Drivers/STM32U5xx_HAL_Driver/Src/stm32u5xx_ll_usb.c **** /**
  77:Drivers/STM32U5xx_HAL_Driver/Src/stm32u5xx_ll_usb.c ****   * @brief  Initializes the USB Core
  78:Drivers/STM32U5xx_HAL_Driver/Src/stm32u5xx_ll_usb.c ****   * @param  USBx USB Instance
  79:Drivers/STM32U5xx_HAL_Driver/Src/stm32u5xx_ll_usb.c ****   * @param  cfg pointer to a USB_OTG_CfgTypeDef structure that contains
  80:Drivers/STM32U5xx_HAL_Driver/Src/stm32u5xx_ll_usb.c ****   *         the configuration information for the specified USBx peripheral.
  81:Drivers/STM32U5xx_HAL_Driver/Src/stm32u5xx_ll_usb.c ****   * @retval HAL status
  82:Drivers/STM32U5xx_HAL_Driver/Src/stm32u5xx_ll_usb.c ****   */
  83:Drivers/STM32U5xx_HAL_Driver/Src/stm32u5xx_ll_usb.c **** HAL_StatusTypeDef USB_CoreInit(USB_OTG_GlobalTypeDef *USBx, USB_OTG_CfgTypeDef cfg)
  84:Drivers/STM32U5xx_HAL_Driver/Src/stm32u5xx_ll_usb.c **** {
  85:Drivers/STM32U5xx_HAL_Driver/Src/stm32u5xx_ll_usb.c ****   HAL_StatusTypeDef ret;
  86:Drivers/STM32U5xx_HAL_Driver/Src/stm32u5xx_ll_usb.c **** #if defined (STM32U595xx) || defined (STM32U5A5xx) || defined (STM32U599xx) || defined (STM32U5A9xx
ARM GAS  /tmp/cc0vokHo.s 			page 3


  87:Drivers/STM32U5xx_HAL_Driver/Src/stm32u5xx_ll_usb.c ****  || defined (STM32U5F7xx) || defined (STM32U5G7xx) || defined (STM32U5F9xx) || defined (STM32U5G9xx
  88:Drivers/STM32U5xx_HAL_Driver/Src/stm32u5xx_ll_usb.c ****   if (cfg.phy_itface == USB_OTG_HS_EMBEDDED_PHY)
  89:Drivers/STM32U5xx_HAL_Driver/Src/stm32u5xx_ll_usb.c ****   {
  90:Drivers/STM32U5xx_HAL_Driver/Src/stm32u5xx_ll_usb.c ****     /* Init The UTMI Interface */
  91:Drivers/STM32U5xx_HAL_Driver/Src/stm32u5xx_ll_usb.c ****     USBx->GUSBCFG &= ~(USB_OTG_GUSBCFG_TSDPS);
  92:Drivers/STM32U5xx_HAL_Driver/Src/stm32u5xx_ll_usb.c ****   }
  93:Drivers/STM32U5xx_HAL_Driver/Src/stm32u5xx_ll_usb.c **** 
  94:Drivers/STM32U5xx_HAL_Driver/Src/stm32u5xx_ll_usb.c ****   /* Reset after a PHY select */
  95:Drivers/STM32U5xx_HAL_Driver/Src/stm32u5xx_ll_usb.c ****   ret = USB_CoreReset(USBx);
  96:Drivers/STM32U5xx_HAL_Driver/Src/stm32u5xx_ll_usb.c **** 
  97:Drivers/STM32U5xx_HAL_Driver/Src/stm32u5xx_ll_usb.c ****   if (cfg.dma_enable == 1U)
  98:Drivers/STM32U5xx_HAL_Driver/Src/stm32u5xx_ll_usb.c ****   {
  99:Drivers/STM32U5xx_HAL_Driver/Src/stm32u5xx_ll_usb.c ****     USBx->GAHBCFG |= USB_OTG_GAHBCFG_HBSTLEN_2;
 100:Drivers/STM32U5xx_HAL_Driver/Src/stm32u5xx_ll_usb.c ****     USBx->GAHBCFG |= USB_OTG_GAHBCFG_DMAEN;
 101:Drivers/STM32U5xx_HAL_Driver/Src/stm32u5xx_ll_usb.c ****   }
 102:Drivers/STM32U5xx_HAL_Driver/Src/stm32u5xx_ll_usb.c **** 
 103:Drivers/STM32U5xx_HAL_Driver/Src/stm32u5xx_ll_usb.c **** #else
 104:Drivers/STM32U5xx_HAL_Driver/Src/stm32u5xx_ll_usb.c **** 
 105:Drivers/STM32U5xx_HAL_Driver/Src/stm32u5xx_ll_usb.c ****   /* Select FS Embedded PHY */
 106:Drivers/STM32U5xx_HAL_Driver/Src/stm32u5xx_ll_usb.c ****   USBx->GUSBCFG |= USB_OTG_GUSBCFG_PHYSEL;
 107:Drivers/STM32U5xx_HAL_Driver/Src/stm32u5xx_ll_usb.c **** 
 108:Drivers/STM32U5xx_HAL_Driver/Src/stm32u5xx_ll_usb.c ****   /* Reset after a PHY select */
 109:Drivers/STM32U5xx_HAL_Driver/Src/stm32u5xx_ll_usb.c ****   ret = USB_CoreReset(USBx);
 110:Drivers/STM32U5xx_HAL_Driver/Src/stm32u5xx_ll_usb.c **** 
 111:Drivers/STM32U5xx_HAL_Driver/Src/stm32u5xx_ll_usb.c ****   if (cfg.battery_charging_enable == 0U)
 112:Drivers/STM32U5xx_HAL_Driver/Src/stm32u5xx_ll_usb.c ****   {
 113:Drivers/STM32U5xx_HAL_Driver/Src/stm32u5xx_ll_usb.c ****     /* Activate the USB Transceiver */
 114:Drivers/STM32U5xx_HAL_Driver/Src/stm32u5xx_ll_usb.c ****     USBx->GCCFG |= USB_OTG_GCCFG_PWRDWN;
 115:Drivers/STM32U5xx_HAL_Driver/Src/stm32u5xx_ll_usb.c ****   }
 116:Drivers/STM32U5xx_HAL_Driver/Src/stm32u5xx_ll_usb.c ****   else
 117:Drivers/STM32U5xx_HAL_Driver/Src/stm32u5xx_ll_usb.c ****   {
 118:Drivers/STM32U5xx_HAL_Driver/Src/stm32u5xx_ll_usb.c ****     /* Deactivate the USB Transceiver */
 119:Drivers/STM32U5xx_HAL_Driver/Src/stm32u5xx_ll_usb.c ****     USBx->GCCFG &= ~(USB_OTG_GCCFG_PWRDWN);
 120:Drivers/STM32U5xx_HAL_Driver/Src/stm32u5xx_ll_usb.c ****   }
 121:Drivers/STM32U5xx_HAL_Driver/Src/stm32u5xx_ll_usb.c **** #endif /* defined (STM32U595xx) || defined (STM32U5A5xx) || defined (STM32U599xx) || defined (STM32
 122:Drivers/STM32U5xx_HAL_Driver/Src/stm32u5xx_ll_usb.c ****           defined (STM32U5F7xx) || defined (STM32U5G7xx) || defined (STM32U5F9xx) || defined (STM32
 123:Drivers/STM32U5xx_HAL_Driver/Src/stm32u5xx_ll_usb.c **** 
 124:Drivers/STM32U5xx_HAL_Driver/Src/stm32u5xx_ll_usb.c ****   return ret;
 125:Drivers/STM32U5xx_HAL_Driver/Src/stm32u5xx_ll_usb.c **** }
 126:Drivers/STM32U5xx_HAL_Driver/Src/stm32u5xx_ll_usb.c **** 
 127:Drivers/STM32U5xx_HAL_Driver/Src/stm32u5xx_ll_usb.c **** 
 128:Drivers/STM32U5xx_HAL_Driver/Src/stm32u5xx_ll_usb.c **** /**
 129:Drivers/STM32U5xx_HAL_Driver/Src/stm32u5xx_ll_usb.c ****   * @brief  Set the USB turnaround time
 130:Drivers/STM32U5xx_HAL_Driver/Src/stm32u5xx_ll_usb.c ****   * @param  USBx USB Instance
 131:Drivers/STM32U5xx_HAL_Driver/Src/stm32u5xx_ll_usb.c ****   * @param  hclk: AHB clock frequency
 132:Drivers/STM32U5xx_HAL_Driver/Src/stm32u5xx_ll_usb.c ****   * @retval USB turnaround time In PHY Clocks number
 133:Drivers/STM32U5xx_HAL_Driver/Src/stm32u5xx_ll_usb.c ****   */
 134:Drivers/STM32U5xx_HAL_Driver/Src/stm32u5xx_ll_usb.c **** HAL_StatusTypeDef USB_SetTurnaroundTime(USB_OTG_GlobalTypeDef *USBx,
 135:Drivers/STM32U5xx_HAL_Driver/Src/stm32u5xx_ll_usb.c ****                                         uint32_t hclk, uint8_t speed)
 136:Drivers/STM32U5xx_HAL_Driver/Src/stm32u5xx_ll_usb.c **** {
 137:Drivers/STM32U5xx_HAL_Driver/Src/stm32u5xx_ll_usb.c ****   uint32_t UsbTrd;
 138:Drivers/STM32U5xx_HAL_Driver/Src/stm32u5xx_ll_usb.c **** 
 139:Drivers/STM32U5xx_HAL_Driver/Src/stm32u5xx_ll_usb.c ****   /* The USBTRD is configured according to the tables below, depending on AHB frequency
 140:Drivers/STM32U5xx_HAL_Driver/Src/stm32u5xx_ll_usb.c ****   used by application. In the low AHB frequency range it is used to stretch enough the USB response
 141:Drivers/STM32U5xx_HAL_Driver/Src/stm32u5xx_ll_usb.c ****   time to IN tokens, the USB turnaround time, so to compensate for the longer AHB read access
 142:Drivers/STM32U5xx_HAL_Driver/Src/stm32u5xx_ll_usb.c ****   latency to the Data FIFO */
 143:Drivers/STM32U5xx_HAL_Driver/Src/stm32u5xx_ll_usb.c ****   if (speed == USBD_FS_SPEED)
ARM GAS  /tmp/cc0vokHo.s 			page 4


 144:Drivers/STM32U5xx_HAL_Driver/Src/stm32u5xx_ll_usb.c ****   {
 145:Drivers/STM32U5xx_HAL_Driver/Src/stm32u5xx_ll_usb.c ****     if ((hclk >= 14200000U) && (hclk < 15000000U))
 146:Drivers/STM32U5xx_HAL_Driver/Src/stm32u5xx_ll_usb.c ****     {
 147:Drivers/STM32U5xx_HAL_Driver/Src/stm32u5xx_ll_usb.c ****       /* hclk Clock Range between 14.2-15 MHz */
 148:Drivers/STM32U5xx_HAL_Driver/Src/stm32u5xx_ll_usb.c ****       UsbTrd = 0xFU;
 149:Drivers/STM32U5xx_HAL_Driver/Src/stm32u5xx_ll_usb.c ****     }
 150:Drivers/STM32U5xx_HAL_Driver/Src/stm32u5xx_ll_usb.c ****     else if ((hclk >= 15000000U) && (hclk < 16000000U))
 151:Drivers/STM32U5xx_HAL_Driver/Src/stm32u5xx_ll_usb.c ****     {
 152:Drivers/STM32U5xx_HAL_Driver/Src/stm32u5xx_ll_usb.c ****       /* hclk Clock Range between 15-16 MHz */
 153:Drivers/STM32U5xx_HAL_Driver/Src/stm32u5xx_ll_usb.c ****       UsbTrd = 0xEU;
 154:Drivers/STM32U5xx_HAL_Driver/Src/stm32u5xx_ll_usb.c ****     }
 155:Drivers/STM32U5xx_HAL_Driver/Src/stm32u5xx_ll_usb.c ****     else if ((hclk >= 16000000U) && (hclk < 17200000U))
 156:Drivers/STM32U5xx_HAL_Driver/Src/stm32u5xx_ll_usb.c ****     {
 157:Drivers/STM32U5xx_HAL_Driver/Src/stm32u5xx_ll_usb.c ****       /* hclk Clock Range between 16-17.2 MHz */
 158:Drivers/STM32U5xx_HAL_Driver/Src/stm32u5xx_ll_usb.c ****       UsbTrd = 0xDU;
 159:Drivers/STM32U5xx_HAL_Driver/Src/stm32u5xx_ll_usb.c ****     }
 160:Drivers/STM32U5xx_HAL_Driver/Src/stm32u5xx_ll_usb.c ****     else if ((hclk >= 17200000U) && (hclk < 18500000U))
 161:Drivers/STM32U5xx_HAL_Driver/Src/stm32u5xx_ll_usb.c ****     {
 162:Drivers/STM32U5xx_HAL_Driver/Src/stm32u5xx_ll_usb.c ****       /* hclk Clock Range between 17.2-18.5 MHz */
 163:Drivers/STM32U5xx_HAL_Driver/Src/stm32u5xx_ll_usb.c ****       UsbTrd = 0xCU;
 164:Drivers/STM32U5xx_HAL_Driver/Src/stm32u5xx_ll_usb.c ****     }
 165:Drivers/STM32U5xx_HAL_Driver/Src/stm32u5xx_ll_usb.c ****     else if ((hclk >= 18500000U) && (hclk < 20000000U))
 166:Drivers/STM32U5xx_HAL_Driver/Src/stm32u5xx_ll_usb.c ****     {
 167:Drivers/STM32U5xx_HAL_Driver/Src/stm32u5xx_ll_usb.c ****       /* hclk Clock Range between 18.5-20 MHz */
 168:Drivers/STM32U5xx_HAL_Driver/Src/stm32u5xx_ll_usb.c ****       UsbTrd = 0xBU;
 169:Drivers/STM32U5xx_HAL_Driver/Src/stm32u5xx_ll_usb.c ****     }
 170:Drivers/STM32U5xx_HAL_Driver/Src/stm32u5xx_ll_usb.c ****     else if ((hclk >= 20000000U) && (hclk < 21800000U))
 171:Drivers/STM32U5xx_HAL_Driver/Src/stm32u5xx_ll_usb.c ****     {
 172:Drivers/STM32U5xx_HAL_Driver/Src/stm32u5xx_ll_usb.c ****       /* hclk Clock Range between 20-21.8 MHz */
 173:Drivers/STM32U5xx_HAL_Driver/Src/stm32u5xx_ll_usb.c ****       UsbTrd = 0xAU;
 174:Drivers/STM32U5xx_HAL_Driver/Src/stm32u5xx_ll_usb.c ****     }
 175:Drivers/STM32U5xx_HAL_Driver/Src/stm32u5xx_ll_usb.c ****     else if ((hclk >= 21800000U) && (hclk < 24000000U))
 176:Drivers/STM32U5xx_HAL_Driver/Src/stm32u5xx_ll_usb.c ****     {
 177:Drivers/STM32U5xx_HAL_Driver/Src/stm32u5xx_ll_usb.c ****       /* hclk Clock Range between 21.8-24 MHz */
 178:Drivers/STM32U5xx_HAL_Driver/Src/stm32u5xx_ll_usb.c ****       UsbTrd = 0x9U;
 179:Drivers/STM32U5xx_HAL_Driver/Src/stm32u5xx_ll_usb.c ****     }
 180:Drivers/STM32U5xx_HAL_Driver/Src/stm32u5xx_ll_usb.c ****     else if ((hclk >= 24000000U) && (hclk < 27700000U))
 181:Drivers/STM32U5xx_HAL_Driver/Src/stm32u5xx_ll_usb.c ****     {
 182:Drivers/STM32U5xx_HAL_Driver/Src/stm32u5xx_ll_usb.c ****       /* hclk Clock Range between 24-27.7 MHz */
 183:Drivers/STM32U5xx_HAL_Driver/Src/stm32u5xx_ll_usb.c ****       UsbTrd = 0x8U;
 184:Drivers/STM32U5xx_HAL_Driver/Src/stm32u5xx_ll_usb.c ****     }
 185:Drivers/STM32U5xx_HAL_Driver/Src/stm32u5xx_ll_usb.c ****     else if ((hclk >= 27700000U) && (hclk < 32000000U))
 186:Drivers/STM32U5xx_HAL_Driver/Src/stm32u5xx_ll_usb.c ****     {
 187:Drivers/STM32U5xx_HAL_Driver/Src/stm32u5xx_ll_usb.c ****       /* hclk Clock Range between 27.7-32 MHz */
 188:Drivers/STM32U5xx_HAL_Driver/Src/stm32u5xx_ll_usb.c ****       UsbTrd = 0x7U;
 189:Drivers/STM32U5xx_HAL_Driver/Src/stm32u5xx_ll_usb.c ****     }
 190:Drivers/STM32U5xx_HAL_Driver/Src/stm32u5xx_ll_usb.c ****     else /* if(hclk >= 32000000) */
 191:Drivers/STM32U5xx_HAL_Driver/Src/stm32u5xx_ll_usb.c ****     {
 192:Drivers/STM32U5xx_HAL_Driver/Src/stm32u5xx_ll_usb.c ****       /* hclk Clock Range between 32-200 MHz */
 193:Drivers/STM32U5xx_HAL_Driver/Src/stm32u5xx_ll_usb.c ****       UsbTrd = 0x6U;
 194:Drivers/STM32U5xx_HAL_Driver/Src/stm32u5xx_ll_usb.c ****     }
 195:Drivers/STM32U5xx_HAL_Driver/Src/stm32u5xx_ll_usb.c ****   }
 196:Drivers/STM32U5xx_HAL_Driver/Src/stm32u5xx_ll_usb.c ****   else if (speed == USBD_HS_SPEED)
 197:Drivers/STM32U5xx_HAL_Driver/Src/stm32u5xx_ll_usb.c ****   {
 198:Drivers/STM32U5xx_HAL_Driver/Src/stm32u5xx_ll_usb.c ****     UsbTrd = USBD_HS_TRDT_VALUE;
 199:Drivers/STM32U5xx_HAL_Driver/Src/stm32u5xx_ll_usb.c ****   }
 200:Drivers/STM32U5xx_HAL_Driver/Src/stm32u5xx_ll_usb.c ****   else
ARM GAS  /tmp/cc0vokHo.s 			page 5


 201:Drivers/STM32U5xx_HAL_Driver/Src/stm32u5xx_ll_usb.c ****   {
 202:Drivers/STM32U5xx_HAL_Driver/Src/stm32u5xx_ll_usb.c ****     UsbTrd = USBD_DEFAULT_TRDT_VALUE;
 203:Drivers/STM32U5xx_HAL_Driver/Src/stm32u5xx_ll_usb.c ****   }
 204:Drivers/STM32U5xx_HAL_Driver/Src/stm32u5xx_ll_usb.c **** 
 205:Drivers/STM32U5xx_HAL_Driver/Src/stm32u5xx_ll_usb.c ****   USBx->GUSBCFG &= ~USB_OTG_GUSBCFG_TRDT;
 206:Drivers/STM32U5xx_HAL_Driver/Src/stm32u5xx_ll_usb.c ****   USBx->GUSBCFG |= (uint32_t)((UsbTrd << 10) & USB_OTG_GUSBCFG_TRDT);
 207:Drivers/STM32U5xx_HAL_Driver/Src/stm32u5xx_ll_usb.c **** 
 208:Drivers/STM32U5xx_HAL_Driver/Src/stm32u5xx_ll_usb.c ****   return HAL_OK;
 209:Drivers/STM32U5xx_HAL_Driver/Src/stm32u5xx_ll_usb.c **** }
 210:Drivers/STM32U5xx_HAL_Driver/Src/stm32u5xx_ll_usb.c **** 
 211:Drivers/STM32U5xx_HAL_Driver/Src/stm32u5xx_ll_usb.c **** /**
 212:Drivers/STM32U5xx_HAL_Driver/Src/stm32u5xx_ll_usb.c ****   * @brief  USB_EnableGlobalInt
 213:Drivers/STM32U5xx_HAL_Driver/Src/stm32u5xx_ll_usb.c ****   *         Enables the controller's Global Int in the AHB Config reg
 214:Drivers/STM32U5xx_HAL_Driver/Src/stm32u5xx_ll_usb.c ****   * @param  USBx  Selected device
 215:Drivers/STM32U5xx_HAL_Driver/Src/stm32u5xx_ll_usb.c ****   * @retval HAL status
 216:Drivers/STM32U5xx_HAL_Driver/Src/stm32u5xx_ll_usb.c ****   */
 217:Drivers/STM32U5xx_HAL_Driver/Src/stm32u5xx_ll_usb.c **** HAL_StatusTypeDef USB_EnableGlobalInt(USB_OTG_GlobalTypeDef *USBx)
 218:Drivers/STM32U5xx_HAL_Driver/Src/stm32u5xx_ll_usb.c **** {
 219:Drivers/STM32U5xx_HAL_Driver/Src/stm32u5xx_ll_usb.c ****   USBx->GAHBCFG |= USB_OTG_GAHBCFG_GINT;
 220:Drivers/STM32U5xx_HAL_Driver/Src/stm32u5xx_ll_usb.c ****   return HAL_OK;
 221:Drivers/STM32U5xx_HAL_Driver/Src/stm32u5xx_ll_usb.c **** }
 222:Drivers/STM32U5xx_HAL_Driver/Src/stm32u5xx_ll_usb.c **** 
 223:Drivers/STM32U5xx_HAL_Driver/Src/stm32u5xx_ll_usb.c **** /**
 224:Drivers/STM32U5xx_HAL_Driver/Src/stm32u5xx_ll_usb.c ****   * @brief  USB_DisableGlobalInt
 225:Drivers/STM32U5xx_HAL_Driver/Src/stm32u5xx_ll_usb.c ****   *         Disable the controller's Global Int in the AHB Config reg
 226:Drivers/STM32U5xx_HAL_Driver/Src/stm32u5xx_ll_usb.c ****   * @param  USBx  Selected device
 227:Drivers/STM32U5xx_HAL_Driver/Src/stm32u5xx_ll_usb.c ****   * @retval HAL status
 228:Drivers/STM32U5xx_HAL_Driver/Src/stm32u5xx_ll_usb.c ****   */
 229:Drivers/STM32U5xx_HAL_Driver/Src/stm32u5xx_ll_usb.c **** HAL_StatusTypeDef USB_DisableGlobalInt(USB_OTG_GlobalTypeDef *USBx)
 230:Drivers/STM32U5xx_HAL_Driver/Src/stm32u5xx_ll_usb.c **** {
 231:Drivers/STM32U5xx_HAL_Driver/Src/stm32u5xx_ll_usb.c ****   USBx->GAHBCFG &= ~USB_OTG_GAHBCFG_GINT;
 232:Drivers/STM32U5xx_HAL_Driver/Src/stm32u5xx_ll_usb.c ****   return HAL_OK;
 233:Drivers/STM32U5xx_HAL_Driver/Src/stm32u5xx_ll_usb.c **** }
 234:Drivers/STM32U5xx_HAL_Driver/Src/stm32u5xx_ll_usb.c **** 
 235:Drivers/STM32U5xx_HAL_Driver/Src/stm32u5xx_ll_usb.c **** /**
 236:Drivers/STM32U5xx_HAL_Driver/Src/stm32u5xx_ll_usb.c ****   * @brief  USB_SetCurrentMode Set functional mode
 237:Drivers/STM32U5xx_HAL_Driver/Src/stm32u5xx_ll_usb.c ****   * @param  USBx  Selected device
 238:Drivers/STM32U5xx_HAL_Driver/Src/stm32u5xx_ll_usb.c ****   * @param  mode  current core mode
 239:Drivers/STM32U5xx_HAL_Driver/Src/stm32u5xx_ll_usb.c ****   *          This parameter can be one of these values:
 240:Drivers/STM32U5xx_HAL_Driver/Src/stm32u5xx_ll_usb.c ****   *            @arg USB_DEVICE_MODE Peripheral mode
 241:Drivers/STM32U5xx_HAL_Driver/Src/stm32u5xx_ll_usb.c ****   *            @arg USB_HOST_MODE Host mode
 242:Drivers/STM32U5xx_HAL_Driver/Src/stm32u5xx_ll_usb.c ****   * @retval HAL status
 243:Drivers/STM32U5xx_HAL_Driver/Src/stm32u5xx_ll_usb.c ****   */
 244:Drivers/STM32U5xx_HAL_Driver/Src/stm32u5xx_ll_usb.c **** HAL_StatusTypeDef USB_SetCurrentMode(USB_OTG_GlobalTypeDef *USBx, USB_OTG_ModeTypeDef mode)
 245:Drivers/STM32U5xx_HAL_Driver/Src/stm32u5xx_ll_usb.c **** {
 246:Drivers/STM32U5xx_HAL_Driver/Src/stm32u5xx_ll_usb.c ****   uint32_t ms = 0U;
 247:Drivers/STM32U5xx_HAL_Driver/Src/stm32u5xx_ll_usb.c **** 
 248:Drivers/STM32U5xx_HAL_Driver/Src/stm32u5xx_ll_usb.c ****   USBx->GUSBCFG &= ~(USB_OTG_GUSBCFG_FHMOD | USB_OTG_GUSBCFG_FDMOD);
 249:Drivers/STM32U5xx_HAL_Driver/Src/stm32u5xx_ll_usb.c **** 
 250:Drivers/STM32U5xx_HAL_Driver/Src/stm32u5xx_ll_usb.c ****   if (mode == USB_HOST_MODE)
 251:Drivers/STM32U5xx_HAL_Driver/Src/stm32u5xx_ll_usb.c ****   {
 252:Drivers/STM32U5xx_HAL_Driver/Src/stm32u5xx_ll_usb.c ****     USBx->GUSBCFG |= USB_OTG_GUSBCFG_FHMOD;
 253:Drivers/STM32U5xx_HAL_Driver/Src/stm32u5xx_ll_usb.c **** 
 254:Drivers/STM32U5xx_HAL_Driver/Src/stm32u5xx_ll_usb.c ****     do
 255:Drivers/STM32U5xx_HAL_Driver/Src/stm32u5xx_ll_usb.c ****     {
 256:Drivers/STM32U5xx_HAL_Driver/Src/stm32u5xx_ll_usb.c ****       HAL_Delay(1U);
 257:Drivers/STM32U5xx_HAL_Driver/Src/stm32u5xx_ll_usb.c ****       ms++;
ARM GAS  /tmp/cc0vokHo.s 			page 6


 258:Drivers/STM32U5xx_HAL_Driver/Src/stm32u5xx_ll_usb.c ****     } while ((USB_GetMode(USBx) != (uint32_t)USB_HOST_MODE) && (ms < 50U));
 259:Drivers/STM32U5xx_HAL_Driver/Src/stm32u5xx_ll_usb.c ****   }
 260:Drivers/STM32U5xx_HAL_Driver/Src/stm32u5xx_ll_usb.c ****   else if (mode == USB_DEVICE_MODE)
 261:Drivers/STM32U5xx_HAL_Driver/Src/stm32u5xx_ll_usb.c ****   {
 262:Drivers/STM32U5xx_HAL_Driver/Src/stm32u5xx_ll_usb.c ****     USBx->GUSBCFG |= USB_OTG_GUSBCFG_FDMOD;
 263:Drivers/STM32U5xx_HAL_Driver/Src/stm32u5xx_ll_usb.c **** 
 264:Drivers/STM32U5xx_HAL_Driver/Src/stm32u5xx_ll_usb.c ****     do
 265:Drivers/STM32U5xx_HAL_Driver/Src/stm32u5xx_ll_usb.c ****     {
 266:Drivers/STM32U5xx_HAL_Driver/Src/stm32u5xx_ll_usb.c ****       HAL_Delay(1U);
 267:Drivers/STM32U5xx_HAL_Driver/Src/stm32u5xx_ll_usb.c ****       ms++;
 268:Drivers/STM32U5xx_HAL_Driver/Src/stm32u5xx_ll_usb.c ****     } while ((USB_GetMode(USBx) != (uint32_t)USB_DEVICE_MODE) && (ms < 50U));
 269:Drivers/STM32U5xx_HAL_Driver/Src/stm32u5xx_ll_usb.c ****   }
 270:Drivers/STM32U5xx_HAL_Driver/Src/stm32u5xx_ll_usb.c ****   else
 271:Drivers/STM32U5xx_HAL_Driver/Src/stm32u5xx_ll_usb.c ****   {
 272:Drivers/STM32U5xx_HAL_Driver/Src/stm32u5xx_ll_usb.c ****     return HAL_ERROR;
 273:Drivers/STM32U5xx_HAL_Driver/Src/stm32u5xx_ll_usb.c ****   }
 274:Drivers/STM32U5xx_HAL_Driver/Src/stm32u5xx_ll_usb.c **** 
 275:Drivers/STM32U5xx_HAL_Driver/Src/stm32u5xx_ll_usb.c ****   if (ms == 50U)
 276:Drivers/STM32U5xx_HAL_Driver/Src/stm32u5xx_ll_usb.c ****   {
 277:Drivers/STM32U5xx_HAL_Driver/Src/stm32u5xx_ll_usb.c ****     return HAL_ERROR;
 278:Drivers/STM32U5xx_HAL_Driver/Src/stm32u5xx_ll_usb.c ****   }
 279:Drivers/STM32U5xx_HAL_Driver/Src/stm32u5xx_ll_usb.c **** 
 280:Drivers/STM32U5xx_HAL_Driver/Src/stm32u5xx_ll_usb.c ****   return HAL_OK;
 281:Drivers/STM32U5xx_HAL_Driver/Src/stm32u5xx_ll_usb.c **** }
 282:Drivers/STM32U5xx_HAL_Driver/Src/stm32u5xx_ll_usb.c **** 
 283:Drivers/STM32U5xx_HAL_Driver/Src/stm32u5xx_ll_usb.c **** /**
 284:Drivers/STM32U5xx_HAL_Driver/Src/stm32u5xx_ll_usb.c ****   * @brief  USB_DevInit Initializes the USB_OTG controller registers
 285:Drivers/STM32U5xx_HAL_Driver/Src/stm32u5xx_ll_usb.c ****   *         for device mode
 286:Drivers/STM32U5xx_HAL_Driver/Src/stm32u5xx_ll_usb.c ****   * @param  USBx  Selected device
 287:Drivers/STM32U5xx_HAL_Driver/Src/stm32u5xx_ll_usb.c ****   * @param  cfg   pointer to a USB_OTG_CfgTypeDef structure that contains
 288:Drivers/STM32U5xx_HAL_Driver/Src/stm32u5xx_ll_usb.c ****   *         the configuration information for the specified USBx peripheral.
 289:Drivers/STM32U5xx_HAL_Driver/Src/stm32u5xx_ll_usb.c ****   * @retval HAL status
 290:Drivers/STM32U5xx_HAL_Driver/Src/stm32u5xx_ll_usb.c ****   */
 291:Drivers/STM32U5xx_HAL_Driver/Src/stm32u5xx_ll_usb.c **** HAL_StatusTypeDef USB_DevInit(USB_OTG_GlobalTypeDef *USBx, USB_OTG_CfgTypeDef cfg)
 292:Drivers/STM32U5xx_HAL_Driver/Src/stm32u5xx_ll_usb.c **** {
 293:Drivers/STM32U5xx_HAL_Driver/Src/stm32u5xx_ll_usb.c ****   HAL_StatusTypeDef ret = HAL_OK;
 294:Drivers/STM32U5xx_HAL_Driver/Src/stm32u5xx_ll_usb.c ****   uint32_t USBx_BASE = (uint32_t)USBx;
 295:Drivers/STM32U5xx_HAL_Driver/Src/stm32u5xx_ll_usb.c ****   uint32_t i;
 296:Drivers/STM32U5xx_HAL_Driver/Src/stm32u5xx_ll_usb.c **** 
 297:Drivers/STM32U5xx_HAL_Driver/Src/stm32u5xx_ll_usb.c ****   for (i = 0U; i < 15U; i++)
 298:Drivers/STM32U5xx_HAL_Driver/Src/stm32u5xx_ll_usb.c ****   {
 299:Drivers/STM32U5xx_HAL_Driver/Src/stm32u5xx_ll_usb.c ****     USBx->DIEPTXF[i] = 0U;
 300:Drivers/STM32U5xx_HAL_Driver/Src/stm32u5xx_ll_usb.c ****   }
 301:Drivers/STM32U5xx_HAL_Driver/Src/stm32u5xx_ll_usb.c **** 
 302:Drivers/STM32U5xx_HAL_Driver/Src/stm32u5xx_ll_usb.c **** #if defined (STM32U595xx) || defined (STM32U5A5xx) || defined (STM32U599xx) || defined (STM32U5A9xx
 303:Drivers/STM32U5xx_HAL_Driver/Src/stm32u5xx_ll_usb.c ****  || defined (STM32U5F7xx) || defined (STM32U5G7xx) || defined (STM32U5F9xx) || defined (STM32U5G9xx
 304:Drivers/STM32U5xx_HAL_Driver/Src/stm32u5xx_ll_usb.c ****   /* Disable USB PHY pulldown resistors */
 305:Drivers/STM32U5xx_HAL_Driver/Src/stm32u5xx_ll_usb.c ****   USBx->GCCFG &= ~USB_OTG_GCCFG_PULLDOWNEN;
 306:Drivers/STM32U5xx_HAL_Driver/Src/stm32u5xx_ll_usb.c **** #endif /* defined (STM32U595xx) || defined (STM32U5A5xx) || defined (STM32U599xx) || defined (STM32
 307:Drivers/STM32U5xx_HAL_Driver/Src/stm32u5xx_ll_usb.c ****           defined (STM32U5F7xx) || defined (STM32U5G7xx) || defined (STM32U5F9xx) || defined (STM32
 308:Drivers/STM32U5xx_HAL_Driver/Src/stm32u5xx_ll_usb.c **** 
 309:Drivers/STM32U5xx_HAL_Driver/Src/stm32u5xx_ll_usb.c ****   /* VBUS Sensing setup */
 310:Drivers/STM32U5xx_HAL_Driver/Src/stm32u5xx_ll_usb.c ****   if (cfg.vbus_sensing_enable == 0U)
 311:Drivers/STM32U5xx_HAL_Driver/Src/stm32u5xx_ll_usb.c ****   {
 312:Drivers/STM32U5xx_HAL_Driver/Src/stm32u5xx_ll_usb.c ****     USBx_DEVICE->DCTL |= USB_OTG_DCTL_SDIS;
 313:Drivers/STM32U5xx_HAL_Driver/Src/stm32u5xx_ll_usb.c **** 
 314:Drivers/STM32U5xx_HAL_Driver/Src/stm32u5xx_ll_usb.c ****     /* Deactivate VBUS Sensing B */
ARM GAS  /tmp/cc0vokHo.s 			page 7


 315:Drivers/STM32U5xx_HAL_Driver/Src/stm32u5xx_ll_usb.c ****     USBx->GCCFG &= ~USB_OTG_GCCFG_VBDEN;
 316:Drivers/STM32U5xx_HAL_Driver/Src/stm32u5xx_ll_usb.c **** 
 317:Drivers/STM32U5xx_HAL_Driver/Src/stm32u5xx_ll_usb.c ****     /* B-peripheral session valid override enable */
 318:Drivers/STM32U5xx_HAL_Driver/Src/stm32u5xx_ll_usb.c **** #if defined (STM32U595xx) || defined (STM32U5A5xx) || defined (STM32U599xx) || defined (STM32U5A9xx
 319:Drivers/STM32U5xx_HAL_Driver/Src/stm32u5xx_ll_usb.c ****  || defined (STM32U5F7xx) || defined (STM32U5G7xx) || defined (STM32U5F9xx) || defined (STM32U5G9xx
 320:Drivers/STM32U5xx_HAL_Driver/Src/stm32u5xx_ll_usb.c ****     USBx->GCCFG |= USB_OTG_GCCFG_VBVALEXTOEN;
 321:Drivers/STM32U5xx_HAL_Driver/Src/stm32u5xx_ll_usb.c ****     USBx->GCCFG |= USB_OTG_GCCFG_VBVALOVAL;
 322:Drivers/STM32U5xx_HAL_Driver/Src/stm32u5xx_ll_usb.c **** #else
 323:Drivers/STM32U5xx_HAL_Driver/Src/stm32u5xx_ll_usb.c ****     USBx->GOTGCTL |= USB_OTG_GOTGCTL_BVALOEN;
 324:Drivers/STM32U5xx_HAL_Driver/Src/stm32u5xx_ll_usb.c ****     USBx->GOTGCTL |= USB_OTG_GOTGCTL_BVALOVAL;
 325:Drivers/STM32U5xx_HAL_Driver/Src/stm32u5xx_ll_usb.c **** #endif /* defined (STM32U595xx) || defined (STM32U5A5xx) || defined (STM32U599xx) || defined (STM32
 326:Drivers/STM32U5xx_HAL_Driver/Src/stm32u5xx_ll_usb.c ****           defined (STM32U5F7xx) || defined (STM32U5G7xx) || defined (STM32U5F9xx) || defined (STM32
 327:Drivers/STM32U5xx_HAL_Driver/Src/stm32u5xx_ll_usb.c ****   }
 328:Drivers/STM32U5xx_HAL_Driver/Src/stm32u5xx_ll_usb.c ****   else
 329:Drivers/STM32U5xx_HAL_Driver/Src/stm32u5xx_ll_usb.c ****   {
 330:Drivers/STM32U5xx_HAL_Driver/Src/stm32u5xx_ll_usb.c **** #if defined (STM32U595xx) || defined (STM32U5A5xx) || defined (STM32U599xx) || defined (STM32U5A9xx
 331:Drivers/STM32U5xx_HAL_Driver/Src/stm32u5xx_ll_usb.c ****  || defined (STM32U5F7xx) || defined (STM32U5G7xx) || defined (STM32U5F9xx) || defined (STM32U5G9xx
 332:Drivers/STM32U5xx_HAL_Driver/Src/stm32u5xx_ll_usb.c ****     /* B-peripheral session valid override disable */
 333:Drivers/STM32U5xx_HAL_Driver/Src/stm32u5xx_ll_usb.c ****     USBx->GCCFG &= ~USB_OTG_GCCFG_VBVALEXTOEN;
 334:Drivers/STM32U5xx_HAL_Driver/Src/stm32u5xx_ll_usb.c ****     USBx->GCCFG &= ~USB_OTG_GCCFG_VBVALOVAL;
 335:Drivers/STM32U5xx_HAL_Driver/Src/stm32u5xx_ll_usb.c **** #endif /* defined (STM32U595xx) || defined (STM32U5A5xx) || defined (STM32U599xx) || defined (STM32
 336:Drivers/STM32U5xx_HAL_Driver/Src/stm32u5xx_ll_usb.c ****           defined (STM32U5F7xx) || defined (STM32U5G7xx) || defined (STM32U5F9xx) || defined (STM32
 337:Drivers/STM32U5xx_HAL_Driver/Src/stm32u5xx_ll_usb.c **** 
 338:Drivers/STM32U5xx_HAL_Driver/Src/stm32u5xx_ll_usb.c ****     /* Enable HW VBUS sensing */
 339:Drivers/STM32U5xx_HAL_Driver/Src/stm32u5xx_ll_usb.c ****     USBx->GCCFG |= USB_OTG_GCCFG_VBDEN;
 340:Drivers/STM32U5xx_HAL_Driver/Src/stm32u5xx_ll_usb.c ****   }
 341:Drivers/STM32U5xx_HAL_Driver/Src/stm32u5xx_ll_usb.c **** 
 342:Drivers/STM32U5xx_HAL_Driver/Src/stm32u5xx_ll_usb.c ****   /* Restart the Phy Clock */
 343:Drivers/STM32U5xx_HAL_Driver/Src/stm32u5xx_ll_usb.c ****   USBx_PCGCCTL = 0U;
 344:Drivers/STM32U5xx_HAL_Driver/Src/stm32u5xx_ll_usb.c **** 
 345:Drivers/STM32U5xx_HAL_Driver/Src/stm32u5xx_ll_usb.c **** #if defined (STM32U595xx) || defined (STM32U5A5xx) || defined (STM32U599xx) || defined (STM32U5A9xx
 346:Drivers/STM32U5xx_HAL_Driver/Src/stm32u5xx_ll_usb.c ****  || defined (STM32U5F7xx) || defined (STM32U5G7xx) || defined (STM32U5F9xx) || defined (STM32U5G9xx
 347:Drivers/STM32U5xx_HAL_Driver/Src/stm32u5xx_ll_usb.c ****   if (cfg.phy_itface == USB_OTG_HS_EMBEDDED_PHY)
 348:Drivers/STM32U5xx_HAL_Driver/Src/stm32u5xx_ll_usb.c ****   {
 349:Drivers/STM32U5xx_HAL_Driver/Src/stm32u5xx_ll_usb.c ****     if (cfg.speed == USBD_HS_SPEED)
 350:Drivers/STM32U5xx_HAL_Driver/Src/stm32u5xx_ll_usb.c ****     {
 351:Drivers/STM32U5xx_HAL_Driver/Src/stm32u5xx_ll_usb.c ****       /* Set Core speed to High speed mode */
 352:Drivers/STM32U5xx_HAL_Driver/Src/stm32u5xx_ll_usb.c ****       (void)USB_SetDevSpeed(USBx, USB_OTG_SPEED_HIGH);
 353:Drivers/STM32U5xx_HAL_Driver/Src/stm32u5xx_ll_usb.c ****     }
 354:Drivers/STM32U5xx_HAL_Driver/Src/stm32u5xx_ll_usb.c ****     else
 355:Drivers/STM32U5xx_HAL_Driver/Src/stm32u5xx_ll_usb.c ****     {
 356:Drivers/STM32U5xx_HAL_Driver/Src/stm32u5xx_ll_usb.c ****       /* Set Core speed to Full speed mode */
 357:Drivers/STM32U5xx_HAL_Driver/Src/stm32u5xx_ll_usb.c ****       (void)USB_SetDevSpeed(USBx, USB_OTG_SPEED_HIGH_IN_FULL);
 358:Drivers/STM32U5xx_HAL_Driver/Src/stm32u5xx_ll_usb.c ****     }
 359:Drivers/STM32U5xx_HAL_Driver/Src/stm32u5xx_ll_usb.c ****   }
 360:Drivers/STM32U5xx_HAL_Driver/Src/stm32u5xx_ll_usb.c ****   else
 361:Drivers/STM32U5xx_HAL_Driver/Src/stm32u5xx_ll_usb.c **** #endif /* defined (STM32U595xx) || defined (STM32U5A5xx) || defined (STM32U599xx) || defined (STM32
 362:Drivers/STM32U5xx_HAL_Driver/Src/stm32u5xx_ll_usb.c ****           defined (STM32U5F7xx) || defined (STM32U5G7xx) || defined (STM32U5F9xx) || defined (STM32
 363:Drivers/STM32U5xx_HAL_Driver/Src/stm32u5xx_ll_usb.c ****   {
 364:Drivers/STM32U5xx_HAL_Driver/Src/stm32u5xx_ll_usb.c ****     /* Set Core speed to Full speed mode */
 365:Drivers/STM32U5xx_HAL_Driver/Src/stm32u5xx_ll_usb.c ****     (void)USB_SetDevSpeed(USBx, USB_OTG_SPEED_FULL);
 366:Drivers/STM32U5xx_HAL_Driver/Src/stm32u5xx_ll_usb.c ****   }
 367:Drivers/STM32U5xx_HAL_Driver/Src/stm32u5xx_ll_usb.c **** 
 368:Drivers/STM32U5xx_HAL_Driver/Src/stm32u5xx_ll_usb.c ****   /* Flush the FIFOs */
 369:Drivers/STM32U5xx_HAL_Driver/Src/stm32u5xx_ll_usb.c ****   if (USB_FlushTxFifo(USBx, 0x10U) != HAL_OK) /* all Tx FIFOs */
 370:Drivers/STM32U5xx_HAL_Driver/Src/stm32u5xx_ll_usb.c ****   {
 371:Drivers/STM32U5xx_HAL_Driver/Src/stm32u5xx_ll_usb.c ****     ret = HAL_ERROR;
ARM GAS  /tmp/cc0vokHo.s 			page 8


 372:Drivers/STM32U5xx_HAL_Driver/Src/stm32u5xx_ll_usb.c ****   }
 373:Drivers/STM32U5xx_HAL_Driver/Src/stm32u5xx_ll_usb.c **** 
 374:Drivers/STM32U5xx_HAL_Driver/Src/stm32u5xx_ll_usb.c ****   if (USB_FlushRxFifo(USBx) != HAL_OK)
 375:Drivers/STM32U5xx_HAL_Driver/Src/stm32u5xx_ll_usb.c ****   {
 376:Drivers/STM32U5xx_HAL_Driver/Src/stm32u5xx_ll_usb.c ****     ret = HAL_ERROR;
 377:Drivers/STM32U5xx_HAL_Driver/Src/stm32u5xx_ll_usb.c ****   }
 378:Drivers/STM32U5xx_HAL_Driver/Src/stm32u5xx_ll_usb.c **** 
 379:Drivers/STM32U5xx_HAL_Driver/Src/stm32u5xx_ll_usb.c ****   /* Clear all pending Device Interrupts */
 380:Drivers/STM32U5xx_HAL_Driver/Src/stm32u5xx_ll_usb.c ****   USBx_DEVICE->DIEPMSK = 0U;
 381:Drivers/STM32U5xx_HAL_Driver/Src/stm32u5xx_ll_usb.c ****   USBx_DEVICE->DOEPMSK = 0U;
 382:Drivers/STM32U5xx_HAL_Driver/Src/stm32u5xx_ll_usb.c ****   USBx_DEVICE->DAINTMSK = 0U;
 383:Drivers/STM32U5xx_HAL_Driver/Src/stm32u5xx_ll_usb.c **** 
 384:Drivers/STM32U5xx_HAL_Driver/Src/stm32u5xx_ll_usb.c ****   for (i = 0U; i < cfg.dev_endpoints; i++)
 385:Drivers/STM32U5xx_HAL_Driver/Src/stm32u5xx_ll_usb.c ****   {
 386:Drivers/STM32U5xx_HAL_Driver/Src/stm32u5xx_ll_usb.c ****     if ((USBx_INEP(i)->DIEPCTL & USB_OTG_DIEPCTL_EPENA) == USB_OTG_DIEPCTL_EPENA)
 387:Drivers/STM32U5xx_HAL_Driver/Src/stm32u5xx_ll_usb.c ****     {
 388:Drivers/STM32U5xx_HAL_Driver/Src/stm32u5xx_ll_usb.c ****       if (i == 0U)
 389:Drivers/STM32U5xx_HAL_Driver/Src/stm32u5xx_ll_usb.c ****       {
 390:Drivers/STM32U5xx_HAL_Driver/Src/stm32u5xx_ll_usb.c ****         USBx_INEP(i)->DIEPCTL = USB_OTG_DIEPCTL_SNAK;
 391:Drivers/STM32U5xx_HAL_Driver/Src/stm32u5xx_ll_usb.c ****       }
 392:Drivers/STM32U5xx_HAL_Driver/Src/stm32u5xx_ll_usb.c ****       else
 393:Drivers/STM32U5xx_HAL_Driver/Src/stm32u5xx_ll_usb.c ****       {
 394:Drivers/STM32U5xx_HAL_Driver/Src/stm32u5xx_ll_usb.c ****         USBx_INEP(i)->DIEPCTL = USB_OTG_DIEPCTL_EPDIS | USB_OTG_DIEPCTL_SNAK;
 395:Drivers/STM32U5xx_HAL_Driver/Src/stm32u5xx_ll_usb.c ****       }
 396:Drivers/STM32U5xx_HAL_Driver/Src/stm32u5xx_ll_usb.c ****     }
 397:Drivers/STM32U5xx_HAL_Driver/Src/stm32u5xx_ll_usb.c ****     else
 398:Drivers/STM32U5xx_HAL_Driver/Src/stm32u5xx_ll_usb.c ****     {
 399:Drivers/STM32U5xx_HAL_Driver/Src/stm32u5xx_ll_usb.c ****       USBx_INEP(i)->DIEPCTL = 0U;
 400:Drivers/STM32U5xx_HAL_Driver/Src/stm32u5xx_ll_usb.c ****     }
 401:Drivers/STM32U5xx_HAL_Driver/Src/stm32u5xx_ll_usb.c **** 
 402:Drivers/STM32U5xx_HAL_Driver/Src/stm32u5xx_ll_usb.c ****     USBx_INEP(i)->DIEPTSIZ = 0U;
 403:Drivers/STM32U5xx_HAL_Driver/Src/stm32u5xx_ll_usb.c ****     USBx_INEP(i)->DIEPINT  = 0xFB7FU;
 404:Drivers/STM32U5xx_HAL_Driver/Src/stm32u5xx_ll_usb.c ****   }
 405:Drivers/STM32U5xx_HAL_Driver/Src/stm32u5xx_ll_usb.c **** 
 406:Drivers/STM32U5xx_HAL_Driver/Src/stm32u5xx_ll_usb.c ****   for (i = 0U; i < cfg.dev_endpoints; i++)
 407:Drivers/STM32U5xx_HAL_Driver/Src/stm32u5xx_ll_usb.c ****   {
 408:Drivers/STM32U5xx_HAL_Driver/Src/stm32u5xx_ll_usb.c ****     if ((USBx_OUTEP(i)->DOEPCTL & USB_OTG_DOEPCTL_EPENA) == USB_OTG_DOEPCTL_EPENA)
 409:Drivers/STM32U5xx_HAL_Driver/Src/stm32u5xx_ll_usb.c ****     {
 410:Drivers/STM32U5xx_HAL_Driver/Src/stm32u5xx_ll_usb.c ****       if (i == 0U)
 411:Drivers/STM32U5xx_HAL_Driver/Src/stm32u5xx_ll_usb.c ****       {
 412:Drivers/STM32U5xx_HAL_Driver/Src/stm32u5xx_ll_usb.c ****         USBx_OUTEP(i)->DOEPCTL = USB_OTG_DOEPCTL_SNAK;
 413:Drivers/STM32U5xx_HAL_Driver/Src/stm32u5xx_ll_usb.c ****       }
 414:Drivers/STM32U5xx_HAL_Driver/Src/stm32u5xx_ll_usb.c ****       else
 415:Drivers/STM32U5xx_HAL_Driver/Src/stm32u5xx_ll_usb.c ****       {
 416:Drivers/STM32U5xx_HAL_Driver/Src/stm32u5xx_ll_usb.c ****         USBx_OUTEP(i)->DOEPCTL = USB_OTG_DOEPCTL_EPDIS | USB_OTG_DOEPCTL_SNAK;
 417:Drivers/STM32U5xx_HAL_Driver/Src/stm32u5xx_ll_usb.c ****       }
 418:Drivers/STM32U5xx_HAL_Driver/Src/stm32u5xx_ll_usb.c ****     }
 419:Drivers/STM32U5xx_HAL_Driver/Src/stm32u5xx_ll_usb.c ****     else
 420:Drivers/STM32U5xx_HAL_Driver/Src/stm32u5xx_ll_usb.c ****     {
 421:Drivers/STM32U5xx_HAL_Driver/Src/stm32u5xx_ll_usb.c ****       USBx_OUTEP(i)->DOEPCTL = 0U;
 422:Drivers/STM32U5xx_HAL_Driver/Src/stm32u5xx_ll_usb.c ****     }
 423:Drivers/STM32U5xx_HAL_Driver/Src/stm32u5xx_ll_usb.c **** 
 424:Drivers/STM32U5xx_HAL_Driver/Src/stm32u5xx_ll_usb.c ****     USBx_OUTEP(i)->DOEPTSIZ = 0U;
 425:Drivers/STM32U5xx_HAL_Driver/Src/stm32u5xx_ll_usb.c ****     USBx_OUTEP(i)->DOEPINT  = 0xFB7FU;
 426:Drivers/STM32U5xx_HAL_Driver/Src/stm32u5xx_ll_usb.c ****   }
 427:Drivers/STM32U5xx_HAL_Driver/Src/stm32u5xx_ll_usb.c **** 
 428:Drivers/STM32U5xx_HAL_Driver/Src/stm32u5xx_ll_usb.c ****   USBx_DEVICE->DIEPMSK &= ~(USB_OTG_DIEPMSK_TXFURM);
ARM GAS  /tmp/cc0vokHo.s 			page 9


 429:Drivers/STM32U5xx_HAL_Driver/Src/stm32u5xx_ll_usb.c **** 
 430:Drivers/STM32U5xx_HAL_Driver/Src/stm32u5xx_ll_usb.c ****   /* Disable all interrupts. */
 431:Drivers/STM32U5xx_HAL_Driver/Src/stm32u5xx_ll_usb.c ****   USBx->GINTMSK = 0U;
 432:Drivers/STM32U5xx_HAL_Driver/Src/stm32u5xx_ll_usb.c **** 
 433:Drivers/STM32U5xx_HAL_Driver/Src/stm32u5xx_ll_usb.c ****   /* Clear any pending interrupts */
 434:Drivers/STM32U5xx_HAL_Driver/Src/stm32u5xx_ll_usb.c ****   USBx->GINTSTS = 0xBFFFFFFFU;
 435:Drivers/STM32U5xx_HAL_Driver/Src/stm32u5xx_ll_usb.c **** 
 436:Drivers/STM32U5xx_HAL_Driver/Src/stm32u5xx_ll_usb.c ****   /* Enable the common interrupts */
 437:Drivers/STM32U5xx_HAL_Driver/Src/stm32u5xx_ll_usb.c ****   if (cfg.dma_enable == 0U)
 438:Drivers/STM32U5xx_HAL_Driver/Src/stm32u5xx_ll_usb.c ****   {
 439:Drivers/STM32U5xx_HAL_Driver/Src/stm32u5xx_ll_usb.c ****     USBx->GINTMSK |= USB_OTG_GINTMSK_RXFLVLM;
 440:Drivers/STM32U5xx_HAL_Driver/Src/stm32u5xx_ll_usb.c ****   }
 441:Drivers/STM32U5xx_HAL_Driver/Src/stm32u5xx_ll_usb.c **** 
 442:Drivers/STM32U5xx_HAL_Driver/Src/stm32u5xx_ll_usb.c ****   /* Enable interrupts matching to the Device mode ONLY */
 443:Drivers/STM32U5xx_HAL_Driver/Src/stm32u5xx_ll_usb.c ****   USBx->GINTMSK |= USB_OTG_GINTMSK_USBSUSPM | USB_OTG_GINTMSK_USBRST |
 444:Drivers/STM32U5xx_HAL_Driver/Src/stm32u5xx_ll_usb.c ****                    USB_OTG_GINTMSK_ENUMDNEM | USB_OTG_GINTMSK_IEPINT |
 445:Drivers/STM32U5xx_HAL_Driver/Src/stm32u5xx_ll_usb.c ****                    USB_OTG_GINTMSK_OEPINT   | USB_OTG_GINTMSK_IISOIXFRM |
 446:Drivers/STM32U5xx_HAL_Driver/Src/stm32u5xx_ll_usb.c ****                    USB_OTG_GINTMSK_PXFRM_IISOOXFRM | USB_OTG_GINTMSK_WUIM;
 447:Drivers/STM32U5xx_HAL_Driver/Src/stm32u5xx_ll_usb.c **** 
 448:Drivers/STM32U5xx_HAL_Driver/Src/stm32u5xx_ll_usb.c ****   if (cfg.Sof_enable != 0U)
 449:Drivers/STM32U5xx_HAL_Driver/Src/stm32u5xx_ll_usb.c ****   {
 450:Drivers/STM32U5xx_HAL_Driver/Src/stm32u5xx_ll_usb.c ****     USBx->GINTMSK |= USB_OTG_GINTMSK_SOFM;
 451:Drivers/STM32U5xx_HAL_Driver/Src/stm32u5xx_ll_usb.c ****   }
 452:Drivers/STM32U5xx_HAL_Driver/Src/stm32u5xx_ll_usb.c **** 
 453:Drivers/STM32U5xx_HAL_Driver/Src/stm32u5xx_ll_usb.c ****   if (cfg.vbus_sensing_enable == 1U)
 454:Drivers/STM32U5xx_HAL_Driver/Src/stm32u5xx_ll_usb.c ****   {
 455:Drivers/STM32U5xx_HAL_Driver/Src/stm32u5xx_ll_usb.c ****     USBx->GINTMSK |= (USB_OTG_GINTMSK_SRQIM | USB_OTG_GINTMSK_OTGINT);
 456:Drivers/STM32U5xx_HAL_Driver/Src/stm32u5xx_ll_usb.c ****   }
 457:Drivers/STM32U5xx_HAL_Driver/Src/stm32u5xx_ll_usb.c **** 
 458:Drivers/STM32U5xx_HAL_Driver/Src/stm32u5xx_ll_usb.c ****   return ret;
 459:Drivers/STM32U5xx_HAL_Driver/Src/stm32u5xx_ll_usb.c **** }
 460:Drivers/STM32U5xx_HAL_Driver/Src/stm32u5xx_ll_usb.c **** 
 461:Drivers/STM32U5xx_HAL_Driver/Src/stm32u5xx_ll_usb.c **** /**
 462:Drivers/STM32U5xx_HAL_Driver/Src/stm32u5xx_ll_usb.c ****   * @brief  USB_FlushTxFifo Flush a Tx FIFO
 463:Drivers/STM32U5xx_HAL_Driver/Src/stm32u5xx_ll_usb.c ****   * @param  USBx  Selected device
 464:Drivers/STM32U5xx_HAL_Driver/Src/stm32u5xx_ll_usb.c ****   * @param  num  FIFO number
 465:Drivers/STM32U5xx_HAL_Driver/Src/stm32u5xx_ll_usb.c ****   *         This parameter can be a value from 1 to 15
 466:Drivers/STM32U5xx_HAL_Driver/Src/stm32u5xx_ll_usb.c ****             15 means Flush all Tx FIFOs
 467:Drivers/STM32U5xx_HAL_Driver/Src/stm32u5xx_ll_usb.c ****   * @retval HAL status
 468:Drivers/STM32U5xx_HAL_Driver/Src/stm32u5xx_ll_usb.c ****   */
 469:Drivers/STM32U5xx_HAL_Driver/Src/stm32u5xx_ll_usb.c **** HAL_StatusTypeDef USB_FlushTxFifo(USB_OTG_GlobalTypeDef *USBx, uint32_t num)
 470:Drivers/STM32U5xx_HAL_Driver/Src/stm32u5xx_ll_usb.c **** {
 471:Drivers/STM32U5xx_HAL_Driver/Src/stm32u5xx_ll_usb.c ****   __IO uint32_t count = 0U;
 472:Drivers/STM32U5xx_HAL_Driver/Src/stm32u5xx_ll_usb.c **** 
 473:Drivers/STM32U5xx_HAL_Driver/Src/stm32u5xx_ll_usb.c ****   /* Wait for AHB master IDLE state. */
 474:Drivers/STM32U5xx_HAL_Driver/Src/stm32u5xx_ll_usb.c ****   do
 475:Drivers/STM32U5xx_HAL_Driver/Src/stm32u5xx_ll_usb.c ****   {
 476:Drivers/STM32U5xx_HAL_Driver/Src/stm32u5xx_ll_usb.c ****     count++;
 477:Drivers/STM32U5xx_HAL_Driver/Src/stm32u5xx_ll_usb.c **** 
 478:Drivers/STM32U5xx_HAL_Driver/Src/stm32u5xx_ll_usb.c ****     if (count > 200000U)
 479:Drivers/STM32U5xx_HAL_Driver/Src/stm32u5xx_ll_usb.c ****     {
 480:Drivers/STM32U5xx_HAL_Driver/Src/stm32u5xx_ll_usb.c ****       return HAL_TIMEOUT;
 481:Drivers/STM32U5xx_HAL_Driver/Src/stm32u5xx_ll_usb.c ****     }
 482:Drivers/STM32U5xx_HAL_Driver/Src/stm32u5xx_ll_usb.c ****   } while ((USBx->GRSTCTL & USB_OTG_GRSTCTL_AHBIDL) == 0U);
 483:Drivers/STM32U5xx_HAL_Driver/Src/stm32u5xx_ll_usb.c **** 
 484:Drivers/STM32U5xx_HAL_Driver/Src/stm32u5xx_ll_usb.c ****   /* Flush TX Fifo */
 485:Drivers/STM32U5xx_HAL_Driver/Src/stm32u5xx_ll_usb.c ****   count = 0U;
ARM GAS  /tmp/cc0vokHo.s 			page 10


 486:Drivers/STM32U5xx_HAL_Driver/Src/stm32u5xx_ll_usb.c ****   USBx->GRSTCTL = (USB_OTG_GRSTCTL_TXFFLSH | (num << 6));
 487:Drivers/STM32U5xx_HAL_Driver/Src/stm32u5xx_ll_usb.c **** 
 488:Drivers/STM32U5xx_HAL_Driver/Src/stm32u5xx_ll_usb.c ****   do
 489:Drivers/STM32U5xx_HAL_Driver/Src/stm32u5xx_ll_usb.c ****   {
 490:Drivers/STM32U5xx_HAL_Driver/Src/stm32u5xx_ll_usb.c ****     count++;
 491:Drivers/STM32U5xx_HAL_Driver/Src/stm32u5xx_ll_usb.c **** 
 492:Drivers/STM32U5xx_HAL_Driver/Src/stm32u5xx_ll_usb.c ****     if (count > 200000U)
 493:Drivers/STM32U5xx_HAL_Driver/Src/stm32u5xx_ll_usb.c ****     {
 494:Drivers/STM32U5xx_HAL_Driver/Src/stm32u5xx_ll_usb.c ****       return HAL_TIMEOUT;
 495:Drivers/STM32U5xx_HAL_Driver/Src/stm32u5xx_ll_usb.c ****     }
 496:Drivers/STM32U5xx_HAL_Driver/Src/stm32u5xx_ll_usb.c ****   } while ((USBx->GRSTCTL & USB_OTG_GRSTCTL_TXFFLSH) == USB_OTG_GRSTCTL_TXFFLSH);
 497:Drivers/STM32U5xx_HAL_Driver/Src/stm32u5xx_ll_usb.c **** 
 498:Drivers/STM32U5xx_HAL_Driver/Src/stm32u5xx_ll_usb.c ****   return HAL_OK;
 499:Drivers/STM32U5xx_HAL_Driver/Src/stm32u5xx_ll_usb.c **** }
 500:Drivers/STM32U5xx_HAL_Driver/Src/stm32u5xx_ll_usb.c **** 
 501:Drivers/STM32U5xx_HAL_Driver/Src/stm32u5xx_ll_usb.c **** /**
 502:Drivers/STM32U5xx_HAL_Driver/Src/stm32u5xx_ll_usb.c ****   * @brief  USB_FlushRxFifo  Flush Rx FIFO
 503:Drivers/STM32U5xx_HAL_Driver/Src/stm32u5xx_ll_usb.c ****   * @param  USBx  Selected device
 504:Drivers/STM32U5xx_HAL_Driver/Src/stm32u5xx_ll_usb.c ****   * @retval HAL status
 505:Drivers/STM32U5xx_HAL_Driver/Src/stm32u5xx_ll_usb.c ****   */
 506:Drivers/STM32U5xx_HAL_Driver/Src/stm32u5xx_ll_usb.c **** HAL_StatusTypeDef USB_FlushRxFifo(USB_OTG_GlobalTypeDef *USBx)
 507:Drivers/STM32U5xx_HAL_Driver/Src/stm32u5xx_ll_usb.c **** {
 508:Drivers/STM32U5xx_HAL_Driver/Src/stm32u5xx_ll_usb.c ****   __IO uint32_t count = 0U;
 509:Drivers/STM32U5xx_HAL_Driver/Src/stm32u5xx_ll_usb.c **** 
 510:Drivers/STM32U5xx_HAL_Driver/Src/stm32u5xx_ll_usb.c ****   /* Wait for AHB master IDLE state. */
 511:Drivers/STM32U5xx_HAL_Driver/Src/stm32u5xx_ll_usb.c ****   do
 512:Drivers/STM32U5xx_HAL_Driver/Src/stm32u5xx_ll_usb.c ****   {
 513:Drivers/STM32U5xx_HAL_Driver/Src/stm32u5xx_ll_usb.c ****     count++;
 514:Drivers/STM32U5xx_HAL_Driver/Src/stm32u5xx_ll_usb.c **** 
 515:Drivers/STM32U5xx_HAL_Driver/Src/stm32u5xx_ll_usb.c ****     if (count > 200000U)
 516:Drivers/STM32U5xx_HAL_Driver/Src/stm32u5xx_ll_usb.c ****     {
 517:Drivers/STM32U5xx_HAL_Driver/Src/stm32u5xx_ll_usb.c ****       return HAL_TIMEOUT;
 518:Drivers/STM32U5xx_HAL_Driver/Src/stm32u5xx_ll_usb.c ****     }
 519:Drivers/STM32U5xx_HAL_Driver/Src/stm32u5xx_ll_usb.c ****   } while ((USBx->GRSTCTL & USB_OTG_GRSTCTL_AHBIDL) == 0U);
 520:Drivers/STM32U5xx_HAL_Driver/Src/stm32u5xx_ll_usb.c **** 
 521:Drivers/STM32U5xx_HAL_Driver/Src/stm32u5xx_ll_usb.c ****   /* Flush RX Fifo */
 522:Drivers/STM32U5xx_HAL_Driver/Src/stm32u5xx_ll_usb.c ****   count = 0U;
 523:Drivers/STM32U5xx_HAL_Driver/Src/stm32u5xx_ll_usb.c ****   USBx->GRSTCTL = USB_OTG_GRSTCTL_RXFFLSH;
 524:Drivers/STM32U5xx_HAL_Driver/Src/stm32u5xx_ll_usb.c **** 
 525:Drivers/STM32U5xx_HAL_Driver/Src/stm32u5xx_ll_usb.c ****   do
 526:Drivers/STM32U5xx_HAL_Driver/Src/stm32u5xx_ll_usb.c ****   {
 527:Drivers/STM32U5xx_HAL_Driver/Src/stm32u5xx_ll_usb.c ****     count++;
 528:Drivers/STM32U5xx_HAL_Driver/Src/stm32u5xx_ll_usb.c **** 
 529:Drivers/STM32U5xx_HAL_Driver/Src/stm32u5xx_ll_usb.c ****     if (count > 200000U)
 530:Drivers/STM32U5xx_HAL_Driver/Src/stm32u5xx_ll_usb.c ****     {
 531:Drivers/STM32U5xx_HAL_Driver/Src/stm32u5xx_ll_usb.c ****       return HAL_TIMEOUT;
 532:Drivers/STM32U5xx_HAL_Driver/Src/stm32u5xx_ll_usb.c ****     }
 533:Drivers/STM32U5xx_HAL_Driver/Src/stm32u5xx_ll_usb.c ****   } while ((USBx->GRSTCTL & USB_OTG_GRSTCTL_RXFFLSH) == USB_OTG_GRSTCTL_RXFFLSH);
 534:Drivers/STM32U5xx_HAL_Driver/Src/stm32u5xx_ll_usb.c **** 
 535:Drivers/STM32U5xx_HAL_Driver/Src/stm32u5xx_ll_usb.c ****   return HAL_OK;
 536:Drivers/STM32U5xx_HAL_Driver/Src/stm32u5xx_ll_usb.c **** }
 537:Drivers/STM32U5xx_HAL_Driver/Src/stm32u5xx_ll_usb.c **** 
 538:Drivers/STM32U5xx_HAL_Driver/Src/stm32u5xx_ll_usb.c **** /**
 539:Drivers/STM32U5xx_HAL_Driver/Src/stm32u5xx_ll_usb.c ****   * @brief  USB_SetDevSpeed  Initializes the DevSpd field of DCFG register
 540:Drivers/STM32U5xx_HAL_Driver/Src/stm32u5xx_ll_usb.c ****   *         depending the PHY type and the enumeration speed of the device.
 541:Drivers/STM32U5xx_HAL_Driver/Src/stm32u5xx_ll_usb.c ****   * @param  USBx  Selected device
 542:Drivers/STM32U5xx_HAL_Driver/Src/stm32u5xx_ll_usb.c ****   * @param  speed  device speed
ARM GAS  /tmp/cc0vokHo.s 			page 11


 543:Drivers/STM32U5xx_HAL_Driver/Src/stm32u5xx_ll_usb.c ****   *          This parameter can be one of these values:
 544:Drivers/STM32U5xx_HAL_Driver/Src/stm32u5xx_ll_usb.c ****   *            @arg USB_OTG_SPEED_HIGH: High speed mode
 545:Drivers/STM32U5xx_HAL_Driver/Src/stm32u5xx_ll_usb.c ****   *            @arg USB_OTG_SPEED_HIGH_IN_FULL: High speed core in Full Speed mode
 546:Drivers/STM32U5xx_HAL_Driver/Src/stm32u5xx_ll_usb.c ****   *            @arg USB_OTG_SPEED_FULL: Full speed mode
 547:Drivers/STM32U5xx_HAL_Driver/Src/stm32u5xx_ll_usb.c ****   * @retval  Hal status
 548:Drivers/STM32U5xx_HAL_Driver/Src/stm32u5xx_ll_usb.c ****   */
 549:Drivers/STM32U5xx_HAL_Driver/Src/stm32u5xx_ll_usb.c **** HAL_StatusTypeDef USB_SetDevSpeed(USB_OTG_GlobalTypeDef *USBx, uint8_t speed)
 550:Drivers/STM32U5xx_HAL_Driver/Src/stm32u5xx_ll_usb.c **** {
 551:Drivers/STM32U5xx_HAL_Driver/Src/stm32u5xx_ll_usb.c ****   uint32_t USBx_BASE = (uint32_t)USBx;
 552:Drivers/STM32U5xx_HAL_Driver/Src/stm32u5xx_ll_usb.c **** 
 553:Drivers/STM32U5xx_HAL_Driver/Src/stm32u5xx_ll_usb.c ****   USBx_DEVICE->DCFG |= speed;
 554:Drivers/STM32U5xx_HAL_Driver/Src/stm32u5xx_ll_usb.c ****   return HAL_OK;
 555:Drivers/STM32U5xx_HAL_Driver/Src/stm32u5xx_ll_usb.c **** }
 556:Drivers/STM32U5xx_HAL_Driver/Src/stm32u5xx_ll_usb.c **** 
 557:Drivers/STM32U5xx_HAL_Driver/Src/stm32u5xx_ll_usb.c **** /**
 558:Drivers/STM32U5xx_HAL_Driver/Src/stm32u5xx_ll_usb.c ****   * @brief  USB_GetDevSpeed  Return the Dev Speed
 559:Drivers/STM32U5xx_HAL_Driver/Src/stm32u5xx_ll_usb.c ****   * @param  USBx  Selected device
 560:Drivers/STM32U5xx_HAL_Driver/Src/stm32u5xx_ll_usb.c ****   * @retval speed  device speed
 561:Drivers/STM32U5xx_HAL_Driver/Src/stm32u5xx_ll_usb.c ****   *          This parameter can be one of these values:
 562:Drivers/STM32U5xx_HAL_Driver/Src/stm32u5xx_ll_usb.c ****   *            @arg USBD_HS_SPEED: High speed mode
 563:Drivers/STM32U5xx_HAL_Driver/Src/stm32u5xx_ll_usb.c ****   *            @arg USBD_FS_SPEED: Full speed mode
 564:Drivers/STM32U5xx_HAL_Driver/Src/stm32u5xx_ll_usb.c ****   */
 565:Drivers/STM32U5xx_HAL_Driver/Src/stm32u5xx_ll_usb.c **** uint8_t USB_GetDevSpeed(USB_OTG_GlobalTypeDef *USBx)
 566:Drivers/STM32U5xx_HAL_Driver/Src/stm32u5xx_ll_usb.c **** {
 567:Drivers/STM32U5xx_HAL_Driver/Src/stm32u5xx_ll_usb.c ****   uint32_t USBx_BASE = (uint32_t)USBx;
 568:Drivers/STM32U5xx_HAL_Driver/Src/stm32u5xx_ll_usb.c ****   uint8_t speed;
 569:Drivers/STM32U5xx_HAL_Driver/Src/stm32u5xx_ll_usb.c ****   uint32_t DevEnumSpeed = USBx_DEVICE->DSTS & USB_OTG_DSTS_ENUMSPD;
 570:Drivers/STM32U5xx_HAL_Driver/Src/stm32u5xx_ll_usb.c **** 
 571:Drivers/STM32U5xx_HAL_Driver/Src/stm32u5xx_ll_usb.c ****   if (DevEnumSpeed == DSTS_ENUMSPD_HS_PHY_30MHZ_OR_60MHZ)
 572:Drivers/STM32U5xx_HAL_Driver/Src/stm32u5xx_ll_usb.c ****   {
 573:Drivers/STM32U5xx_HAL_Driver/Src/stm32u5xx_ll_usb.c ****     speed = USBD_HS_SPEED;
 574:Drivers/STM32U5xx_HAL_Driver/Src/stm32u5xx_ll_usb.c ****   }
 575:Drivers/STM32U5xx_HAL_Driver/Src/stm32u5xx_ll_usb.c ****   else if ((DevEnumSpeed == DSTS_ENUMSPD_FS_PHY_30MHZ_OR_60MHZ) ||
 576:Drivers/STM32U5xx_HAL_Driver/Src/stm32u5xx_ll_usb.c ****            (DevEnumSpeed == DSTS_ENUMSPD_FS_PHY_48MHZ))
 577:Drivers/STM32U5xx_HAL_Driver/Src/stm32u5xx_ll_usb.c ****   {
 578:Drivers/STM32U5xx_HAL_Driver/Src/stm32u5xx_ll_usb.c ****     speed = USBD_FS_SPEED;
 579:Drivers/STM32U5xx_HAL_Driver/Src/stm32u5xx_ll_usb.c ****   }
 580:Drivers/STM32U5xx_HAL_Driver/Src/stm32u5xx_ll_usb.c ****   else
 581:Drivers/STM32U5xx_HAL_Driver/Src/stm32u5xx_ll_usb.c ****   {
 582:Drivers/STM32U5xx_HAL_Driver/Src/stm32u5xx_ll_usb.c ****     speed = 0xFU;
 583:Drivers/STM32U5xx_HAL_Driver/Src/stm32u5xx_ll_usb.c ****   }
 584:Drivers/STM32U5xx_HAL_Driver/Src/stm32u5xx_ll_usb.c **** 
 585:Drivers/STM32U5xx_HAL_Driver/Src/stm32u5xx_ll_usb.c ****   return speed;
 586:Drivers/STM32U5xx_HAL_Driver/Src/stm32u5xx_ll_usb.c **** }
 587:Drivers/STM32U5xx_HAL_Driver/Src/stm32u5xx_ll_usb.c **** 
 588:Drivers/STM32U5xx_HAL_Driver/Src/stm32u5xx_ll_usb.c **** /**
 589:Drivers/STM32U5xx_HAL_Driver/Src/stm32u5xx_ll_usb.c ****   * @brief  Activate and configure an endpoint
 590:Drivers/STM32U5xx_HAL_Driver/Src/stm32u5xx_ll_usb.c ****   * @param  USBx  Selected device
 591:Drivers/STM32U5xx_HAL_Driver/Src/stm32u5xx_ll_usb.c ****   * @param  ep pointer to endpoint structure
 592:Drivers/STM32U5xx_HAL_Driver/Src/stm32u5xx_ll_usb.c ****   * @retval HAL status
 593:Drivers/STM32U5xx_HAL_Driver/Src/stm32u5xx_ll_usb.c ****   */
 594:Drivers/STM32U5xx_HAL_Driver/Src/stm32u5xx_ll_usb.c **** HAL_StatusTypeDef USB_ActivateEndpoint(USB_OTG_GlobalTypeDef *USBx, USB_OTG_EPTypeDef *ep)
 595:Drivers/STM32U5xx_HAL_Driver/Src/stm32u5xx_ll_usb.c **** {
 596:Drivers/STM32U5xx_HAL_Driver/Src/stm32u5xx_ll_usb.c ****   uint32_t USBx_BASE = (uint32_t)USBx;
 597:Drivers/STM32U5xx_HAL_Driver/Src/stm32u5xx_ll_usb.c ****   uint32_t epnum = (uint32_t)ep->num;
 598:Drivers/STM32U5xx_HAL_Driver/Src/stm32u5xx_ll_usb.c **** 
 599:Drivers/STM32U5xx_HAL_Driver/Src/stm32u5xx_ll_usb.c ****   if (ep->is_in == 1U)
ARM GAS  /tmp/cc0vokHo.s 			page 12


 600:Drivers/STM32U5xx_HAL_Driver/Src/stm32u5xx_ll_usb.c ****   {
 601:Drivers/STM32U5xx_HAL_Driver/Src/stm32u5xx_ll_usb.c ****     USBx_DEVICE->DAINTMSK |= USB_OTG_DAINTMSK_IEPM & (uint32_t)(1UL << (ep->num & EP_ADDR_MSK));
 602:Drivers/STM32U5xx_HAL_Driver/Src/stm32u5xx_ll_usb.c **** 
 603:Drivers/STM32U5xx_HAL_Driver/Src/stm32u5xx_ll_usb.c ****     if ((USBx_INEP(epnum)->DIEPCTL & USB_OTG_DIEPCTL_USBAEP) == 0U)
 604:Drivers/STM32U5xx_HAL_Driver/Src/stm32u5xx_ll_usb.c ****     {
 605:Drivers/STM32U5xx_HAL_Driver/Src/stm32u5xx_ll_usb.c ****       USBx_INEP(epnum)->DIEPCTL |= (ep->maxpacket & USB_OTG_DIEPCTL_MPSIZ) |
 606:Drivers/STM32U5xx_HAL_Driver/Src/stm32u5xx_ll_usb.c ****                                    ((uint32_t)ep->type << 18) | (epnum << 22) |
 607:Drivers/STM32U5xx_HAL_Driver/Src/stm32u5xx_ll_usb.c ****                                    USB_OTG_DIEPCTL_SD0PID_SEVNFRM |
 608:Drivers/STM32U5xx_HAL_Driver/Src/stm32u5xx_ll_usb.c ****                                    USB_OTG_DIEPCTL_USBAEP;
 609:Drivers/STM32U5xx_HAL_Driver/Src/stm32u5xx_ll_usb.c ****     }
 610:Drivers/STM32U5xx_HAL_Driver/Src/stm32u5xx_ll_usb.c ****   }
 611:Drivers/STM32U5xx_HAL_Driver/Src/stm32u5xx_ll_usb.c ****   else
 612:Drivers/STM32U5xx_HAL_Driver/Src/stm32u5xx_ll_usb.c ****   {
 613:Drivers/STM32U5xx_HAL_Driver/Src/stm32u5xx_ll_usb.c ****     USBx_DEVICE->DAINTMSK |= USB_OTG_DAINTMSK_OEPM & ((uint32_t)(1UL << (ep->num & EP_ADDR_MSK)) <<
 614:Drivers/STM32U5xx_HAL_Driver/Src/stm32u5xx_ll_usb.c **** 
 615:Drivers/STM32U5xx_HAL_Driver/Src/stm32u5xx_ll_usb.c ****     if (((USBx_OUTEP(epnum)->DOEPCTL) & USB_OTG_DOEPCTL_USBAEP) == 0U)
 616:Drivers/STM32U5xx_HAL_Driver/Src/stm32u5xx_ll_usb.c ****     {
 617:Drivers/STM32U5xx_HAL_Driver/Src/stm32u5xx_ll_usb.c ****       USBx_OUTEP(epnum)->DOEPCTL |= (ep->maxpacket & USB_OTG_DOEPCTL_MPSIZ) |
 618:Drivers/STM32U5xx_HAL_Driver/Src/stm32u5xx_ll_usb.c ****                                     ((uint32_t)ep->type << 18) |
 619:Drivers/STM32U5xx_HAL_Driver/Src/stm32u5xx_ll_usb.c ****                                     USB_OTG_DIEPCTL_SD0PID_SEVNFRM |
 620:Drivers/STM32U5xx_HAL_Driver/Src/stm32u5xx_ll_usb.c ****                                     USB_OTG_DOEPCTL_USBAEP;
 621:Drivers/STM32U5xx_HAL_Driver/Src/stm32u5xx_ll_usb.c ****     }
 622:Drivers/STM32U5xx_HAL_Driver/Src/stm32u5xx_ll_usb.c ****   }
 623:Drivers/STM32U5xx_HAL_Driver/Src/stm32u5xx_ll_usb.c ****   return HAL_OK;
 624:Drivers/STM32U5xx_HAL_Driver/Src/stm32u5xx_ll_usb.c **** }
 625:Drivers/STM32U5xx_HAL_Driver/Src/stm32u5xx_ll_usb.c **** 
 626:Drivers/STM32U5xx_HAL_Driver/Src/stm32u5xx_ll_usb.c **** /**
 627:Drivers/STM32U5xx_HAL_Driver/Src/stm32u5xx_ll_usb.c ****   * @brief  Activate and configure a dedicated endpoint
 628:Drivers/STM32U5xx_HAL_Driver/Src/stm32u5xx_ll_usb.c ****   * @param  USBx  Selected device
 629:Drivers/STM32U5xx_HAL_Driver/Src/stm32u5xx_ll_usb.c ****   * @param  ep pointer to endpoint structure
 630:Drivers/STM32U5xx_HAL_Driver/Src/stm32u5xx_ll_usb.c ****   * @retval HAL status
 631:Drivers/STM32U5xx_HAL_Driver/Src/stm32u5xx_ll_usb.c ****   */
 632:Drivers/STM32U5xx_HAL_Driver/Src/stm32u5xx_ll_usb.c **** HAL_StatusTypeDef USB_ActivateDedicatedEndpoint(USB_OTG_GlobalTypeDef *USBx, USB_OTG_EPTypeDef *ep)
 633:Drivers/STM32U5xx_HAL_Driver/Src/stm32u5xx_ll_usb.c **** {
 634:Drivers/STM32U5xx_HAL_Driver/Src/stm32u5xx_ll_usb.c ****   uint32_t USBx_BASE = (uint32_t)USBx;
 635:Drivers/STM32U5xx_HAL_Driver/Src/stm32u5xx_ll_usb.c ****   uint32_t epnum = (uint32_t)ep->num;
 636:Drivers/STM32U5xx_HAL_Driver/Src/stm32u5xx_ll_usb.c **** 
 637:Drivers/STM32U5xx_HAL_Driver/Src/stm32u5xx_ll_usb.c ****   /* Read DEPCTLn register */
 638:Drivers/STM32U5xx_HAL_Driver/Src/stm32u5xx_ll_usb.c ****   if (ep->is_in == 1U)
 639:Drivers/STM32U5xx_HAL_Driver/Src/stm32u5xx_ll_usb.c ****   {
 640:Drivers/STM32U5xx_HAL_Driver/Src/stm32u5xx_ll_usb.c ****     if (((USBx_INEP(epnum)->DIEPCTL) & USB_OTG_DIEPCTL_USBAEP) == 0U)
 641:Drivers/STM32U5xx_HAL_Driver/Src/stm32u5xx_ll_usb.c ****     {
 642:Drivers/STM32U5xx_HAL_Driver/Src/stm32u5xx_ll_usb.c ****       USBx_INEP(epnum)->DIEPCTL |= (ep->maxpacket & USB_OTG_DIEPCTL_MPSIZ) |
 643:Drivers/STM32U5xx_HAL_Driver/Src/stm32u5xx_ll_usb.c ****                                    ((uint32_t)ep->type << 18) | (epnum << 22) |
 644:Drivers/STM32U5xx_HAL_Driver/Src/stm32u5xx_ll_usb.c ****                                    USB_OTG_DIEPCTL_SD0PID_SEVNFRM |
 645:Drivers/STM32U5xx_HAL_Driver/Src/stm32u5xx_ll_usb.c ****                                    USB_OTG_DIEPCTL_USBAEP;
 646:Drivers/STM32U5xx_HAL_Driver/Src/stm32u5xx_ll_usb.c ****     }
 647:Drivers/STM32U5xx_HAL_Driver/Src/stm32u5xx_ll_usb.c **** 
 648:Drivers/STM32U5xx_HAL_Driver/Src/stm32u5xx_ll_usb.c ****     USBx_DEVICE->DEACHMSK |= USB_OTG_DAINTMSK_IEPM & (uint32_t)(1UL << (ep->num & EP_ADDR_MSK));
 649:Drivers/STM32U5xx_HAL_Driver/Src/stm32u5xx_ll_usb.c ****   }
 650:Drivers/STM32U5xx_HAL_Driver/Src/stm32u5xx_ll_usb.c ****   else
 651:Drivers/STM32U5xx_HAL_Driver/Src/stm32u5xx_ll_usb.c ****   {
 652:Drivers/STM32U5xx_HAL_Driver/Src/stm32u5xx_ll_usb.c ****     if (((USBx_OUTEP(epnum)->DOEPCTL) & USB_OTG_DOEPCTL_USBAEP) == 0U)
 653:Drivers/STM32U5xx_HAL_Driver/Src/stm32u5xx_ll_usb.c ****     {
 654:Drivers/STM32U5xx_HAL_Driver/Src/stm32u5xx_ll_usb.c ****       USBx_OUTEP(epnum)->DOEPCTL |= (ep->maxpacket & USB_OTG_DOEPCTL_MPSIZ) |
 655:Drivers/STM32U5xx_HAL_Driver/Src/stm32u5xx_ll_usb.c ****                                     ((uint32_t)ep->type << 18) | (epnum << 22) |
 656:Drivers/STM32U5xx_HAL_Driver/Src/stm32u5xx_ll_usb.c ****                                     USB_OTG_DOEPCTL_USBAEP;
ARM GAS  /tmp/cc0vokHo.s 			page 13


 657:Drivers/STM32U5xx_HAL_Driver/Src/stm32u5xx_ll_usb.c ****     }
 658:Drivers/STM32U5xx_HAL_Driver/Src/stm32u5xx_ll_usb.c **** 
 659:Drivers/STM32U5xx_HAL_Driver/Src/stm32u5xx_ll_usb.c ****     USBx_DEVICE->DEACHMSK |= USB_OTG_DAINTMSK_OEPM & ((uint32_t)(1UL << (ep->num & EP_ADDR_MSK)) <<
 660:Drivers/STM32U5xx_HAL_Driver/Src/stm32u5xx_ll_usb.c ****   }
 661:Drivers/STM32U5xx_HAL_Driver/Src/stm32u5xx_ll_usb.c **** 
 662:Drivers/STM32U5xx_HAL_Driver/Src/stm32u5xx_ll_usb.c ****   return HAL_OK;
 663:Drivers/STM32U5xx_HAL_Driver/Src/stm32u5xx_ll_usb.c **** }
 664:Drivers/STM32U5xx_HAL_Driver/Src/stm32u5xx_ll_usb.c **** 
 665:Drivers/STM32U5xx_HAL_Driver/Src/stm32u5xx_ll_usb.c **** /**
 666:Drivers/STM32U5xx_HAL_Driver/Src/stm32u5xx_ll_usb.c ****   * @brief  De-activate and de-initialize an endpoint
 667:Drivers/STM32U5xx_HAL_Driver/Src/stm32u5xx_ll_usb.c ****   * @param  USBx  Selected device
 668:Drivers/STM32U5xx_HAL_Driver/Src/stm32u5xx_ll_usb.c ****   * @param  ep pointer to endpoint structure
 669:Drivers/STM32U5xx_HAL_Driver/Src/stm32u5xx_ll_usb.c ****   * @retval HAL status
 670:Drivers/STM32U5xx_HAL_Driver/Src/stm32u5xx_ll_usb.c ****   */
 671:Drivers/STM32U5xx_HAL_Driver/Src/stm32u5xx_ll_usb.c **** HAL_StatusTypeDef USB_DeactivateEndpoint(USB_OTG_GlobalTypeDef *USBx, USB_OTG_EPTypeDef *ep)
 672:Drivers/STM32U5xx_HAL_Driver/Src/stm32u5xx_ll_usb.c **** {
 673:Drivers/STM32U5xx_HAL_Driver/Src/stm32u5xx_ll_usb.c ****   uint32_t USBx_BASE = (uint32_t)USBx;
 674:Drivers/STM32U5xx_HAL_Driver/Src/stm32u5xx_ll_usb.c ****   uint32_t epnum = (uint32_t)ep->num;
 675:Drivers/STM32U5xx_HAL_Driver/Src/stm32u5xx_ll_usb.c **** 
 676:Drivers/STM32U5xx_HAL_Driver/Src/stm32u5xx_ll_usb.c ****   /* Read DEPCTLn register */
 677:Drivers/STM32U5xx_HAL_Driver/Src/stm32u5xx_ll_usb.c ****   if (ep->is_in == 1U)
 678:Drivers/STM32U5xx_HAL_Driver/Src/stm32u5xx_ll_usb.c ****   {
 679:Drivers/STM32U5xx_HAL_Driver/Src/stm32u5xx_ll_usb.c ****     if ((USBx_INEP(epnum)->DIEPCTL & USB_OTG_DIEPCTL_EPENA) == USB_OTG_DIEPCTL_EPENA)
 680:Drivers/STM32U5xx_HAL_Driver/Src/stm32u5xx_ll_usb.c ****     {
 681:Drivers/STM32U5xx_HAL_Driver/Src/stm32u5xx_ll_usb.c ****       USBx_INEP(epnum)->DIEPCTL |= USB_OTG_DIEPCTL_SNAK;
 682:Drivers/STM32U5xx_HAL_Driver/Src/stm32u5xx_ll_usb.c ****       USBx_INEP(epnum)->DIEPCTL |= USB_OTG_DIEPCTL_EPDIS;
 683:Drivers/STM32U5xx_HAL_Driver/Src/stm32u5xx_ll_usb.c ****     }
 684:Drivers/STM32U5xx_HAL_Driver/Src/stm32u5xx_ll_usb.c **** 
 685:Drivers/STM32U5xx_HAL_Driver/Src/stm32u5xx_ll_usb.c ****     USBx_DEVICE->DEACHMSK &= ~(USB_OTG_DAINTMSK_IEPM & (uint32_t)(1UL << (ep->num & EP_ADDR_MSK)));
 686:Drivers/STM32U5xx_HAL_Driver/Src/stm32u5xx_ll_usb.c ****     USBx_DEVICE->DAINTMSK &= ~(USB_OTG_DAINTMSK_IEPM & (uint32_t)(1UL << (ep->num & EP_ADDR_MSK)));
 687:Drivers/STM32U5xx_HAL_Driver/Src/stm32u5xx_ll_usb.c ****     USBx_INEP(epnum)->DIEPCTL &= ~(USB_OTG_DIEPCTL_USBAEP |
 688:Drivers/STM32U5xx_HAL_Driver/Src/stm32u5xx_ll_usb.c ****                                    USB_OTG_DIEPCTL_MPSIZ |
 689:Drivers/STM32U5xx_HAL_Driver/Src/stm32u5xx_ll_usb.c ****                                    USB_OTG_DIEPCTL_TXFNUM |
 690:Drivers/STM32U5xx_HAL_Driver/Src/stm32u5xx_ll_usb.c ****                                    USB_OTG_DIEPCTL_SD0PID_SEVNFRM |
 691:Drivers/STM32U5xx_HAL_Driver/Src/stm32u5xx_ll_usb.c ****                                    USB_OTG_DIEPCTL_EPTYP);
 692:Drivers/STM32U5xx_HAL_Driver/Src/stm32u5xx_ll_usb.c ****   }
 693:Drivers/STM32U5xx_HAL_Driver/Src/stm32u5xx_ll_usb.c ****   else
 694:Drivers/STM32U5xx_HAL_Driver/Src/stm32u5xx_ll_usb.c ****   {
 695:Drivers/STM32U5xx_HAL_Driver/Src/stm32u5xx_ll_usb.c ****     if ((USBx_OUTEP(epnum)->DOEPCTL & USB_OTG_DOEPCTL_EPENA) == USB_OTG_DOEPCTL_EPENA)
 696:Drivers/STM32U5xx_HAL_Driver/Src/stm32u5xx_ll_usb.c ****     {
 697:Drivers/STM32U5xx_HAL_Driver/Src/stm32u5xx_ll_usb.c ****       USBx_OUTEP(epnum)->DOEPCTL |= USB_OTG_DOEPCTL_SNAK;
 698:Drivers/STM32U5xx_HAL_Driver/Src/stm32u5xx_ll_usb.c ****       USBx_OUTEP(epnum)->DOEPCTL |= USB_OTG_DOEPCTL_EPDIS;
 699:Drivers/STM32U5xx_HAL_Driver/Src/stm32u5xx_ll_usb.c ****     }
 700:Drivers/STM32U5xx_HAL_Driver/Src/stm32u5xx_ll_usb.c **** 
 701:Drivers/STM32U5xx_HAL_Driver/Src/stm32u5xx_ll_usb.c ****     USBx_DEVICE->DEACHMSK &= ~(USB_OTG_DAINTMSK_OEPM & ((uint32_t)(1UL << (ep->num & EP_ADDR_MSK)) 
 702:Drivers/STM32U5xx_HAL_Driver/Src/stm32u5xx_ll_usb.c ****     USBx_DEVICE->DAINTMSK &= ~(USB_OTG_DAINTMSK_OEPM & ((uint32_t)(1UL << (ep->num & EP_ADDR_MSK)) 
 703:Drivers/STM32U5xx_HAL_Driver/Src/stm32u5xx_ll_usb.c ****     USBx_OUTEP(epnum)->DOEPCTL &= ~(USB_OTG_DOEPCTL_USBAEP |
 704:Drivers/STM32U5xx_HAL_Driver/Src/stm32u5xx_ll_usb.c ****                                     USB_OTG_DOEPCTL_MPSIZ |
 705:Drivers/STM32U5xx_HAL_Driver/Src/stm32u5xx_ll_usb.c ****                                     USB_OTG_DOEPCTL_SD0PID_SEVNFRM |
 706:Drivers/STM32U5xx_HAL_Driver/Src/stm32u5xx_ll_usb.c ****                                     USB_OTG_DOEPCTL_EPTYP);
 707:Drivers/STM32U5xx_HAL_Driver/Src/stm32u5xx_ll_usb.c ****   }
 708:Drivers/STM32U5xx_HAL_Driver/Src/stm32u5xx_ll_usb.c **** 
 709:Drivers/STM32U5xx_HAL_Driver/Src/stm32u5xx_ll_usb.c ****   return HAL_OK;
 710:Drivers/STM32U5xx_HAL_Driver/Src/stm32u5xx_ll_usb.c **** }
 711:Drivers/STM32U5xx_HAL_Driver/Src/stm32u5xx_ll_usb.c **** 
 712:Drivers/STM32U5xx_HAL_Driver/Src/stm32u5xx_ll_usb.c **** /**
 713:Drivers/STM32U5xx_HAL_Driver/Src/stm32u5xx_ll_usb.c ****   * @brief  De-activate and de-initialize a dedicated endpoint
ARM GAS  /tmp/cc0vokHo.s 			page 14


 714:Drivers/STM32U5xx_HAL_Driver/Src/stm32u5xx_ll_usb.c ****   * @param  USBx  Selected device
 715:Drivers/STM32U5xx_HAL_Driver/Src/stm32u5xx_ll_usb.c ****   * @param  ep pointer to endpoint structure
 716:Drivers/STM32U5xx_HAL_Driver/Src/stm32u5xx_ll_usb.c ****   * @retval HAL status
 717:Drivers/STM32U5xx_HAL_Driver/Src/stm32u5xx_ll_usb.c ****   */
 718:Drivers/STM32U5xx_HAL_Driver/Src/stm32u5xx_ll_usb.c **** HAL_StatusTypeDef USB_DeactivateDedicatedEndpoint(USB_OTG_GlobalTypeDef *USBx, USB_OTG_EPTypeDef *e
 719:Drivers/STM32U5xx_HAL_Driver/Src/stm32u5xx_ll_usb.c **** {
 720:Drivers/STM32U5xx_HAL_Driver/Src/stm32u5xx_ll_usb.c ****   uint32_t USBx_BASE = (uint32_t)USBx;
 721:Drivers/STM32U5xx_HAL_Driver/Src/stm32u5xx_ll_usb.c ****   uint32_t epnum = (uint32_t)ep->num;
 722:Drivers/STM32U5xx_HAL_Driver/Src/stm32u5xx_ll_usb.c **** 
 723:Drivers/STM32U5xx_HAL_Driver/Src/stm32u5xx_ll_usb.c ****   /* Read DEPCTLn register */
 724:Drivers/STM32U5xx_HAL_Driver/Src/stm32u5xx_ll_usb.c ****   if (ep->is_in == 1U)
 725:Drivers/STM32U5xx_HAL_Driver/Src/stm32u5xx_ll_usb.c ****   {
 726:Drivers/STM32U5xx_HAL_Driver/Src/stm32u5xx_ll_usb.c ****     if ((USBx_INEP(epnum)->DIEPCTL & USB_OTG_DIEPCTL_EPENA) == USB_OTG_DIEPCTL_EPENA)
 727:Drivers/STM32U5xx_HAL_Driver/Src/stm32u5xx_ll_usb.c ****     {
 728:Drivers/STM32U5xx_HAL_Driver/Src/stm32u5xx_ll_usb.c ****       USBx_INEP(epnum)->DIEPCTL  |= USB_OTG_DIEPCTL_SNAK;
 729:Drivers/STM32U5xx_HAL_Driver/Src/stm32u5xx_ll_usb.c ****       USBx_INEP(epnum)->DIEPCTL  |= USB_OTG_DIEPCTL_EPDIS;
 730:Drivers/STM32U5xx_HAL_Driver/Src/stm32u5xx_ll_usb.c ****     }
 731:Drivers/STM32U5xx_HAL_Driver/Src/stm32u5xx_ll_usb.c **** 
 732:Drivers/STM32U5xx_HAL_Driver/Src/stm32u5xx_ll_usb.c ****     USBx_INEP(epnum)->DIEPCTL &= ~ USB_OTG_DIEPCTL_USBAEP;
 733:Drivers/STM32U5xx_HAL_Driver/Src/stm32u5xx_ll_usb.c ****     USBx_DEVICE->DAINTMSK &= ~(USB_OTG_DAINTMSK_IEPM & (uint32_t)(1UL << (ep->num & EP_ADDR_MSK)));
 734:Drivers/STM32U5xx_HAL_Driver/Src/stm32u5xx_ll_usb.c ****   }
 735:Drivers/STM32U5xx_HAL_Driver/Src/stm32u5xx_ll_usb.c ****   else
 736:Drivers/STM32U5xx_HAL_Driver/Src/stm32u5xx_ll_usb.c ****   {
 737:Drivers/STM32U5xx_HAL_Driver/Src/stm32u5xx_ll_usb.c ****     if ((USBx_OUTEP(epnum)->DOEPCTL & USB_OTG_DOEPCTL_EPENA) == USB_OTG_DOEPCTL_EPENA)
 738:Drivers/STM32U5xx_HAL_Driver/Src/stm32u5xx_ll_usb.c ****     {
 739:Drivers/STM32U5xx_HAL_Driver/Src/stm32u5xx_ll_usb.c ****       USBx_OUTEP(epnum)->DOEPCTL  |= USB_OTG_DOEPCTL_SNAK;
 740:Drivers/STM32U5xx_HAL_Driver/Src/stm32u5xx_ll_usb.c ****       USBx_OUTEP(epnum)->DOEPCTL  |= USB_OTG_DOEPCTL_EPDIS;
 741:Drivers/STM32U5xx_HAL_Driver/Src/stm32u5xx_ll_usb.c ****     }
 742:Drivers/STM32U5xx_HAL_Driver/Src/stm32u5xx_ll_usb.c **** 
 743:Drivers/STM32U5xx_HAL_Driver/Src/stm32u5xx_ll_usb.c ****     USBx_OUTEP(epnum)->DOEPCTL &= ~USB_OTG_DOEPCTL_USBAEP;
 744:Drivers/STM32U5xx_HAL_Driver/Src/stm32u5xx_ll_usb.c ****     USBx_DEVICE->DAINTMSK &= ~(USB_OTG_DAINTMSK_OEPM & ((uint32_t)(1UL << (ep->num & EP_ADDR_MSK)) 
 745:Drivers/STM32U5xx_HAL_Driver/Src/stm32u5xx_ll_usb.c ****   }
 746:Drivers/STM32U5xx_HAL_Driver/Src/stm32u5xx_ll_usb.c **** 
 747:Drivers/STM32U5xx_HAL_Driver/Src/stm32u5xx_ll_usb.c ****   return HAL_OK;
 748:Drivers/STM32U5xx_HAL_Driver/Src/stm32u5xx_ll_usb.c **** }
 749:Drivers/STM32U5xx_HAL_Driver/Src/stm32u5xx_ll_usb.c **** 
 750:Drivers/STM32U5xx_HAL_Driver/Src/stm32u5xx_ll_usb.c **** /**
 751:Drivers/STM32U5xx_HAL_Driver/Src/stm32u5xx_ll_usb.c ****   * @brief  USB_EPStartXfer : setup and starts a transfer over an EP
 752:Drivers/STM32U5xx_HAL_Driver/Src/stm32u5xx_ll_usb.c ****   * @param  USBx  Selected device
 753:Drivers/STM32U5xx_HAL_Driver/Src/stm32u5xx_ll_usb.c ****   * @param  ep pointer to endpoint structure
 754:Drivers/STM32U5xx_HAL_Driver/Src/stm32u5xx_ll_usb.c ****   * @param  dma USB dma enabled or disabled
 755:Drivers/STM32U5xx_HAL_Driver/Src/stm32u5xx_ll_usb.c ****   *          This parameter can be one of these values:
 756:Drivers/STM32U5xx_HAL_Driver/Src/stm32u5xx_ll_usb.c ****   *           0 : DMA feature not used
 757:Drivers/STM32U5xx_HAL_Driver/Src/stm32u5xx_ll_usb.c ****   *           1 : DMA feature used
 758:Drivers/STM32U5xx_HAL_Driver/Src/stm32u5xx_ll_usb.c ****   * @retval HAL status
 759:Drivers/STM32U5xx_HAL_Driver/Src/stm32u5xx_ll_usb.c ****   */
 760:Drivers/STM32U5xx_HAL_Driver/Src/stm32u5xx_ll_usb.c **** HAL_StatusTypeDef USB_EPStartXfer(USB_OTG_GlobalTypeDef *USBx, USB_OTG_EPTypeDef *ep, uint8_t dma)
 761:Drivers/STM32U5xx_HAL_Driver/Src/stm32u5xx_ll_usb.c **** {
 762:Drivers/STM32U5xx_HAL_Driver/Src/stm32u5xx_ll_usb.c ****   uint32_t USBx_BASE = (uint32_t)USBx;
 763:Drivers/STM32U5xx_HAL_Driver/Src/stm32u5xx_ll_usb.c ****   uint32_t epnum = (uint32_t)ep->num;
 764:Drivers/STM32U5xx_HAL_Driver/Src/stm32u5xx_ll_usb.c ****   uint16_t pktcnt;
 765:Drivers/STM32U5xx_HAL_Driver/Src/stm32u5xx_ll_usb.c **** 
 766:Drivers/STM32U5xx_HAL_Driver/Src/stm32u5xx_ll_usb.c ****   /* IN endpoint */
 767:Drivers/STM32U5xx_HAL_Driver/Src/stm32u5xx_ll_usb.c ****   if (ep->is_in == 1U)
 768:Drivers/STM32U5xx_HAL_Driver/Src/stm32u5xx_ll_usb.c ****   {
 769:Drivers/STM32U5xx_HAL_Driver/Src/stm32u5xx_ll_usb.c ****     /* Zero Length Packet? */
 770:Drivers/STM32U5xx_HAL_Driver/Src/stm32u5xx_ll_usb.c ****     if (ep->xfer_len == 0U)
ARM GAS  /tmp/cc0vokHo.s 			page 15


 771:Drivers/STM32U5xx_HAL_Driver/Src/stm32u5xx_ll_usb.c ****     {
 772:Drivers/STM32U5xx_HAL_Driver/Src/stm32u5xx_ll_usb.c ****       USBx_INEP(epnum)->DIEPTSIZ &= ~(USB_OTG_DIEPTSIZ_PKTCNT);
 773:Drivers/STM32U5xx_HAL_Driver/Src/stm32u5xx_ll_usb.c ****       USBx_INEP(epnum)->DIEPTSIZ |= (USB_OTG_DIEPTSIZ_PKTCNT & (1U << 19));
 774:Drivers/STM32U5xx_HAL_Driver/Src/stm32u5xx_ll_usb.c ****       USBx_INEP(epnum)->DIEPTSIZ &= ~(USB_OTG_DIEPTSIZ_XFRSIZ);
 775:Drivers/STM32U5xx_HAL_Driver/Src/stm32u5xx_ll_usb.c ****     }
 776:Drivers/STM32U5xx_HAL_Driver/Src/stm32u5xx_ll_usb.c ****     else
 777:Drivers/STM32U5xx_HAL_Driver/Src/stm32u5xx_ll_usb.c ****     {
 778:Drivers/STM32U5xx_HAL_Driver/Src/stm32u5xx_ll_usb.c ****       /* Program the transfer size and packet count
 779:Drivers/STM32U5xx_HAL_Driver/Src/stm32u5xx_ll_usb.c ****       * as follows: xfersize = N * maxpacket +
 780:Drivers/STM32U5xx_HAL_Driver/Src/stm32u5xx_ll_usb.c ****       * short_packet pktcnt = N + (short_packet
 781:Drivers/STM32U5xx_HAL_Driver/Src/stm32u5xx_ll_usb.c ****       * exist ? 1 : 0)
 782:Drivers/STM32U5xx_HAL_Driver/Src/stm32u5xx_ll_usb.c ****       */
 783:Drivers/STM32U5xx_HAL_Driver/Src/stm32u5xx_ll_usb.c ****       USBx_INEP(epnum)->DIEPTSIZ &= ~(USB_OTG_DIEPTSIZ_XFRSIZ);
 784:Drivers/STM32U5xx_HAL_Driver/Src/stm32u5xx_ll_usb.c ****       USBx_INEP(epnum)->DIEPTSIZ &= ~(USB_OTG_DIEPTSIZ_PKTCNT);
 785:Drivers/STM32U5xx_HAL_Driver/Src/stm32u5xx_ll_usb.c **** 
 786:Drivers/STM32U5xx_HAL_Driver/Src/stm32u5xx_ll_usb.c ****       if (epnum == 0U)
 787:Drivers/STM32U5xx_HAL_Driver/Src/stm32u5xx_ll_usb.c ****       {
 788:Drivers/STM32U5xx_HAL_Driver/Src/stm32u5xx_ll_usb.c ****         if (ep->xfer_len > ep->maxpacket)
 789:Drivers/STM32U5xx_HAL_Driver/Src/stm32u5xx_ll_usb.c ****         {
 790:Drivers/STM32U5xx_HAL_Driver/Src/stm32u5xx_ll_usb.c ****           ep->xfer_len = ep->maxpacket;
 791:Drivers/STM32U5xx_HAL_Driver/Src/stm32u5xx_ll_usb.c ****         }
 792:Drivers/STM32U5xx_HAL_Driver/Src/stm32u5xx_ll_usb.c **** 
 793:Drivers/STM32U5xx_HAL_Driver/Src/stm32u5xx_ll_usb.c ****         USBx_INEP(epnum)->DIEPTSIZ |= (USB_OTG_DIEPTSIZ_PKTCNT & (1U << 19));
 794:Drivers/STM32U5xx_HAL_Driver/Src/stm32u5xx_ll_usb.c ****       }
 795:Drivers/STM32U5xx_HAL_Driver/Src/stm32u5xx_ll_usb.c ****       else
 796:Drivers/STM32U5xx_HAL_Driver/Src/stm32u5xx_ll_usb.c ****       {
 797:Drivers/STM32U5xx_HAL_Driver/Src/stm32u5xx_ll_usb.c ****         USBx_INEP(epnum)->DIEPTSIZ |= (USB_OTG_DIEPTSIZ_PKTCNT &
 798:Drivers/STM32U5xx_HAL_Driver/Src/stm32u5xx_ll_usb.c ****                                        (((ep->xfer_len + ep->maxpacket - 1U) / ep->maxpacket) << 19
 799:Drivers/STM32U5xx_HAL_Driver/Src/stm32u5xx_ll_usb.c ****       }
 800:Drivers/STM32U5xx_HAL_Driver/Src/stm32u5xx_ll_usb.c **** 
 801:Drivers/STM32U5xx_HAL_Driver/Src/stm32u5xx_ll_usb.c ****       USBx_INEP(epnum)->DIEPTSIZ |= (USB_OTG_DIEPTSIZ_XFRSIZ & ep->xfer_len);
 802:Drivers/STM32U5xx_HAL_Driver/Src/stm32u5xx_ll_usb.c **** 
 803:Drivers/STM32U5xx_HAL_Driver/Src/stm32u5xx_ll_usb.c ****       if (ep->type == EP_TYPE_ISOC)
 804:Drivers/STM32U5xx_HAL_Driver/Src/stm32u5xx_ll_usb.c ****       {
 805:Drivers/STM32U5xx_HAL_Driver/Src/stm32u5xx_ll_usb.c ****         USBx_INEP(epnum)->DIEPTSIZ &= ~(USB_OTG_DIEPTSIZ_MULCNT);
 806:Drivers/STM32U5xx_HAL_Driver/Src/stm32u5xx_ll_usb.c ****         USBx_INEP(epnum)->DIEPTSIZ |= (USB_OTG_DIEPTSIZ_MULCNT & (1U << 29));
 807:Drivers/STM32U5xx_HAL_Driver/Src/stm32u5xx_ll_usb.c ****       }
 808:Drivers/STM32U5xx_HAL_Driver/Src/stm32u5xx_ll_usb.c ****     }
 809:Drivers/STM32U5xx_HAL_Driver/Src/stm32u5xx_ll_usb.c **** 
 810:Drivers/STM32U5xx_HAL_Driver/Src/stm32u5xx_ll_usb.c ****     if (dma == 1U)
 811:Drivers/STM32U5xx_HAL_Driver/Src/stm32u5xx_ll_usb.c ****     {
 812:Drivers/STM32U5xx_HAL_Driver/Src/stm32u5xx_ll_usb.c ****       if ((uint32_t)ep->dma_addr != 0U)
 813:Drivers/STM32U5xx_HAL_Driver/Src/stm32u5xx_ll_usb.c ****       {
 814:Drivers/STM32U5xx_HAL_Driver/Src/stm32u5xx_ll_usb.c ****         USBx_INEP(epnum)->DIEPDMA = (uint32_t)(ep->dma_addr);
 815:Drivers/STM32U5xx_HAL_Driver/Src/stm32u5xx_ll_usb.c ****       }
 816:Drivers/STM32U5xx_HAL_Driver/Src/stm32u5xx_ll_usb.c **** 
 817:Drivers/STM32U5xx_HAL_Driver/Src/stm32u5xx_ll_usb.c ****       if (ep->type == EP_TYPE_ISOC)
 818:Drivers/STM32U5xx_HAL_Driver/Src/stm32u5xx_ll_usb.c ****       {
 819:Drivers/STM32U5xx_HAL_Driver/Src/stm32u5xx_ll_usb.c ****         if ((USBx_DEVICE->DSTS & (1U << 8)) == 0U)
 820:Drivers/STM32U5xx_HAL_Driver/Src/stm32u5xx_ll_usb.c ****         {
 821:Drivers/STM32U5xx_HAL_Driver/Src/stm32u5xx_ll_usb.c ****           USBx_INEP(epnum)->DIEPCTL |= USB_OTG_DIEPCTL_SODDFRM;
 822:Drivers/STM32U5xx_HAL_Driver/Src/stm32u5xx_ll_usb.c ****         }
 823:Drivers/STM32U5xx_HAL_Driver/Src/stm32u5xx_ll_usb.c ****         else
 824:Drivers/STM32U5xx_HAL_Driver/Src/stm32u5xx_ll_usb.c ****         {
 825:Drivers/STM32U5xx_HAL_Driver/Src/stm32u5xx_ll_usb.c ****           USBx_INEP(epnum)->DIEPCTL |= USB_OTG_DIEPCTL_SD0PID_SEVNFRM;
 826:Drivers/STM32U5xx_HAL_Driver/Src/stm32u5xx_ll_usb.c ****         }
 827:Drivers/STM32U5xx_HAL_Driver/Src/stm32u5xx_ll_usb.c ****       }
ARM GAS  /tmp/cc0vokHo.s 			page 16


 828:Drivers/STM32U5xx_HAL_Driver/Src/stm32u5xx_ll_usb.c **** 
 829:Drivers/STM32U5xx_HAL_Driver/Src/stm32u5xx_ll_usb.c ****       /* EP enable, IN data in FIFO */
 830:Drivers/STM32U5xx_HAL_Driver/Src/stm32u5xx_ll_usb.c ****       USBx_INEP(epnum)->DIEPCTL |= (USB_OTG_DIEPCTL_CNAK | USB_OTG_DIEPCTL_EPENA);
 831:Drivers/STM32U5xx_HAL_Driver/Src/stm32u5xx_ll_usb.c ****     }
 832:Drivers/STM32U5xx_HAL_Driver/Src/stm32u5xx_ll_usb.c ****     else
 833:Drivers/STM32U5xx_HAL_Driver/Src/stm32u5xx_ll_usb.c ****     {
 834:Drivers/STM32U5xx_HAL_Driver/Src/stm32u5xx_ll_usb.c ****       /* EP enable, IN data in FIFO */
 835:Drivers/STM32U5xx_HAL_Driver/Src/stm32u5xx_ll_usb.c ****       USBx_INEP(epnum)->DIEPCTL |= (USB_OTG_DIEPCTL_CNAK | USB_OTG_DIEPCTL_EPENA);
 836:Drivers/STM32U5xx_HAL_Driver/Src/stm32u5xx_ll_usb.c **** 
 837:Drivers/STM32U5xx_HAL_Driver/Src/stm32u5xx_ll_usb.c ****       if (ep->type != EP_TYPE_ISOC)
 838:Drivers/STM32U5xx_HAL_Driver/Src/stm32u5xx_ll_usb.c ****       {
 839:Drivers/STM32U5xx_HAL_Driver/Src/stm32u5xx_ll_usb.c ****         /* Enable the Tx FIFO Empty Interrupt for this EP */
 840:Drivers/STM32U5xx_HAL_Driver/Src/stm32u5xx_ll_usb.c ****         if (ep->xfer_len > 0U)
 841:Drivers/STM32U5xx_HAL_Driver/Src/stm32u5xx_ll_usb.c ****         {
 842:Drivers/STM32U5xx_HAL_Driver/Src/stm32u5xx_ll_usb.c ****           USBx_DEVICE->DIEPEMPMSK |= 1UL << (ep->num & EP_ADDR_MSK);
 843:Drivers/STM32U5xx_HAL_Driver/Src/stm32u5xx_ll_usb.c ****         }
 844:Drivers/STM32U5xx_HAL_Driver/Src/stm32u5xx_ll_usb.c ****       }
 845:Drivers/STM32U5xx_HAL_Driver/Src/stm32u5xx_ll_usb.c ****       else
 846:Drivers/STM32U5xx_HAL_Driver/Src/stm32u5xx_ll_usb.c ****       {
 847:Drivers/STM32U5xx_HAL_Driver/Src/stm32u5xx_ll_usb.c ****         if ((USBx_DEVICE->DSTS & (1U << 8)) == 0U)
 848:Drivers/STM32U5xx_HAL_Driver/Src/stm32u5xx_ll_usb.c ****         {
 849:Drivers/STM32U5xx_HAL_Driver/Src/stm32u5xx_ll_usb.c ****           USBx_INEP(epnum)->DIEPCTL |= USB_OTG_DIEPCTL_SODDFRM;
 850:Drivers/STM32U5xx_HAL_Driver/Src/stm32u5xx_ll_usb.c ****         }
 851:Drivers/STM32U5xx_HAL_Driver/Src/stm32u5xx_ll_usb.c ****         else
 852:Drivers/STM32U5xx_HAL_Driver/Src/stm32u5xx_ll_usb.c ****         {
 853:Drivers/STM32U5xx_HAL_Driver/Src/stm32u5xx_ll_usb.c ****           USBx_INEP(epnum)->DIEPCTL |= USB_OTG_DIEPCTL_SD0PID_SEVNFRM;
 854:Drivers/STM32U5xx_HAL_Driver/Src/stm32u5xx_ll_usb.c ****         }
 855:Drivers/STM32U5xx_HAL_Driver/Src/stm32u5xx_ll_usb.c **** 
 856:Drivers/STM32U5xx_HAL_Driver/Src/stm32u5xx_ll_usb.c ****         (void)USB_WritePacket(USBx, ep->xfer_buff, ep->num, (uint16_t)ep->xfer_len, dma);
 857:Drivers/STM32U5xx_HAL_Driver/Src/stm32u5xx_ll_usb.c ****       }
 858:Drivers/STM32U5xx_HAL_Driver/Src/stm32u5xx_ll_usb.c ****     }
 859:Drivers/STM32U5xx_HAL_Driver/Src/stm32u5xx_ll_usb.c ****   }
 860:Drivers/STM32U5xx_HAL_Driver/Src/stm32u5xx_ll_usb.c ****   else /* OUT endpoint */
 861:Drivers/STM32U5xx_HAL_Driver/Src/stm32u5xx_ll_usb.c ****   {
 862:Drivers/STM32U5xx_HAL_Driver/Src/stm32u5xx_ll_usb.c ****     /* Program the transfer size and packet count as follows:
 863:Drivers/STM32U5xx_HAL_Driver/Src/stm32u5xx_ll_usb.c ****     * pktcnt = N
 864:Drivers/STM32U5xx_HAL_Driver/Src/stm32u5xx_ll_usb.c ****     * xfersize = N * maxpacket
 865:Drivers/STM32U5xx_HAL_Driver/Src/stm32u5xx_ll_usb.c ****     */
 866:Drivers/STM32U5xx_HAL_Driver/Src/stm32u5xx_ll_usb.c ****     USBx_OUTEP(epnum)->DOEPTSIZ &= ~(USB_OTG_DOEPTSIZ_XFRSIZ);
 867:Drivers/STM32U5xx_HAL_Driver/Src/stm32u5xx_ll_usb.c ****     USBx_OUTEP(epnum)->DOEPTSIZ &= ~(USB_OTG_DOEPTSIZ_PKTCNT);
 868:Drivers/STM32U5xx_HAL_Driver/Src/stm32u5xx_ll_usb.c **** 
 869:Drivers/STM32U5xx_HAL_Driver/Src/stm32u5xx_ll_usb.c ****     if (epnum == 0U)
 870:Drivers/STM32U5xx_HAL_Driver/Src/stm32u5xx_ll_usb.c ****     {
 871:Drivers/STM32U5xx_HAL_Driver/Src/stm32u5xx_ll_usb.c ****       if (ep->xfer_len > 0U)
 872:Drivers/STM32U5xx_HAL_Driver/Src/stm32u5xx_ll_usb.c ****       {
 873:Drivers/STM32U5xx_HAL_Driver/Src/stm32u5xx_ll_usb.c ****         ep->xfer_len = ep->maxpacket;
 874:Drivers/STM32U5xx_HAL_Driver/Src/stm32u5xx_ll_usb.c ****       }
 875:Drivers/STM32U5xx_HAL_Driver/Src/stm32u5xx_ll_usb.c **** 
 876:Drivers/STM32U5xx_HAL_Driver/Src/stm32u5xx_ll_usb.c ****       /* Store transfer size, for EP0 this is equal to endpoint max packet size */
 877:Drivers/STM32U5xx_HAL_Driver/Src/stm32u5xx_ll_usb.c ****       ep->xfer_size = ep->maxpacket;
 878:Drivers/STM32U5xx_HAL_Driver/Src/stm32u5xx_ll_usb.c **** 
 879:Drivers/STM32U5xx_HAL_Driver/Src/stm32u5xx_ll_usb.c ****       USBx_OUTEP(epnum)->DOEPTSIZ |= (USB_OTG_DOEPTSIZ_XFRSIZ & ep->xfer_size);
 880:Drivers/STM32U5xx_HAL_Driver/Src/stm32u5xx_ll_usb.c ****       USBx_OUTEP(epnum)->DOEPTSIZ |= (USB_OTG_DOEPTSIZ_PKTCNT & (1U << 19));
 881:Drivers/STM32U5xx_HAL_Driver/Src/stm32u5xx_ll_usb.c ****     }
 882:Drivers/STM32U5xx_HAL_Driver/Src/stm32u5xx_ll_usb.c ****     else
 883:Drivers/STM32U5xx_HAL_Driver/Src/stm32u5xx_ll_usb.c ****     {
 884:Drivers/STM32U5xx_HAL_Driver/Src/stm32u5xx_ll_usb.c ****       if (ep->xfer_len == 0U)
ARM GAS  /tmp/cc0vokHo.s 			page 17


 885:Drivers/STM32U5xx_HAL_Driver/Src/stm32u5xx_ll_usb.c ****       {
 886:Drivers/STM32U5xx_HAL_Driver/Src/stm32u5xx_ll_usb.c ****         USBx_OUTEP(epnum)->DOEPTSIZ |= (USB_OTG_DOEPTSIZ_XFRSIZ & ep->maxpacket);
 887:Drivers/STM32U5xx_HAL_Driver/Src/stm32u5xx_ll_usb.c ****         USBx_OUTEP(epnum)->DOEPTSIZ |= (USB_OTG_DOEPTSIZ_PKTCNT & (1U << 19));
 888:Drivers/STM32U5xx_HAL_Driver/Src/stm32u5xx_ll_usb.c ****       }
 889:Drivers/STM32U5xx_HAL_Driver/Src/stm32u5xx_ll_usb.c ****       else
 890:Drivers/STM32U5xx_HAL_Driver/Src/stm32u5xx_ll_usb.c ****       {
 891:Drivers/STM32U5xx_HAL_Driver/Src/stm32u5xx_ll_usb.c ****         pktcnt = (uint16_t)((ep->xfer_len + ep->maxpacket - 1U) / ep->maxpacket);
 892:Drivers/STM32U5xx_HAL_Driver/Src/stm32u5xx_ll_usb.c ****         ep->xfer_size = ep->maxpacket * pktcnt;
 893:Drivers/STM32U5xx_HAL_Driver/Src/stm32u5xx_ll_usb.c **** 
 894:Drivers/STM32U5xx_HAL_Driver/Src/stm32u5xx_ll_usb.c ****         USBx_OUTEP(epnum)->DOEPTSIZ |= USB_OTG_DOEPTSIZ_PKTCNT & ((uint32_t)pktcnt << 19);
 895:Drivers/STM32U5xx_HAL_Driver/Src/stm32u5xx_ll_usb.c ****         USBx_OUTEP(epnum)->DOEPTSIZ |= USB_OTG_DOEPTSIZ_XFRSIZ & ep->xfer_size;
 896:Drivers/STM32U5xx_HAL_Driver/Src/stm32u5xx_ll_usb.c ****       }
 897:Drivers/STM32U5xx_HAL_Driver/Src/stm32u5xx_ll_usb.c ****     }
 898:Drivers/STM32U5xx_HAL_Driver/Src/stm32u5xx_ll_usb.c **** 
 899:Drivers/STM32U5xx_HAL_Driver/Src/stm32u5xx_ll_usb.c ****     if (dma == 1U)
 900:Drivers/STM32U5xx_HAL_Driver/Src/stm32u5xx_ll_usb.c ****     {
 901:Drivers/STM32U5xx_HAL_Driver/Src/stm32u5xx_ll_usb.c ****       if ((uint32_t)ep->xfer_buff != 0U)
 902:Drivers/STM32U5xx_HAL_Driver/Src/stm32u5xx_ll_usb.c ****       {
 903:Drivers/STM32U5xx_HAL_Driver/Src/stm32u5xx_ll_usb.c ****         USBx_OUTEP(epnum)->DOEPDMA = (uint32_t)(ep->xfer_buff);
 904:Drivers/STM32U5xx_HAL_Driver/Src/stm32u5xx_ll_usb.c ****       }
 905:Drivers/STM32U5xx_HAL_Driver/Src/stm32u5xx_ll_usb.c ****     }
 906:Drivers/STM32U5xx_HAL_Driver/Src/stm32u5xx_ll_usb.c **** 
 907:Drivers/STM32U5xx_HAL_Driver/Src/stm32u5xx_ll_usb.c ****     if (ep->type == EP_TYPE_ISOC)
 908:Drivers/STM32U5xx_HAL_Driver/Src/stm32u5xx_ll_usb.c ****     {
 909:Drivers/STM32U5xx_HAL_Driver/Src/stm32u5xx_ll_usb.c ****       if ((USBx_DEVICE->DSTS & (1U << 8)) == 0U)
 910:Drivers/STM32U5xx_HAL_Driver/Src/stm32u5xx_ll_usb.c ****       {
 911:Drivers/STM32U5xx_HAL_Driver/Src/stm32u5xx_ll_usb.c ****         USBx_OUTEP(epnum)->DOEPCTL |= USB_OTG_DOEPCTL_SODDFRM;
 912:Drivers/STM32U5xx_HAL_Driver/Src/stm32u5xx_ll_usb.c ****       }
 913:Drivers/STM32U5xx_HAL_Driver/Src/stm32u5xx_ll_usb.c ****       else
 914:Drivers/STM32U5xx_HAL_Driver/Src/stm32u5xx_ll_usb.c ****       {
 915:Drivers/STM32U5xx_HAL_Driver/Src/stm32u5xx_ll_usb.c ****         USBx_OUTEP(epnum)->DOEPCTL |= USB_OTG_DOEPCTL_SD0PID_SEVNFRM;
 916:Drivers/STM32U5xx_HAL_Driver/Src/stm32u5xx_ll_usb.c ****       }
 917:Drivers/STM32U5xx_HAL_Driver/Src/stm32u5xx_ll_usb.c ****     }
 918:Drivers/STM32U5xx_HAL_Driver/Src/stm32u5xx_ll_usb.c ****     /* EP enable */
 919:Drivers/STM32U5xx_HAL_Driver/Src/stm32u5xx_ll_usb.c ****     USBx_OUTEP(epnum)->DOEPCTL |= (USB_OTG_DOEPCTL_CNAK | USB_OTG_DOEPCTL_EPENA);
 920:Drivers/STM32U5xx_HAL_Driver/Src/stm32u5xx_ll_usb.c ****   }
 921:Drivers/STM32U5xx_HAL_Driver/Src/stm32u5xx_ll_usb.c **** 
 922:Drivers/STM32U5xx_HAL_Driver/Src/stm32u5xx_ll_usb.c ****   return HAL_OK;
 923:Drivers/STM32U5xx_HAL_Driver/Src/stm32u5xx_ll_usb.c **** }
 924:Drivers/STM32U5xx_HAL_Driver/Src/stm32u5xx_ll_usb.c **** 
 925:Drivers/STM32U5xx_HAL_Driver/Src/stm32u5xx_ll_usb.c **** 
 926:Drivers/STM32U5xx_HAL_Driver/Src/stm32u5xx_ll_usb.c **** /**
 927:Drivers/STM32U5xx_HAL_Driver/Src/stm32u5xx_ll_usb.c ****    * @brief  USB_EPStoptXfer  Stop transfer on an EP
 928:Drivers/STM32U5xx_HAL_Driver/Src/stm32u5xx_ll_usb.c ****    * @param  USBx  usb device instance
 929:Drivers/STM32U5xx_HAL_Driver/Src/stm32u5xx_ll_usb.c ****    * @param  ep pointer to endpoint structure
 930:Drivers/STM32U5xx_HAL_Driver/Src/stm32u5xx_ll_usb.c ****    * @retval HAL status
 931:Drivers/STM32U5xx_HAL_Driver/Src/stm32u5xx_ll_usb.c ****    */
 932:Drivers/STM32U5xx_HAL_Driver/Src/stm32u5xx_ll_usb.c **** HAL_StatusTypeDef USB_EPStopXfer(USB_OTG_GlobalTypeDef *USBx, USB_OTG_EPTypeDef *ep)
 933:Drivers/STM32U5xx_HAL_Driver/Src/stm32u5xx_ll_usb.c **** {
 934:Drivers/STM32U5xx_HAL_Driver/Src/stm32u5xx_ll_usb.c ****   __IO uint32_t count = 0U;
 935:Drivers/STM32U5xx_HAL_Driver/Src/stm32u5xx_ll_usb.c ****   HAL_StatusTypeDef ret = HAL_OK;
 936:Drivers/STM32U5xx_HAL_Driver/Src/stm32u5xx_ll_usb.c ****   uint32_t USBx_BASE = (uint32_t)USBx;
 937:Drivers/STM32U5xx_HAL_Driver/Src/stm32u5xx_ll_usb.c **** 
 938:Drivers/STM32U5xx_HAL_Driver/Src/stm32u5xx_ll_usb.c ****   /* IN endpoint */
 939:Drivers/STM32U5xx_HAL_Driver/Src/stm32u5xx_ll_usb.c ****   if (ep->is_in == 1U)
 940:Drivers/STM32U5xx_HAL_Driver/Src/stm32u5xx_ll_usb.c ****   {
 941:Drivers/STM32U5xx_HAL_Driver/Src/stm32u5xx_ll_usb.c ****     /* EP enable, IN data in FIFO */
ARM GAS  /tmp/cc0vokHo.s 			page 18


 942:Drivers/STM32U5xx_HAL_Driver/Src/stm32u5xx_ll_usb.c ****     if (((USBx_INEP(ep->num)->DIEPCTL) & USB_OTG_DIEPCTL_EPENA) == USB_OTG_DIEPCTL_EPENA)
 943:Drivers/STM32U5xx_HAL_Driver/Src/stm32u5xx_ll_usb.c ****     {
 944:Drivers/STM32U5xx_HAL_Driver/Src/stm32u5xx_ll_usb.c ****       USBx_INEP(ep->num)->DIEPCTL |= (USB_OTG_DIEPCTL_SNAK);
 945:Drivers/STM32U5xx_HAL_Driver/Src/stm32u5xx_ll_usb.c ****       USBx_INEP(ep->num)->DIEPCTL |= (USB_OTG_DIEPCTL_EPDIS);
 946:Drivers/STM32U5xx_HAL_Driver/Src/stm32u5xx_ll_usb.c **** 
 947:Drivers/STM32U5xx_HAL_Driver/Src/stm32u5xx_ll_usb.c ****       do
 948:Drivers/STM32U5xx_HAL_Driver/Src/stm32u5xx_ll_usb.c ****       {
 949:Drivers/STM32U5xx_HAL_Driver/Src/stm32u5xx_ll_usb.c ****         count++;
 950:Drivers/STM32U5xx_HAL_Driver/Src/stm32u5xx_ll_usb.c **** 
 951:Drivers/STM32U5xx_HAL_Driver/Src/stm32u5xx_ll_usb.c ****         if (count > 10000U)
 952:Drivers/STM32U5xx_HAL_Driver/Src/stm32u5xx_ll_usb.c ****         {
 953:Drivers/STM32U5xx_HAL_Driver/Src/stm32u5xx_ll_usb.c ****           ret = HAL_ERROR;
 954:Drivers/STM32U5xx_HAL_Driver/Src/stm32u5xx_ll_usb.c ****           break;
 955:Drivers/STM32U5xx_HAL_Driver/Src/stm32u5xx_ll_usb.c ****         }
 956:Drivers/STM32U5xx_HAL_Driver/Src/stm32u5xx_ll_usb.c ****       } while (((USBx_INEP(ep->num)->DIEPCTL) & USB_OTG_DIEPCTL_EPENA) ==  USB_OTG_DIEPCTL_EPENA);
 957:Drivers/STM32U5xx_HAL_Driver/Src/stm32u5xx_ll_usb.c ****     }
 958:Drivers/STM32U5xx_HAL_Driver/Src/stm32u5xx_ll_usb.c ****   }
 959:Drivers/STM32U5xx_HAL_Driver/Src/stm32u5xx_ll_usb.c ****   else /* OUT endpoint */
 960:Drivers/STM32U5xx_HAL_Driver/Src/stm32u5xx_ll_usb.c ****   {
 961:Drivers/STM32U5xx_HAL_Driver/Src/stm32u5xx_ll_usb.c ****     if (((USBx_OUTEP(ep->num)->DOEPCTL) & USB_OTG_DOEPCTL_EPENA) == USB_OTG_DOEPCTL_EPENA)
 962:Drivers/STM32U5xx_HAL_Driver/Src/stm32u5xx_ll_usb.c ****     {
 963:Drivers/STM32U5xx_HAL_Driver/Src/stm32u5xx_ll_usb.c ****       USBx_OUTEP(ep->num)->DOEPCTL |= (USB_OTG_DOEPCTL_SNAK);
 964:Drivers/STM32U5xx_HAL_Driver/Src/stm32u5xx_ll_usb.c ****       USBx_OUTEP(ep->num)->DOEPCTL |= (USB_OTG_DOEPCTL_EPDIS);
 965:Drivers/STM32U5xx_HAL_Driver/Src/stm32u5xx_ll_usb.c **** 
 966:Drivers/STM32U5xx_HAL_Driver/Src/stm32u5xx_ll_usb.c ****       do
 967:Drivers/STM32U5xx_HAL_Driver/Src/stm32u5xx_ll_usb.c ****       {
 968:Drivers/STM32U5xx_HAL_Driver/Src/stm32u5xx_ll_usb.c ****         count++;
 969:Drivers/STM32U5xx_HAL_Driver/Src/stm32u5xx_ll_usb.c **** 
 970:Drivers/STM32U5xx_HAL_Driver/Src/stm32u5xx_ll_usb.c ****         if (count > 10000U)
 971:Drivers/STM32U5xx_HAL_Driver/Src/stm32u5xx_ll_usb.c ****         {
 972:Drivers/STM32U5xx_HAL_Driver/Src/stm32u5xx_ll_usb.c ****           ret = HAL_ERROR;
 973:Drivers/STM32U5xx_HAL_Driver/Src/stm32u5xx_ll_usb.c ****           break;
 974:Drivers/STM32U5xx_HAL_Driver/Src/stm32u5xx_ll_usb.c ****         }
 975:Drivers/STM32U5xx_HAL_Driver/Src/stm32u5xx_ll_usb.c ****       } while (((USBx_OUTEP(ep->num)->DOEPCTL) & USB_OTG_DOEPCTL_EPENA) ==  USB_OTG_DOEPCTL_EPENA);
 976:Drivers/STM32U5xx_HAL_Driver/Src/stm32u5xx_ll_usb.c ****     }
 977:Drivers/STM32U5xx_HAL_Driver/Src/stm32u5xx_ll_usb.c ****   }
 978:Drivers/STM32U5xx_HAL_Driver/Src/stm32u5xx_ll_usb.c **** 
 979:Drivers/STM32U5xx_HAL_Driver/Src/stm32u5xx_ll_usb.c ****   return ret;
 980:Drivers/STM32U5xx_HAL_Driver/Src/stm32u5xx_ll_usb.c **** }
 981:Drivers/STM32U5xx_HAL_Driver/Src/stm32u5xx_ll_usb.c **** 
 982:Drivers/STM32U5xx_HAL_Driver/Src/stm32u5xx_ll_usb.c **** 
 983:Drivers/STM32U5xx_HAL_Driver/Src/stm32u5xx_ll_usb.c **** /**
 984:Drivers/STM32U5xx_HAL_Driver/Src/stm32u5xx_ll_usb.c ****   * @brief  USB_WritePacket : Writes a packet into the Tx FIFO associated
 985:Drivers/STM32U5xx_HAL_Driver/Src/stm32u5xx_ll_usb.c ****   *         with the EP/channel
 986:Drivers/STM32U5xx_HAL_Driver/Src/stm32u5xx_ll_usb.c ****   * @param  USBx  Selected device
 987:Drivers/STM32U5xx_HAL_Driver/Src/stm32u5xx_ll_usb.c ****   * @param  src   pointer to source buffer
 988:Drivers/STM32U5xx_HAL_Driver/Src/stm32u5xx_ll_usb.c ****   * @param  ch_ep_num  endpoint or host channel number
 989:Drivers/STM32U5xx_HAL_Driver/Src/stm32u5xx_ll_usb.c ****   * @param  len  Number of bytes to write
 990:Drivers/STM32U5xx_HAL_Driver/Src/stm32u5xx_ll_usb.c ****   * @param  dma USB dma enabled or disabled
 991:Drivers/STM32U5xx_HAL_Driver/Src/stm32u5xx_ll_usb.c ****   *          This parameter can be one of these values:
 992:Drivers/STM32U5xx_HAL_Driver/Src/stm32u5xx_ll_usb.c ****   *           0 : DMA feature not used
 993:Drivers/STM32U5xx_HAL_Driver/Src/stm32u5xx_ll_usb.c ****   *           1 : DMA feature used
 994:Drivers/STM32U5xx_HAL_Driver/Src/stm32u5xx_ll_usb.c ****   * @retval HAL status
 995:Drivers/STM32U5xx_HAL_Driver/Src/stm32u5xx_ll_usb.c ****   */
 996:Drivers/STM32U5xx_HAL_Driver/Src/stm32u5xx_ll_usb.c **** HAL_StatusTypeDef USB_WritePacket(USB_OTG_GlobalTypeDef *USBx, uint8_t *src,
 997:Drivers/STM32U5xx_HAL_Driver/Src/stm32u5xx_ll_usb.c ****                                   uint8_t ch_ep_num, uint16_t len, uint8_t dma)
 998:Drivers/STM32U5xx_HAL_Driver/Src/stm32u5xx_ll_usb.c **** {
ARM GAS  /tmp/cc0vokHo.s 			page 19


 999:Drivers/STM32U5xx_HAL_Driver/Src/stm32u5xx_ll_usb.c ****   uint32_t USBx_BASE = (uint32_t)USBx;
1000:Drivers/STM32U5xx_HAL_Driver/Src/stm32u5xx_ll_usb.c ****   uint8_t *pSrc = src;
1001:Drivers/STM32U5xx_HAL_Driver/Src/stm32u5xx_ll_usb.c ****   uint32_t count32b;
1002:Drivers/STM32U5xx_HAL_Driver/Src/stm32u5xx_ll_usb.c ****   uint32_t i;
1003:Drivers/STM32U5xx_HAL_Driver/Src/stm32u5xx_ll_usb.c **** 
1004:Drivers/STM32U5xx_HAL_Driver/Src/stm32u5xx_ll_usb.c ****   if (dma == 0U)
1005:Drivers/STM32U5xx_HAL_Driver/Src/stm32u5xx_ll_usb.c ****   {
1006:Drivers/STM32U5xx_HAL_Driver/Src/stm32u5xx_ll_usb.c ****     count32b = ((uint32_t)len + 3U) / 4U;
1007:Drivers/STM32U5xx_HAL_Driver/Src/stm32u5xx_ll_usb.c ****     for (i = 0U; i < count32b; i++)
1008:Drivers/STM32U5xx_HAL_Driver/Src/stm32u5xx_ll_usb.c ****     {
1009:Drivers/STM32U5xx_HAL_Driver/Src/stm32u5xx_ll_usb.c ****       USBx_DFIFO((uint32_t)ch_ep_num) = __UNALIGNED_UINT32_READ(pSrc);
1010:Drivers/STM32U5xx_HAL_Driver/Src/stm32u5xx_ll_usb.c ****       pSrc++;
1011:Drivers/STM32U5xx_HAL_Driver/Src/stm32u5xx_ll_usb.c ****       pSrc++;
1012:Drivers/STM32U5xx_HAL_Driver/Src/stm32u5xx_ll_usb.c ****       pSrc++;
1013:Drivers/STM32U5xx_HAL_Driver/Src/stm32u5xx_ll_usb.c ****       pSrc++;
1014:Drivers/STM32U5xx_HAL_Driver/Src/stm32u5xx_ll_usb.c ****     }
1015:Drivers/STM32U5xx_HAL_Driver/Src/stm32u5xx_ll_usb.c ****   }
1016:Drivers/STM32U5xx_HAL_Driver/Src/stm32u5xx_ll_usb.c **** 
1017:Drivers/STM32U5xx_HAL_Driver/Src/stm32u5xx_ll_usb.c ****   return HAL_OK;
1018:Drivers/STM32U5xx_HAL_Driver/Src/stm32u5xx_ll_usb.c **** }
1019:Drivers/STM32U5xx_HAL_Driver/Src/stm32u5xx_ll_usb.c **** 
1020:Drivers/STM32U5xx_HAL_Driver/Src/stm32u5xx_ll_usb.c **** /**
1021:Drivers/STM32U5xx_HAL_Driver/Src/stm32u5xx_ll_usb.c ****   * @brief  USB_ReadPacket : read a packet from the RX FIFO
1022:Drivers/STM32U5xx_HAL_Driver/Src/stm32u5xx_ll_usb.c ****   * @param  USBx  Selected device
1023:Drivers/STM32U5xx_HAL_Driver/Src/stm32u5xx_ll_usb.c ****   * @param  dest  source pointer
1024:Drivers/STM32U5xx_HAL_Driver/Src/stm32u5xx_ll_usb.c ****   * @param  len  Number of bytes to read
1025:Drivers/STM32U5xx_HAL_Driver/Src/stm32u5xx_ll_usb.c ****   * @retval pointer to destination buffer
1026:Drivers/STM32U5xx_HAL_Driver/Src/stm32u5xx_ll_usb.c ****   */
1027:Drivers/STM32U5xx_HAL_Driver/Src/stm32u5xx_ll_usb.c **** void *USB_ReadPacket(USB_OTG_GlobalTypeDef *USBx, uint8_t *dest, uint16_t len)
1028:Drivers/STM32U5xx_HAL_Driver/Src/stm32u5xx_ll_usb.c **** {
1029:Drivers/STM32U5xx_HAL_Driver/Src/stm32u5xx_ll_usb.c ****   uint32_t USBx_BASE = (uint32_t)USBx;
1030:Drivers/STM32U5xx_HAL_Driver/Src/stm32u5xx_ll_usb.c ****   uint8_t *pDest = dest;
1031:Drivers/STM32U5xx_HAL_Driver/Src/stm32u5xx_ll_usb.c ****   uint32_t pData;
1032:Drivers/STM32U5xx_HAL_Driver/Src/stm32u5xx_ll_usb.c ****   uint32_t i;
1033:Drivers/STM32U5xx_HAL_Driver/Src/stm32u5xx_ll_usb.c ****   uint32_t count32b = (uint32_t)len >> 2U;
1034:Drivers/STM32U5xx_HAL_Driver/Src/stm32u5xx_ll_usb.c ****   uint16_t remaining_bytes = len % 4U;
1035:Drivers/STM32U5xx_HAL_Driver/Src/stm32u5xx_ll_usb.c **** 
1036:Drivers/STM32U5xx_HAL_Driver/Src/stm32u5xx_ll_usb.c ****   for (i = 0U; i < count32b; i++)
1037:Drivers/STM32U5xx_HAL_Driver/Src/stm32u5xx_ll_usb.c ****   {
1038:Drivers/STM32U5xx_HAL_Driver/Src/stm32u5xx_ll_usb.c ****     __UNALIGNED_UINT32_WRITE(pDest, USBx_DFIFO(0U));
1039:Drivers/STM32U5xx_HAL_Driver/Src/stm32u5xx_ll_usb.c ****     pDest++;
1040:Drivers/STM32U5xx_HAL_Driver/Src/stm32u5xx_ll_usb.c ****     pDest++;
1041:Drivers/STM32U5xx_HAL_Driver/Src/stm32u5xx_ll_usb.c ****     pDest++;
1042:Drivers/STM32U5xx_HAL_Driver/Src/stm32u5xx_ll_usb.c ****     pDest++;
1043:Drivers/STM32U5xx_HAL_Driver/Src/stm32u5xx_ll_usb.c ****   }
1044:Drivers/STM32U5xx_HAL_Driver/Src/stm32u5xx_ll_usb.c **** 
1045:Drivers/STM32U5xx_HAL_Driver/Src/stm32u5xx_ll_usb.c ****   /* When Number of data is not word aligned, read the remaining byte */
1046:Drivers/STM32U5xx_HAL_Driver/Src/stm32u5xx_ll_usb.c ****   if (remaining_bytes != 0U)
1047:Drivers/STM32U5xx_HAL_Driver/Src/stm32u5xx_ll_usb.c ****   {
1048:Drivers/STM32U5xx_HAL_Driver/Src/stm32u5xx_ll_usb.c ****     i = 0U;
1049:Drivers/STM32U5xx_HAL_Driver/Src/stm32u5xx_ll_usb.c ****     __UNALIGNED_UINT32_WRITE(&pData, USBx_DFIFO(0U));
1050:Drivers/STM32U5xx_HAL_Driver/Src/stm32u5xx_ll_usb.c **** 
1051:Drivers/STM32U5xx_HAL_Driver/Src/stm32u5xx_ll_usb.c ****     do
1052:Drivers/STM32U5xx_HAL_Driver/Src/stm32u5xx_ll_usb.c ****     {
1053:Drivers/STM32U5xx_HAL_Driver/Src/stm32u5xx_ll_usb.c ****       *(uint8_t *)pDest = (uint8_t)(pData >> (8U * (uint8_t)(i)));
1054:Drivers/STM32U5xx_HAL_Driver/Src/stm32u5xx_ll_usb.c ****       i++;
1055:Drivers/STM32U5xx_HAL_Driver/Src/stm32u5xx_ll_usb.c ****       pDest++;
ARM GAS  /tmp/cc0vokHo.s 			page 20


1056:Drivers/STM32U5xx_HAL_Driver/Src/stm32u5xx_ll_usb.c ****       remaining_bytes--;
1057:Drivers/STM32U5xx_HAL_Driver/Src/stm32u5xx_ll_usb.c ****     } while (remaining_bytes != 0U);
1058:Drivers/STM32U5xx_HAL_Driver/Src/stm32u5xx_ll_usb.c ****   }
1059:Drivers/STM32U5xx_HAL_Driver/Src/stm32u5xx_ll_usb.c **** 
1060:Drivers/STM32U5xx_HAL_Driver/Src/stm32u5xx_ll_usb.c ****   return ((void *)pDest);
1061:Drivers/STM32U5xx_HAL_Driver/Src/stm32u5xx_ll_usb.c **** }
1062:Drivers/STM32U5xx_HAL_Driver/Src/stm32u5xx_ll_usb.c **** 
1063:Drivers/STM32U5xx_HAL_Driver/Src/stm32u5xx_ll_usb.c **** /**
1064:Drivers/STM32U5xx_HAL_Driver/Src/stm32u5xx_ll_usb.c ****   * @brief  USB_EPSetStall : set a stall condition over an EP
1065:Drivers/STM32U5xx_HAL_Driver/Src/stm32u5xx_ll_usb.c ****   * @param  USBx  Selected device
1066:Drivers/STM32U5xx_HAL_Driver/Src/stm32u5xx_ll_usb.c ****   * @param  ep pointer to endpoint structure
1067:Drivers/STM32U5xx_HAL_Driver/Src/stm32u5xx_ll_usb.c ****   * @retval HAL status
1068:Drivers/STM32U5xx_HAL_Driver/Src/stm32u5xx_ll_usb.c ****   */
1069:Drivers/STM32U5xx_HAL_Driver/Src/stm32u5xx_ll_usb.c **** HAL_StatusTypeDef USB_EPSetStall(USB_OTG_GlobalTypeDef *USBx, USB_OTG_EPTypeDef *ep)
1070:Drivers/STM32U5xx_HAL_Driver/Src/stm32u5xx_ll_usb.c **** {
1071:Drivers/STM32U5xx_HAL_Driver/Src/stm32u5xx_ll_usb.c ****   uint32_t USBx_BASE = (uint32_t)USBx;
1072:Drivers/STM32U5xx_HAL_Driver/Src/stm32u5xx_ll_usb.c ****   uint32_t epnum = (uint32_t)ep->num;
1073:Drivers/STM32U5xx_HAL_Driver/Src/stm32u5xx_ll_usb.c **** 
1074:Drivers/STM32U5xx_HAL_Driver/Src/stm32u5xx_ll_usb.c ****   if (ep->is_in == 1U)
1075:Drivers/STM32U5xx_HAL_Driver/Src/stm32u5xx_ll_usb.c ****   {
1076:Drivers/STM32U5xx_HAL_Driver/Src/stm32u5xx_ll_usb.c ****     if (((USBx_INEP(epnum)->DIEPCTL & USB_OTG_DIEPCTL_EPENA) == 0U) && (epnum != 0U))
1077:Drivers/STM32U5xx_HAL_Driver/Src/stm32u5xx_ll_usb.c ****     {
1078:Drivers/STM32U5xx_HAL_Driver/Src/stm32u5xx_ll_usb.c ****       USBx_INEP(epnum)->DIEPCTL &= ~(USB_OTG_DIEPCTL_EPDIS);
1079:Drivers/STM32U5xx_HAL_Driver/Src/stm32u5xx_ll_usb.c ****     }
1080:Drivers/STM32U5xx_HAL_Driver/Src/stm32u5xx_ll_usb.c ****     USBx_INEP(epnum)->DIEPCTL |= USB_OTG_DIEPCTL_STALL;
1081:Drivers/STM32U5xx_HAL_Driver/Src/stm32u5xx_ll_usb.c ****   }
1082:Drivers/STM32U5xx_HAL_Driver/Src/stm32u5xx_ll_usb.c ****   else
1083:Drivers/STM32U5xx_HAL_Driver/Src/stm32u5xx_ll_usb.c ****   {
1084:Drivers/STM32U5xx_HAL_Driver/Src/stm32u5xx_ll_usb.c ****     if (((USBx_OUTEP(epnum)->DOEPCTL & USB_OTG_DOEPCTL_EPENA) == 0U) && (epnum != 0U))
1085:Drivers/STM32U5xx_HAL_Driver/Src/stm32u5xx_ll_usb.c ****     {
1086:Drivers/STM32U5xx_HAL_Driver/Src/stm32u5xx_ll_usb.c ****       USBx_OUTEP(epnum)->DOEPCTL &= ~(USB_OTG_DOEPCTL_EPDIS);
1087:Drivers/STM32U5xx_HAL_Driver/Src/stm32u5xx_ll_usb.c ****     }
1088:Drivers/STM32U5xx_HAL_Driver/Src/stm32u5xx_ll_usb.c ****     USBx_OUTEP(epnum)->DOEPCTL |= USB_OTG_DOEPCTL_STALL;
1089:Drivers/STM32U5xx_HAL_Driver/Src/stm32u5xx_ll_usb.c ****   }
1090:Drivers/STM32U5xx_HAL_Driver/Src/stm32u5xx_ll_usb.c **** 
1091:Drivers/STM32U5xx_HAL_Driver/Src/stm32u5xx_ll_usb.c ****   return HAL_OK;
1092:Drivers/STM32U5xx_HAL_Driver/Src/stm32u5xx_ll_usb.c **** }
1093:Drivers/STM32U5xx_HAL_Driver/Src/stm32u5xx_ll_usb.c **** 
1094:Drivers/STM32U5xx_HAL_Driver/Src/stm32u5xx_ll_usb.c **** /**
1095:Drivers/STM32U5xx_HAL_Driver/Src/stm32u5xx_ll_usb.c ****   * @brief  USB_EPClearStall : Clear a stall condition over an EP
1096:Drivers/STM32U5xx_HAL_Driver/Src/stm32u5xx_ll_usb.c ****   * @param  USBx  Selected device
1097:Drivers/STM32U5xx_HAL_Driver/Src/stm32u5xx_ll_usb.c ****   * @param  ep pointer to endpoint structure
1098:Drivers/STM32U5xx_HAL_Driver/Src/stm32u5xx_ll_usb.c ****   * @retval HAL status
1099:Drivers/STM32U5xx_HAL_Driver/Src/stm32u5xx_ll_usb.c ****   */
1100:Drivers/STM32U5xx_HAL_Driver/Src/stm32u5xx_ll_usb.c **** HAL_StatusTypeDef USB_EPClearStall(USB_OTG_GlobalTypeDef *USBx, USB_OTG_EPTypeDef *ep)
1101:Drivers/STM32U5xx_HAL_Driver/Src/stm32u5xx_ll_usb.c **** {
1102:Drivers/STM32U5xx_HAL_Driver/Src/stm32u5xx_ll_usb.c ****   uint32_t USBx_BASE = (uint32_t)USBx;
1103:Drivers/STM32U5xx_HAL_Driver/Src/stm32u5xx_ll_usb.c ****   uint32_t epnum = (uint32_t)ep->num;
1104:Drivers/STM32U5xx_HAL_Driver/Src/stm32u5xx_ll_usb.c **** 
1105:Drivers/STM32U5xx_HAL_Driver/Src/stm32u5xx_ll_usb.c ****   if (ep->is_in == 1U)
1106:Drivers/STM32U5xx_HAL_Driver/Src/stm32u5xx_ll_usb.c ****   {
1107:Drivers/STM32U5xx_HAL_Driver/Src/stm32u5xx_ll_usb.c ****     USBx_INEP(epnum)->DIEPCTL &= ~USB_OTG_DIEPCTL_STALL;
1108:Drivers/STM32U5xx_HAL_Driver/Src/stm32u5xx_ll_usb.c ****     if ((ep->type == EP_TYPE_INTR) || (ep->type == EP_TYPE_BULK))
1109:Drivers/STM32U5xx_HAL_Driver/Src/stm32u5xx_ll_usb.c ****     {
1110:Drivers/STM32U5xx_HAL_Driver/Src/stm32u5xx_ll_usb.c ****       USBx_INEP(epnum)->DIEPCTL |= USB_OTG_DIEPCTL_SD0PID_SEVNFRM; /* DATA0 */
1111:Drivers/STM32U5xx_HAL_Driver/Src/stm32u5xx_ll_usb.c ****     }
1112:Drivers/STM32U5xx_HAL_Driver/Src/stm32u5xx_ll_usb.c ****   }
ARM GAS  /tmp/cc0vokHo.s 			page 21


1113:Drivers/STM32U5xx_HAL_Driver/Src/stm32u5xx_ll_usb.c ****   else
1114:Drivers/STM32U5xx_HAL_Driver/Src/stm32u5xx_ll_usb.c ****   {
1115:Drivers/STM32U5xx_HAL_Driver/Src/stm32u5xx_ll_usb.c ****     USBx_OUTEP(epnum)->DOEPCTL &= ~USB_OTG_DOEPCTL_STALL;
1116:Drivers/STM32U5xx_HAL_Driver/Src/stm32u5xx_ll_usb.c ****     if ((ep->type == EP_TYPE_INTR) || (ep->type == EP_TYPE_BULK))
1117:Drivers/STM32U5xx_HAL_Driver/Src/stm32u5xx_ll_usb.c ****     {
1118:Drivers/STM32U5xx_HAL_Driver/Src/stm32u5xx_ll_usb.c ****       USBx_OUTEP(epnum)->DOEPCTL |= USB_OTG_DOEPCTL_SD0PID_SEVNFRM; /* DATA0 */
1119:Drivers/STM32U5xx_HAL_Driver/Src/stm32u5xx_ll_usb.c ****     }
1120:Drivers/STM32U5xx_HAL_Driver/Src/stm32u5xx_ll_usb.c ****   }
1121:Drivers/STM32U5xx_HAL_Driver/Src/stm32u5xx_ll_usb.c ****   return HAL_OK;
1122:Drivers/STM32U5xx_HAL_Driver/Src/stm32u5xx_ll_usb.c **** }
1123:Drivers/STM32U5xx_HAL_Driver/Src/stm32u5xx_ll_usb.c **** 
1124:Drivers/STM32U5xx_HAL_Driver/Src/stm32u5xx_ll_usb.c **** /**
1125:Drivers/STM32U5xx_HAL_Driver/Src/stm32u5xx_ll_usb.c ****   * @brief  USB_StopDevice : Stop the usb device mode
1126:Drivers/STM32U5xx_HAL_Driver/Src/stm32u5xx_ll_usb.c ****   * @param  USBx  Selected device
1127:Drivers/STM32U5xx_HAL_Driver/Src/stm32u5xx_ll_usb.c ****   * @retval HAL status
1128:Drivers/STM32U5xx_HAL_Driver/Src/stm32u5xx_ll_usb.c ****   */
1129:Drivers/STM32U5xx_HAL_Driver/Src/stm32u5xx_ll_usb.c **** HAL_StatusTypeDef USB_StopDevice(USB_OTG_GlobalTypeDef *USBx)
1130:Drivers/STM32U5xx_HAL_Driver/Src/stm32u5xx_ll_usb.c **** {
1131:Drivers/STM32U5xx_HAL_Driver/Src/stm32u5xx_ll_usb.c ****   HAL_StatusTypeDef ret;
1132:Drivers/STM32U5xx_HAL_Driver/Src/stm32u5xx_ll_usb.c ****   uint32_t USBx_BASE = (uint32_t)USBx;
1133:Drivers/STM32U5xx_HAL_Driver/Src/stm32u5xx_ll_usb.c ****   uint32_t i;
1134:Drivers/STM32U5xx_HAL_Driver/Src/stm32u5xx_ll_usb.c **** 
1135:Drivers/STM32U5xx_HAL_Driver/Src/stm32u5xx_ll_usb.c ****   /* Clear Pending interrupt */
1136:Drivers/STM32U5xx_HAL_Driver/Src/stm32u5xx_ll_usb.c ****   for (i = 0U; i < 15U; i++)
1137:Drivers/STM32U5xx_HAL_Driver/Src/stm32u5xx_ll_usb.c ****   {
1138:Drivers/STM32U5xx_HAL_Driver/Src/stm32u5xx_ll_usb.c ****     USBx_INEP(i)->DIEPINT = 0xFB7FU;
1139:Drivers/STM32U5xx_HAL_Driver/Src/stm32u5xx_ll_usb.c ****     USBx_OUTEP(i)->DOEPINT = 0xFB7FU;
1140:Drivers/STM32U5xx_HAL_Driver/Src/stm32u5xx_ll_usb.c ****   }
1141:Drivers/STM32U5xx_HAL_Driver/Src/stm32u5xx_ll_usb.c **** 
1142:Drivers/STM32U5xx_HAL_Driver/Src/stm32u5xx_ll_usb.c ****   /* Clear interrupt masks */
1143:Drivers/STM32U5xx_HAL_Driver/Src/stm32u5xx_ll_usb.c ****   USBx_DEVICE->DIEPMSK  = 0U;
1144:Drivers/STM32U5xx_HAL_Driver/Src/stm32u5xx_ll_usb.c ****   USBx_DEVICE->DOEPMSK  = 0U;
1145:Drivers/STM32U5xx_HAL_Driver/Src/stm32u5xx_ll_usb.c ****   USBx_DEVICE->DAINTMSK = 0U;
1146:Drivers/STM32U5xx_HAL_Driver/Src/stm32u5xx_ll_usb.c **** 
1147:Drivers/STM32U5xx_HAL_Driver/Src/stm32u5xx_ll_usb.c ****   /* Flush the FIFO */
1148:Drivers/STM32U5xx_HAL_Driver/Src/stm32u5xx_ll_usb.c ****   ret = USB_FlushRxFifo(USBx);
1149:Drivers/STM32U5xx_HAL_Driver/Src/stm32u5xx_ll_usb.c ****   if (ret != HAL_OK)
1150:Drivers/STM32U5xx_HAL_Driver/Src/stm32u5xx_ll_usb.c ****   {
1151:Drivers/STM32U5xx_HAL_Driver/Src/stm32u5xx_ll_usb.c ****     return ret;
1152:Drivers/STM32U5xx_HAL_Driver/Src/stm32u5xx_ll_usb.c ****   }
1153:Drivers/STM32U5xx_HAL_Driver/Src/stm32u5xx_ll_usb.c **** 
1154:Drivers/STM32U5xx_HAL_Driver/Src/stm32u5xx_ll_usb.c ****   ret = USB_FlushTxFifo(USBx,  0x10U);
1155:Drivers/STM32U5xx_HAL_Driver/Src/stm32u5xx_ll_usb.c ****   if (ret != HAL_OK)
1156:Drivers/STM32U5xx_HAL_Driver/Src/stm32u5xx_ll_usb.c ****   {
1157:Drivers/STM32U5xx_HAL_Driver/Src/stm32u5xx_ll_usb.c ****     return ret;
1158:Drivers/STM32U5xx_HAL_Driver/Src/stm32u5xx_ll_usb.c ****   }
1159:Drivers/STM32U5xx_HAL_Driver/Src/stm32u5xx_ll_usb.c **** 
1160:Drivers/STM32U5xx_HAL_Driver/Src/stm32u5xx_ll_usb.c ****   return ret;
1161:Drivers/STM32U5xx_HAL_Driver/Src/stm32u5xx_ll_usb.c **** }
1162:Drivers/STM32U5xx_HAL_Driver/Src/stm32u5xx_ll_usb.c **** 
1163:Drivers/STM32U5xx_HAL_Driver/Src/stm32u5xx_ll_usb.c **** /**
1164:Drivers/STM32U5xx_HAL_Driver/Src/stm32u5xx_ll_usb.c ****   * @brief  USB_SetDevAddress : Stop the usb device mode
1165:Drivers/STM32U5xx_HAL_Driver/Src/stm32u5xx_ll_usb.c ****   * @param  USBx  Selected device
1166:Drivers/STM32U5xx_HAL_Driver/Src/stm32u5xx_ll_usb.c ****   * @param  address  new device address to be assigned
1167:Drivers/STM32U5xx_HAL_Driver/Src/stm32u5xx_ll_usb.c ****   *          This parameter can be a value from 0 to 255
1168:Drivers/STM32U5xx_HAL_Driver/Src/stm32u5xx_ll_usb.c ****   * @retval HAL status
1169:Drivers/STM32U5xx_HAL_Driver/Src/stm32u5xx_ll_usb.c ****   */
ARM GAS  /tmp/cc0vokHo.s 			page 22


1170:Drivers/STM32U5xx_HAL_Driver/Src/stm32u5xx_ll_usb.c **** HAL_StatusTypeDef USB_SetDevAddress(USB_OTG_GlobalTypeDef *USBx, uint8_t address)
1171:Drivers/STM32U5xx_HAL_Driver/Src/stm32u5xx_ll_usb.c **** {
1172:Drivers/STM32U5xx_HAL_Driver/Src/stm32u5xx_ll_usb.c ****   uint32_t USBx_BASE = (uint32_t)USBx;
1173:Drivers/STM32U5xx_HAL_Driver/Src/stm32u5xx_ll_usb.c **** 
1174:Drivers/STM32U5xx_HAL_Driver/Src/stm32u5xx_ll_usb.c ****   USBx_DEVICE->DCFG &= ~(USB_OTG_DCFG_DAD);
1175:Drivers/STM32U5xx_HAL_Driver/Src/stm32u5xx_ll_usb.c ****   USBx_DEVICE->DCFG |= ((uint32_t)address << 4) & USB_OTG_DCFG_DAD;
1176:Drivers/STM32U5xx_HAL_Driver/Src/stm32u5xx_ll_usb.c **** 
1177:Drivers/STM32U5xx_HAL_Driver/Src/stm32u5xx_ll_usb.c ****   return HAL_OK;
1178:Drivers/STM32U5xx_HAL_Driver/Src/stm32u5xx_ll_usb.c **** }
1179:Drivers/STM32U5xx_HAL_Driver/Src/stm32u5xx_ll_usb.c **** 
1180:Drivers/STM32U5xx_HAL_Driver/Src/stm32u5xx_ll_usb.c **** /**
1181:Drivers/STM32U5xx_HAL_Driver/Src/stm32u5xx_ll_usb.c ****   * @brief  USB_DevConnect : Connect the USB device by enabling Rpu
1182:Drivers/STM32U5xx_HAL_Driver/Src/stm32u5xx_ll_usb.c ****   * @param  USBx  Selected device
1183:Drivers/STM32U5xx_HAL_Driver/Src/stm32u5xx_ll_usb.c ****   * @retval HAL status
1184:Drivers/STM32U5xx_HAL_Driver/Src/stm32u5xx_ll_usb.c ****   */
1185:Drivers/STM32U5xx_HAL_Driver/Src/stm32u5xx_ll_usb.c **** HAL_StatusTypeDef USB_DevConnect(USB_OTG_GlobalTypeDef *USBx)
1186:Drivers/STM32U5xx_HAL_Driver/Src/stm32u5xx_ll_usb.c **** {
1187:Drivers/STM32U5xx_HAL_Driver/Src/stm32u5xx_ll_usb.c ****   uint32_t USBx_BASE = (uint32_t)USBx;
1188:Drivers/STM32U5xx_HAL_Driver/Src/stm32u5xx_ll_usb.c **** 
1189:Drivers/STM32U5xx_HAL_Driver/Src/stm32u5xx_ll_usb.c ****   /* In case phy is stopped, ensure to ungate and restore the phy CLK */
1190:Drivers/STM32U5xx_HAL_Driver/Src/stm32u5xx_ll_usb.c ****   USBx_PCGCCTL &= ~(USB_OTG_PCGCCTL_STOPCLK | USB_OTG_PCGCCTL_GATECLK);
1191:Drivers/STM32U5xx_HAL_Driver/Src/stm32u5xx_ll_usb.c **** 
1192:Drivers/STM32U5xx_HAL_Driver/Src/stm32u5xx_ll_usb.c ****   USBx_DEVICE->DCTL &= ~USB_OTG_DCTL_SDIS;
1193:Drivers/STM32U5xx_HAL_Driver/Src/stm32u5xx_ll_usb.c **** 
1194:Drivers/STM32U5xx_HAL_Driver/Src/stm32u5xx_ll_usb.c ****   return HAL_OK;
1195:Drivers/STM32U5xx_HAL_Driver/Src/stm32u5xx_ll_usb.c **** }
1196:Drivers/STM32U5xx_HAL_Driver/Src/stm32u5xx_ll_usb.c **** 
1197:Drivers/STM32U5xx_HAL_Driver/Src/stm32u5xx_ll_usb.c **** /**
1198:Drivers/STM32U5xx_HAL_Driver/Src/stm32u5xx_ll_usb.c ****   * @brief  USB_DevDisconnect : Disconnect the USB device by disabling Rpu
1199:Drivers/STM32U5xx_HAL_Driver/Src/stm32u5xx_ll_usb.c ****   * @param  USBx  Selected device
1200:Drivers/STM32U5xx_HAL_Driver/Src/stm32u5xx_ll_usb.c ****   * @retval HAL status
1201:Drivers/STM32U5xx_HAL_Driver/Src/stm32u5xx_ll_usb.c ****   */
1202:Drivers/STM32U5xx_HAL_Driver/Src/stm32u5xx_ll_usb.c **** HAL_StatusTypeDef USB_DevDisconnect(USB_OTG_GlobalTypeDef *USBx)
1203:Drivers/STM32U5xx_HAL_Driver/Src/stm32u5xx_ll_usb.c **** {
1204:Drivers/STM32U5xx_HAL_Driver/Src/stm32u5xx_ll_usb.c ****   uint32_t USBx_BASE = (uint32_t)USBx;
1205:Drivers/STM32U5xx_HAL_Driver/Src/stm32u5xx_ll_usb.c **** 
1206:Drivers/STM32U5xx_HAL_Driver/Src/stm32u5xx_ll_usb.c ****   /* In case phy is stopped, ensure to ungate and restore the phy CLK */
1207:Drivers/STM32U5xx_HAL_Driver/Src/stm32u5xx_ll_usb.c ****   USBx_PCGCCTL &= ~(USB_OTG_PCGCCTL_STOPCLK | USB_OTG_PCGCCTL_GATECLK);
1208:Drivers/STM32U5xx_HAL_Driver/Src/stm32u5xx_ll_usb.c **** 
1209:Drivers/STM32U5xx_HAL_Driver/Src/stm32u5xx_ll_usb.c ****   USBx_DEVICE->DCTL |= USB_OTG_DCTL_SDIS;
1210:Drivers/STM32U5xx_HAL_Driver/Src/stm32u5xx_ll_usb.c **** 
1211:Drivers/STM32U5xx_HAL_Driver/Src/stm32u5xx_ll_usb.c ****   return HAL_OK;
1212:Drivers/STM32U5xx_HAL_Driver/Src/stm32u5xx_ll_usb.c **** }
1213:Drivers/STM32U5xx_HAL_Driver/Src/stm32u5xx_ll_usb.c **** 
1214:Drivers/STM32U5xx_HAL_Driver/Src/stm32u5xx_ll_usb.c **** /**
1215:Drivers/STM32U5xx_HAL_Driver/Src/stm32u5xx_ll_usb.c ****   * @brief  USB_ReadInterrupts: return the global USB interrupt status
1216:Drivers/STM32U5xx_HAL_Driver/Src/stm32u5xx_ll_usb.c ****   * @param  USBx  Selected device
1217:Drivers/STM32U5xx_HAL_Driver/Src/stm32u5xx_ll_usb.c ****   * @retval USB Global Interrupt status
1218:Drivers/STM32U5xx_HAL_Driver/Src/stm32u5xx_ll_usb.c ****   */
1219:Drivers/STM32U5xx_HAL_Driver/Src/stm32u5xx_ll_usb.c **** uint32_t USB_ReadInterrupts(USB_OTG_GlobalTypeDef const *USBx)
1220:Drivers/STM32U5xx_HAL_Driver/Src/stm32u5xx_ll_usb.c **** {
1221:Drivers/STM32U5xx_HAL_Driver/Src/stm32u5xx_ll_usb.c ****   uint32_t tmpreg;
1222:Drivers/STM32U5xx_HAL_Driver/Src/stm32u5xx_ll_usb.c **** 
1223:Drivers/STM32U5xx_HAL_Driver/Src/stm32u5xx_ll_usb.c ****   tmpreg = USBx->GINTSTS;
1224:Drivers/STM32U5xx_HAL_Driver/Src/stm32u5xx_ll_usb.c ****   tmpreg &= USBx->GINTMSK;
1225:Drivers/STM32U5xx_HAL_Driver/Src/stm32u5xx_ll_usb.c **** 
1226:Drivers/STM32U5xx_HAL_Driver/Src/stm32u5xx_ll_usb.c ****   return tmpreg;
ARM GAS  /tmp/cc0vokHo.s 			page 23


1227:Drivers/STM32U5xx_HAL_Driver/Src/stm32u5xx_ll_usb.c **** }
1228:Drivers/STM32U5xx_HAL_Driver/Src/stm32u5xx_ll_usb.c **** 
1229:Drivers/STM32U5xx_HAL_Driver/Src/stm32u5xx_ll_usb.c **** /**
1230:Drivers/STM32U5xx_HAL_Driver/Src/stm32u5xx_ll_usb.c ****   * @brief  USB_ReadChInterrupts: return USB channel interrupt status
1231:Drivers/STM32U5xx_HAL_Driver/Src/stm32u5xx_ll_usb.c ****   * @param  USBx  Selected device
1232:Drivers/STM32U5xx_HAL_Driver/Src/stm32u5xx_ll_usb.c ****   * @param  chnum Channel number
1233:Drivers/STM32U5xx_HAL_Driver/Src/stm32u5xx_ll_usb.c ****   * @retval USB Channel Interrupt status
1234:Drivers/STM32U5xx_HAL_Driver/Src/stm32u5xx_ll_usb.c ****   */
1235:Drivers/STM32U5xx_HAL_Driver/Src/stm32u5xx_ll_usb.c **** uint32_t USB_ReadChInterrupts(USB_OTG_GlobalTypeDef *USBx, uint8_t chnum)
1236:Drivers/STM32U5xx_HAL_Driver/Src/stm32u5xx_ll_usb.c **** {
1237:Drivers/STM32U5xx_HAL_Driver/Src/stm32u5xx_ll_usb.c ****   uint32_t USBx_BASE = (uint32_t)USBx;
1238:Drivers/STM32U5xx_HAL_Driver/Src/stm32u5xx_ll_usb.c ****   uint32_t tmpreg;
1239:Drivers/STM32U5xx_HAL_Driver/Src/stm32u5xx_ll_usb.c **** 
1240:Drivers/STM32U5xx_HAL_Driver/Src/stm32u5xx_ll_usb.c ****   tmpreg = USBx_HC(chnum)->HCINT;
1241:Drivers/STM32U5xx_HAL_Driver/Src/stm32u5xx_ll_usb.c ****   tmpreg &= USBx_HC(chnum)->HCINTMSK;
1242:Drivers/STM32U5xx_HAL_Driver/Src/stm32u5xx_ll_usb.c **** 
1243:Drivers/STM32U5xx_HAL_Driver/Src/stm32u5xx_ll_usb.c ****   return tmpreg;
1244:Drivers/STM32U5xx_HAL_Driver/Src/stm32u5xx_ll_usb.c **** }
1245:Drivers/STM32U5xx_HAL_Driver/Src/stm32u5xx_ll_usb.c **** 
1246:Drivers/STM32U5xx_HAL_Driver/Src/stm32u5xx_ll_usb.c **** /**
1247:Drivers/STM32U5xx_HAL_Driver/Src/stm32u5xx_ll_usb.c ****   * @brief  USB_ReadDevAllOutEpInterrupt: return the USB device OUT endpoints interrupt status
1248:Drivers/STM32U5xx_HAL_Driver/Src/stm32u5xx_ll_usb.c ****   * @param  USBx  Selected device
1249:Drivers/STM32U5xx_HAL_Driver/Src/stm32u5xx_ll_usb.c ****   * @retval USB Device OUT EP interrupt status
1250:Drivers/STM32U5xx_HAL_Driver/Src/stm32u5xx_ll_usb.c ****   */
1251:Drivers/STM32U5xx_HAL_Driver/Src/stm32u5xx_ll_usb.c **** uint32_t USB_ReadDevAllOutEpInterrupt(USB_OTG_GlobalTypeDef *USBx)
1252:Drivers/STM32U5xx_HAL_Driver/Src/stm32u5xx_ll_usb.c **** {
1253:Drivers/STM32U5xx_HAL_Driver/Src/stm32u5xx_ll_usb.c ****   uint32_t USBx_BASE = (uint32_t)USBx;
1254:Drivers/STM32U5xx_HAL_Driver/Src/stm32u5xx_ll_usb.c ****   uint32_t tmpreg;
1255:Drivers/STM32U5xx_HAL_Driver/Src/stm32u5xx_ll_usb.c **** 
1256:Drivers/STM32U5xx_HAL_Driver/Src/stm32u5xx_ll_usb.c ****   tmpreg  = USBx_DEVICE->DAINT;
1257:Drivers/STM32U5xx_HAL_Driver/Src/stm32u5xx_ll_usb.c ****   tmpreg &= USBx_DEVICE->DAINTMSK;
1258:Drivers/STM32U5xx_HAL_Driver/Src/stm32u5xx_ll_usb.c **** 
1259:Drivers/STM32U5xx_HAL_Driver/Src/stm32u5xx_ll_usb.c ****   return ((tmpreg & 0xffff0000U) >> 16);
1260:Drivers/STM32U5xx_HAL_Driver/Src/stm32u5xx_ll_usb.c **** }
1261:Drivers/STM32U5xx_HAL_Driver/Src/stm32u5xx_ll_usb.c **** 
1262:Drivers/STM32U5xx_HAL_Driver/Src/stm32u5xx_ll_usb.c **** /**
1263:Drivers/STM32U5xx_HAL_Driver/Src/stm32u5xx_ll_usb.c ****   * @brief  USB_ReadDevAllInEpInterrupt: return the USB device IN endpoints interrupt status
1264:Drivers/STM32U5xx_HAL_Driver/Src/stm32u5xx_ll_usb.c ****   * @param  USBx  Selected device
1265:Drivers/STM32U5xx_HAL_Driver/Src/stm32u5xx_ll_usb.c ****   * @retval USB Device IN EP interrupt status
1266:Drivers/STM32U5xx_HAL_Driver/Src/stm32u5xx_ll_usb.c ****   */
1267:Drivers/STM32U5xx_HAL_Driver/Src/stm32u5xx_ll_usb.c **** uint32_t USB_ReadDevAllInEpInterrupt(USB_OTG_GlobalTypeDef *USBx)
1268:Drivers/STM32U5xx_HAL_Driver/Src/stm32u5xx_ll_usb.c **** {
1269:Drivers/STM32U5xx_HAL_Driver/Src/stm32u5xx_ll_usb.c ****   uint32_t USBx_BASE = (uint32_t)USBx;
1270:Drivers/STM32U5xx_HAL_Driver/Src/stm32u5xx_ll_usb.c ****   uint32_t tmpreg;
1271:Drivers/STM32U5xx_HAL_Driver/Src/stm32u5xx_ll_usb.c **** 
1272:Drivers/STM32U5xx_HAL_Driver/Src/stm32u5xx_ll_usb.c ****   tmpreg  = USBx_DEVICE->DAINT;
1273:Drivers/STM32U5xx_HAL_Driver/Src/stm32u5xx_ll_usb.c ****   tmpreg &= USBx_DEVICE->DAINTMSK;
1274:Drivers/STM32U5xx_HAL_Driver/Src/stm32u5xx_ll_usb.c **** 
1275:Drivers/STM32U5xx_HAL_Driver/Src/stm32u5xx_ll_usb.c ****   return ((tmpreg & 0xFFFFU));
1276:Drivers/STM32U5xx_HAL_Driver/Src/stm32u5xx_ll_usb.c **** }
1277:Drivers/STM32U5xx_HAL_Driver/Src/stm32u5xx_ll_usb.c **** 
1278:Drivers/STM32U5xx_HAL_Driver/Src/stm32u5xx_ll_usb.c **** /**
1279:Drivers/STM32U5xx_HAL_Driver/Src/stm32u5xx_ll_usb.c ****   * @brief  Returns Device OUT EP Interrupt register
1280:Drivers/STM32U5xx_HAL_Driver/Src/stm32u5xx_ll_usb.c ****   * @param  USBx  Selected device
1281:Drivers/STM32U5xx_HAL_Driver/Src/stm32u5xx_ll_usb.c ****   * @param  epnum  endpoint number
1282:Drivers/STM32U5xx_HAL_Driver/Src/stm32u5xx_ll_usb.c ****   *          This parameter can be a value from 0 to 15
1283:Drivers/STM32U5xx_HAL_Driver/Src/stm32u5xx_ll_usb.c ****   * @retval Device OUT EP Interrupt register
ARM GAS  /tmp/cc0vokHo.s 			page 24


1284:Drivers/STM32U5xx_HAL_Driver/Src/stm32u5xx_ll_usb.c ****   */
1285:Drivers/STM32U5xx_HAL_Driver/Src/stm32u5xx_ll_usb.c **** uint32_t USB_ReadDevOutEPInterrupt(USB_OTG_GlobalTypeDef *USBx, uint8_t epnum)
1286:Drivers/STM32U5xx_HAL_Driver/Src/stm32u5xx_ll_usb.c **** {
1287:Drivers/STM32U5xx_HAL_Driver/Src/stm32u5xx_ll_usb.c ****   uint32_t USBx_BASE = (uint32_t)USBx;
1288:Drivers/STM32U5xx_HAL_Driver/Src/stm32u5xx_ll_usb.c ****   uint32_t tmpreg;
1289:Drivers/STM32U5xx_HAL_Driver/Src/stm32u5xx_ll_usb.c **** 
1290:Drivers/STM32U5xx_HAL_Driver/Src/stm32u5xx_ll_usb.c ****   tmpreg  = USBx_OUTEP((uint32_t)epnum)->DOEPINT;
1291:Drivers/STM32U5xx_HAL_Driver/Src/stm32u5xx_ll_usb.c ****   tmpreg &= USBx_DEVICE->DOEPMSK;
1292:Drivers/STM32U5xx_HAL_Driver/Src/stm32u5xx_ll_usb.c **** 
1293:Drivers/STM32U5xx_HAL_Driver/Src/stm32u5xx_ll_usb.c ****   return tmpreg;
1294:Drivers/STM32U5xx_HAL_Driver/Src/stm32u5xx_ll_usb.c **** }
1295:Drivers/STM32U5xx_HAL_Driver/Src/stm32u5xx_ll_usb.c **** 
1296:Drivers/STM32U5xx_HAL_Driver/Src/stm32u5xx_ll_usb.c **** /**
1297:Drivers/STM32U5xx_HAL_Driver/Src/stm32u5xx_ll_usb.c ****   * @brief  Returns Device IN EP Interrupt register
1298:Drivers/STM32U5xx_HAL_Driver/Src/stm32u5xx_ll_usb.c ****   * @param  USBx  Selected device
1299:Drivers/STM32U5xx_HAL_Driver/Src/stm32u5xx_ll_usb.c ****   * @param  epnum  endpoint number
1300:Drivers/STM32U5xx_HAL_Driver/Src/stm32u5xx_ll_usb.c ****   *          This parameter can be a value from 0 to 15
1301:Drivers/STM32U5xx_HAL_Driver/Src/stm32u5xx_ll_usb.c ****   * @retval Device IN EP Interrupt register
1302:Drivers/STM32U5xx_HAL_Driver/Src/stm32u5xx_ll_usb.c ****   */
1303:Drivers/STM32U5xx_HAL_Driver/Src/stm32u5xx_ll_usb.c **** uint32_t USB_ReadDevInEPInterrupt(USB_OTG_GlobalTypeDef *USBx, uint8_t epnum)
1304:Drivers/STM32U5xx_HAL_Driver/Src/stm32u5xx_ll_usb.c **** {
1305:Drivers/STM32U5xx_HAL_Driver/Src/stm32u5xx_ll_usb.c ****   uint32_t USBx_BASE = (uint32_t)USBx;
1306:Drivers/STM32U5xx_HAL_Driver/Src/stm32u5xx_ll_usb.c ****   uint32_t tmpreg;
1307:Drivers/STM32U5xx_HAL_Driver/Src/stm32u5xx_ll_usb.c ****   uint32_t msk;
1308:Drivers/STM32U5xx_HAL_Driver/Src/stm32u5xx_ll_usb.c ****   uint32_t emp;
1309:Drivers/STM32U5xx_HAL_Driver/Src/stm32u5xx_ll_usb.c **** 
1310:Drivers/STM32U5xx_HAL_Driver/Src/stm32u5xx_ll_usb.c ****   msk = USBx_DEVICE->DIEPMSK;
1311:Drivers/STM32U5xx_HAL_Driver/Src/stm32u5xx_ll_usb.c ****   emp = USBx_DEVICE->DIEPEMPMSK;
1312:Drivers/STM32U5xx_HAL_Driver/Src/stm32u5xx_ll_usb.c ****   msk |= ((emp >> (epnum & EP_ADDR_MSK)) & 0x1U) << 7;
1313:Drivers/STM32U5xx_HAL_Driver/Src/stm32u5xx_ll_usb.c ****   tmpreg = USBx_INEP((uint32_t)epnum)->DIEPINT & msk;
1314:Drivers/STM32U5xx_HAL_Driver/Src/stm32u5xx_ll_usb.c **** 
1315:Drivers/STM32U5xx_HAL_Driver/Src/stm32u5xx_ll_usb.c ****   return tmpreg;
1316:Drivers/STM32U5xx_HAL_Driver/Src/stm32u5xx_ll_usb.c **** }
1317:Drivers/STM32U5xx_HAL_Driver/Src/stm32u5xx_ll_usb.c **** 
1318:Drivers/STM32U5xx_HAL_Driver/Src/stm32u5xx_ll_usb.c **** /**
1319:Drivers/STM32U5xx_HAL_Driver/Src/stm32u5xx_ll_usb.c ****   * @brief  USB_ClearInterrupts: clear a USB interrupt
1320:Drivers/STM32U5xx_HAL_Driver/Src/stm32u5xx_ll_usb.c ****   * @param  USBx  Selected device
1321:Drivers/STM32U5xx_HAL_Driver/Src/stm32u5xx_ll_usb.c ****   * @param  interrupt  flag
1322:Drivers/STM32U5xx_HAL_Driver/Src/stm32u5xx_ll_usb.c ****   * @retval None
1323:Drivers/STM32U5xx_HAL_Driver/Src/stm32u5xx_ll_usb.c ****   */
1324:Drivers/STM32U5xx_HAL_Driver/Src/stm32u5xx_ll_usb.c **** void  USB_ClearInterrupts(USB_OTG_GlobalTypeDef *USBx, uint32_t interrupt)
1325:Drivers/STM32U5xx_HAL_Driver/Src/stm32u5xx_ll_usb.c **** {
1326:Drivers/STM32U5xx_HAL_Driver/Src/stm32u5xx_ll_usb.c ****   USBx->GINTSTS &= interrupt;
1327:Drivers/STM32U5xx_HAL_Driver/Src/stm32u5xx_ll_usb.c **** }
1328:Drivers/STM32U5xx_HAL_Driver/Src/stm32u5xx_ll_usb.c **** 
1329:Drivers/STM32U5xx_HAL_Driver/Src/stm32u5xx_ll_usb.c **** /**
1330:Drivers/STM32U5xx_HAL_Driver/Src/stm32u5xx_ll_usb.c ****   * @brief  Returns USB core mode
1331:Drivers/STM32U5xx_HAL_Driver/Src/stm32u5xx_ll_usb.c ****   * @param  USBx  Selected device
1332:Drivers/STM32U5xx_HAL_Driver/Src/stm32u5xx_ll_usb.c ****   * @retval return core mode : Host or Device
1333:Drivers/STM32U5xx_HAL_Driver/Src/stm32u5xx_ll_usb.c ****   *          This parameter can be one of these values:
1334:Drivers/STM32U5xx_HAL_Driver/Src/stm32u5xx_ll_usb.c ****   *           0 : Host
1335:Drivers/STM32U5xx_HAL_Driver/Src/stm32u5xx_ll_usb.c ****   *           1 : Device
1336:Drivers/STM32U5xx_HAL_Driver/Src/stm32u5xx_ll_usb.c ****   */
1337:Drivers/STM32U5xx_HAL_Driver/Src/stm32u5xx_ll_usb.c **** uint32_t USB_GetMode(USB_OTG_GlobalTypeDef *USBx)
1338:Drivers/STM32U5xx_HAL_Driver/Src/stm32u5xx_ll_usb.c **** {
1339:Drivers/STM32U5xx_HAL_Driver/Src/stm32u5xx_ll_usb.c ****   return ((USBx->GINTSTS) & 0x1U);
1340:Drivers/STM32U5xx_HAL_Driver/Src/stm32u5xx_ll_usb.c **** }
ARM GAS  /tmp/cc0vokHo.s 			page 25


1341:Drivers/STM32U5xx_HAL_Driver/Src/stm32u5xx_ll_usb.c **** 
1342:Drivers/STM32U5xx_HAL_Driver/Src/stm32u5xx_ll_usb.c **** /**
1343:Drivers/STM32U5xx_HAL_Driver/Src/stm32u5xx_ll_usb.c ****   * @brief  Activate EP0 for Setup transactions
1344:Drivers/STM32U5xx_HAL_Driver/Src/stm32u5xx_ll_usb.c ****   * @param  USBx  Selected device
1345:Drivers/STM32U5xx_HAL_Driver/Src/stm32u5xx_ll_usb.c ****   * @retval HAL status
1346:Drivers/STM32U5xx_HAL_Driver/Src/stm32u5xx_ll_usb.c ****   */
1347:Drivers/STM32U5xx_HAL_Driver/Src/stm32u5xx_ll_usb.c **** HAL_StatusTypeDef USB_ActivateSetup(USB_OTG_GlobalTypeDef *USBx)
1348:Drivers/STM32U5xx_HAL_Driver/Src/stm32u5xx_ll_usb.c **** {
1349:Drivers/STM32U5xx_HAL_Driver/Src/stm32u5xx_ll_usb.c ****   uint32_t USBx_BASE = (uint32_t)USBx;
1350:Drivers/STM32U5xx_HAL_Driver/Src/stm32u5xx_ll_usb.c **** 
1351:Drivers/STM32U5xx_HAL_Driver/Src/stm32u5xx_ll_usb.c ****   /* Set the MPS of the IN EP0 to 64 bytes */
1352:Drivers/STM32U5xx_HAL_Driver/Src/stm32u5xx_ll_usb.c ****   USBx_INEP(0U)->DIEPCTL &= ~USB_OTG_DIEPCTL_MPSIZ;
1353:Drivers/STM32U5xx_HAL_Driver/Src/stm32u5xx_ll_usb.c **** 
1354:Drivers/STM32U5xx_HAL_Driver/Src/stm32u5xx_ll_usb.c ****   USBx_DEVICE->DCTL |= USB_OTG_DCTL_CGINAK;
1355:Drivers/STM32U5xx_HAL_Driver/Src/stm32u5xx_ll_usb.c **** 
1356:Drivers/STM32U5xx_HAL_Driver/Src/stm32u5xx_ll_usb.c ****   return HAL_OK;
1357:Drivers/STM32U5xx_HAL_Driver/Src/stm32u5xx_ll_usb.c **** }
1358:Drivers/STM32U5xx_HAL_Driver/Src/stm32u5xx_ll_usb.c **** 
1359:Drivers/STM32U5xx_HAL_Driver/Src/stm32u5xx_ll_usb.c **** /**
1360:Drivers/STM32U5xx_HAL_Driver/Src/stm32u5xx_ll_usb.c ****   * @brief  Prepare the EP0 to start the first control setup
1361:Drivers/STM32U5xx_HAL_Driver/Src/stm32u5xx_ll_usb.c ****   * @param  USBx  Selected device
1362:Drivers/STM32U5xx_HAL_Driver/Src/stm32u5xx_ll_usb.c ****   * @param  dma USB dma enabled or disabled
1363:Drivers/STM32U5xx_HAL_Driver/Src/stm32u5xx_ll_usb.c ****   *          This parameter can be one of these values:
1364:Drivers/STM32U5xx_HAL_Driver/Src/stm32u5xx_ll_usb.c ****   *           0 : DMA feature not used
1365:Drivers/STM32U5xx_HAL_Driver/Src/stm32u5xx_ll_usb.c ****   *           1 : DMA feature used
1366:Drivers/STM32U5xx_HAL_Driver/Src/stm32u5xx_ll_usb.c ****   * @param  psetup  pointer to setup packet
1367:Drivers/STM32U5xx_HAL_Driver/Src/stm32u5xx_ll_usb.c ****   * @retval HAL status
1368:Drivers/STM32U5xx_HAL_Driver/Src/stm32u5xx_ll_usb.c ****   */
1369:Drivers/STM32U5xx_HAL_Driver/Src/stm32u5xx_ll_usb.c **** HAL_StatusTypeDef USB_EP0_OutStart(USB_OTG_GlobalTypeDef *USBx, uint8_t dma, uint8_t *psetup)
1370:Drivers/STM32U5xx_HAL_Driver/Src/stm32u5xx_ll_usb.c **** {
1371:Drivers/STM32U5xx_HAL_Driver/Src/stm32u5xx_ll_usb.c ****   uint32_t USBx_BASE = (uint32_t)USBx;
1372:Drivers/STM32U5xx_HAL_Driver/Src/stm32u5xx_ll_usb.c ****   uint32_t gSNPSiD = *(__IO uint32_t *)(&USBx->CID + 0x1U);
1373:Drivers/STM32U5xx_HAL_Driver/Src/stm32u5xx_ll_usb.c **** 
1374:Drivers/STM32U5xx_HAL_Driver/Src/stm32u5xx_ll_usb.c ****   if (gSNPSiD > USB_OTG_CORE_ID_300A)
1375:Drivers/STM32U5xx_HAL_Driver/Src/stm32u5xx_ll_usb.c ****   {
1376:Drivers/STM32U5xx_HAL_Driver/Src/stm32u5xx_ll_usb.c ****     if ((USBx_OUTEP(0U)->DOEPCTL & USB_OTG_DOEPCTL_EPENA) == USB_OTG_DOEPCTL_EPENA)
1377:Drivers/STM32U5xx_HAL_Driver/Src/stm32u5xx_ll_usb.c ****     {
1378:Drivers/STM32U5xx_HAL_Driver/Src/stm32u5xx_ll_usb.c ****       return HAL_OK;
1379:Drivers/STM32U5xx_HAL_Driver/Src/stm32u5xx_ll_usb.c ****     }
1380:Drivers/STM32U5xx_HAL_Driver/Src/stm32u5xx_ll_usb.c ****   }
1381:Drivers/STM32U5xx_HAL_Driver/Src/stm32u5xx_ll_usb.c **** 
1382:Drivers/STM32U5xx_HAL_Driver/Src/stm32u5xx_ll_usb.c ****   USBx_OUTEP(0U)->DOEPTSIZ = 0U;
1383:Drivers/STM32U5xx_HAL_Driver/Src/stm32u5xx_ll_usb.c ****   USBx_OUTEP(0U)->DOEPTSIZ |= (USB_OTG_DOEPTSIZ_PKTCNT & (1U << 19));
1384:Drivers/STM32U5xx_HAL_Driver/Src/stm32u5xx_ll_usb.c ****   USBx_OUTEP(0U)->DOEPTSIZ |= (3U * 8U);
1385:Drivers/STM32U5xx_HAL_Driver/Src/stm32u5xx_ll_usb.c ****   USBx_OUTEP(0U)->DOEPTSIZ |=  USB_OTG_DOEPTSIZ_STUPCNT;
1386:Drivers/STM32U5xx_HAL_Driver/Src/stm32u5xx_ll_usb.c **** 
1387:Drivers/STM32U5xx_HAL_Driver/Src/stm32u5xx_ll_usb.c ****   if (dma == 1U)
1388:Drivers/STM32U5xx_HAL_Driver/Src/stm32u5xx_ll_usb.c ****   {
1389:Drivers/STM32U5xx_HAL_Driver/Src/stm32u5xx_ll_usb.c ****     USBx_OUTEP(0U)->DOEPDMA = (uint32_t)psetup;
1390:Drivers/STM32U5xx_HAL_Driver/Src/stm32u5xx_ll_usb.c ****     /* EP enable */
1391:Drivers/STM32U5xx_HAL_Driver/Src/stm32u5xx_ll_usb.c ****     USBx_OUTEP(0U)->DOEPCTL |= USB_OTG_DOEPCTL_EPENA | USB_OTG_DOEPCTL_USBAEP;
1392:Drivers/STM32U5xx_HAL_Driver/Src/stm32u5xx_ll_usb.c ****   }
1393:Drivers/STM32U5xx_HAL_Driver/Src/stm32u5xx_ll_usb.c **** 
1394:Drivers/STM32U5xx_HAL_Driver/Src/stm32u5xx_ll_usb.c ****   return HAL_OK;
1395:Drivers/STM32U5xx_HAL_Driver/Src/stm32u5xx_ll_usb.c **** }
1396:Drivers/STM32U5xx_HAL_Driver/Src/stm32u5xx_ll_usb.c **** 
1397:Drivers/STM32U5xx_HAL_Driver/Src/stm32u5xx_ll_usb.c **** /**
ARM GAS  /tmp/cc0vokHo.s 			page 26


1398:Drivers/STM32U5xx_HAL_Driver/Src/stm32u5xx_ll_usb.c ****   * @brief  Reset the USB Core (needed after USB clock settings change)
1399:Drivers/STM32U5xx_HAL_Driver/Src/stm32u5xx_ll_usb.c ****   * @param  USBx  Selected device
1400:Drivers/STM32U5xx_HAL_Driver/Src/stm32u5xx_ll_usb.c ****   * @retval HAL status
1401:Drivers/STM32U5xx_HAL_Driver/Src/stm32u5xx_ll_usb.c ****   */
1402:Drivers/STM32U5xx_HAL_Driver/Src/stm32u5xx_ll_usb.c **** static HAL_StatusTypeDef USB_CoreReset(USB_OTG_GlobalTypeDef *USBx)
1403:Drivers/STM32U5xx_HAL_Driver/Src/stm32u5xx_ll_usb.c **** {
  30              		.loc 1 1403 1 view -0
  31              		.cfi_startproc
  32              		@ args = 0, pretend = 0, frame = 8
  33              		@ frame_needed = 0, uses_anonymous_args = 0
  34              		@ link register save eliminated.
  35              		.loc 1 1403 1 is_stmt 0 view .LVU1
  36 0000 82B0     		sub	sp, sp, #8
  37              	.LCFI0:
  38              		.cfi_def_cfa_offset 8
1404:Drivers/STM32U5xx_HAL_Driver/Src/stm32u5xx_ll_usb.c ****   __IO uint32_t count = 0U;
  39              		.loc 1 1404 3 is_stmt 1 view .LVU2
  40              		.loc 1 1404 17 is_stmt 0 view .LVU3
  41 0002 0023     		movs	r3, #0
  42 0004 0193     		str	r3, [sp, #4]
  43              	.L3:
1405:Drivers/STM32U5xx_HAL_Driver/Src/stm32u5xx_ll_usb.c **** 
1406:Drivers/STM32U5xx_HAL_Driver/Src/stm32u5xx_ll_usb.c ****   /* Wait for AHB master IDLE state. */
1407:Drivers/STM32U5xx_HAL_Driver/Src/stm32u5xx_ll_usb.c ****   do
  44              		.loc 1 1407 3 is_stmt 1 view .LVU4
1408:Drivers/STM32U5xx_HAL_Driver/Src/stm32u5xx_ll_usb.c ****   {
1409:Drivers/STM32U5xx_HAL_Driver/Src/stm32u5xx_ll_usb.c ****     count++;
  45              		.loc 1 1409 5 view .LVU5
  46              		.loc 1 1409 10 is_stmt 0 view .LVU6
  47 0006 019B     		ldr	r3, [sp, #4]
  48 0008 0133     		adds	r3, r3, #1
  49 000a 0193     		str	r3, [sp, #4]
1410:Drivers/STM32U5xx_HAL_Driver/Src/stm32u5xx_ll_usb.c **** 
1411:Drivers/STM32U5xx_HAL_Driver/Src/stm32u5xx_ll_usb.c ****     if (count > 200000U)
  50              		.loc 1 1411 5 is_stmt 1 view .LVU7
  51              		.loc 1 1411 15 is_stmt 0 view .LVU8
  52 000c 019A     		ldr	r2, [sp, #4]
  53              		.loc 1 1411 8 view .LVU9
  54 000e 0F4B     		ldr	r3, .L8
  55 0010 9A42     		cmp	r2, r3
  56 0012 15D8     		bhi	.L5
1412:Drivers/STM32U5xx_HAL_Driver/Src/stm32u5xx_ll_usb.c ****     {
1413:Drivers/STM32U5xx_HAL_Driver/Src/stm32u5xx_ll_usb.c ****       return HAL_TIMEOUT;
1414:Drivers/STM32U5xx_HAL_Driver/Src/stm32u5xx_ll_usb.c ****     }
1415:Drivers/STM32U5xx_HAL_Driver/Src/stm32u5xx_ll_usb.c ****   } while ((USBx->GRSTCTL & USB_OTG_GRSTCTL_AHBIDL) == 0U);
  57              		.loc 1 1415 11 is_stmt 1 view .LVU10
  58              		.loc 1 1415 17 is_stmt 0 view .LVU11
  59 0014 0369     		ldr	r3, [r0, #16]
  60              		.loc 1 1415 3 view .LVU12
  61 0016 002B     		cmp	r3, #0
  62 0018 F5DA     		bge	.L3
1416:Drivers/STM32U5xx_HAL_Driver/Src/stm32u5xx_ll_usb.c **** 
1417:Drivers/STM32U5xx_HAL_Driver/Src/stm32u5xx_ll_usb.c ****   /* Core Soft Reset */
1418:Drivers/STM32U5xx_HAL_Driver/Src/stm32u5xx_ll_usb.c ****   count = 0U;
  63              		.loc 1 1418 3 is_stmt 1 view .LVU13
  64              		.loc 1 1418 9 is_stmt 0 view .LVU14
  65 001a 0023     		movs	r3, #0
ARM GAS  /tmp/cc0vokHo.s 			page 27


  66 001c 0193     		str	r3, [sp, #4]
1419:Drivers/STM32U5xx_HAL_Driver/Src/stm32u5xx_ll_usb.c ****   USBx->GRSTCTL |= USB_OTG_GRSTCTL_CSRST;
  67              		.loc 1 1419 3 is_stmt 1 view .LVU15
  68              		.loc 1 1419 17 is_stmt 0 view .LVU16
  69 001e 0369     		ldr	r3, [r0, #16]
  70 0020 43F00103 		orr	r3, r3, #1
  71 0024 0361     		str	r3, [r0, #16]
  72              	.L4:
1420:Drivers/STM32U5xx_HAL_Driver/Src/stm32u5xx_ll_usb.c **** 
1421:Drivers/STM32U5xx_HAL_Driver/Src/stm32u5xx_ll_usb.c ****   do
  73              		.loc 1 1421 3 is_stmt 1 view .LVU17
1422:Drivers/STM32U5xx_HAL_Driver/Src/stm32u5xx_ll_usb.c ****   {
1423:Drivers/STM32U5xx_HAL_Driver/Src/stm32u5xx_ll_usb.c ****     count++;
  74              		.loc 1 1423 5 view .LVU18
  75              		.loc 1 1423 10 is_stmt 0 view .LVU19
  76 0026 019B     		ldr	r3, [sp, #4]
  77 0028 0133     		adds	r3, r3, #1
  78 002a 0193     		str	r3, [sp, #4]
1424:Drivers/STM32U5xx_HAL_Driver/Src/stm32u5xx_ll_usb.c **** 
1425:Drivers/STM32U5xx_HAL_Driver/Src/stm32u5xx_ll_usb.c ****     if (count > 200000U)
  79              		.loc 1 1425 5 is_stmt 1 view .LVU20
  80              		.loc 1 1425 15 is_stmt 0 view .LVU21
  81 002c 019A     		ldr	r2, [sp, #4]
  82              		.loc 1 1425 8 view .LVU22
  83 002e 074B     		ldr	r3, .L8
  84 0030 9A42     		cmp	r2, r3
  85 0032 08D8     		bhi	.L6
1426:Drivers/STM32U5xx_HAL_Driver/Src/stm32u5xx_ll_usb.c ****     {
1427:Drivers/STM32U5xx_HAL_Driver/Src/stm32u5xx_ll_usb.c ****       return HAL_TIMEOUT;
1428:Drivers/STM32U5xx_HAL_Driver/Src/stm32u5xx_ll_usb.c ****     }
1429:Drivers/STM32U5xx_HAL_Driver/Src/stm32u5xx_ll_usb.c ****   } while ((USBx->GRSTCTL & USB_OTG_GRSTCTL_CSRST) == USB_OTG_GRSTCTL_CSRST);
  86              		.loc 1 1429 11 is_stmt 1 view .LVU23
  87              		.loc 1 1429 17 is_stmt 0 view .LVU24
  88 0034 0369     		ldr	r3, [r0, #16]
  89              		.loc 1 1429 3 view .LVU25
  90 0036 13F0010F 		tst	r3, #1
  91 003a F4D1     		bne	.L4
1430:Drivers/STM32U5xx_HAL_Driver/Src/stm32u5xx_ll_usb.c **** 
1431:Drivers/STM32U5xx_HAL_Driver/Src/stm32u5xx_ll_usb.c ****   return HAL_OK;
  92              		.loc 1 1431 10 view .LVU26
  93 003c 0020     		movs	r0, #0
  94              	.LVL1:
  95              		.loc 1 1431 10 view .LVU27
  96 003e 00E0     		b	.L2
  97              	.LVL2:
  98              	.L5:
1413:Drivers/STM32U5xx_HAL_Driver/Src/stm32u5xx_ll_usb.c ****     }
  99              		.loc 1 1413 14 view .LVU28
 100 0040 0320     		movs	r0, #3
 101              	.LVL3:
 102              	.L2:
1432:Drivers/STM32U5xx_HAL_Driver/Src/stm32u5xx_ll_usb.c **** }
 103              		.loc 1 1432 1 view .LVU29
 104 0042 02B0     		add	sp, sp, #8
 105              	.LCFI1:
 106              		.cfi_remember_state
 107              		.cfi_def_cfa_offset 0
ARM GAS  /tmp/cc0vokHo.s 			page 28


 108              		@ sp needed
 109 0044 7047     		bx	lr
 110              	.LVL4:
 111              	.L6:
 112              	.LCFI2:
 113              		.cfi_restore_state
1427:Drivers/STM32U5xx_HAL_Driver/Src/stm32u5xx_ll_usb.c ****     }
 114              		.loc 1 1427 14 view .LVU30
 115 0046 0320     		movs	r0, #3
 116              	.LVL5:
1427:Drivers/STM32U5xx_HAL_Driver/Src/stm32u5xx_ll_usb.c ****     }
 117              		.loc 1 1427 14 view .LVU31
 118 0048 FBE7     		b	.L2
 119              	.L9:
 120 004a 00BF     		.align	2
 121              	.L8:
 122 004c 400D0300 		.word	200000
 123              		.cfi_endproc
 124              	.LFE379:
 126              		.section	.text.USB_CoreInit,"ax",%progbits
 127              		.align	1
 128              		.global	USB_CoreInit
 129              		.syntax unified
 130              		.thumb
 131              		.thumb_func
 133              	USB_CoreInit:
 134              	.LVL6:
 135              	.LFB345:
  84:Drivers/STM32U5xx_HAL_Driver/Src/stm32u5xx_ll_usb.c ****   HAL_StatusTypeDef ret;
 136              		.loc 1 84 1 is_stmt 1 view -0
 137              		.cfi_startproc
 138              		@ args = 56, pretend = 16, frame = 0
 139              		@ frame_needed = 0, uses_anonymous_args = 0
  84:Drivers/STM32U5xx_HAL_Driver/Src/stm32u5xx_ll_usb.c ****   HAL_StatusTypeDef ret;
 140              		.loc 1 84 1 is_stmt 0 view .LVU33
 141 0000 84B0     		sub	sp, sp, #16
 142              	.LCFI3:
 143              		.cfi_def_cfa_offset 16
 144 0002 10B5     		push	{r4, lr}
 145              	.LCFI4:
 146              		.cfi_def_cfa_offset 24
 147              		.cfi_offset 4, -24
 148              		.cfi_offset 14, -20
 149 0004 0446     		mov	r4, r0
 150 0006 0DF10C0C 		add	ip, sp, #12
 151 000a 8CE80E00 		stm	ip, {r1, r2, r3}
  85:Drivers/STM32U5xx_HAL_Driver/Src/stm32u5xx_ll_usb.c **** #if defined (STM32U595xx) || defined (STM32U5A5xx) || defined (STM32U599xx) || defined (STM32U5A9xx
 152              		.loc 1 85 3 is_stmt 1 view .LVU34
 106:Drivers/STM32U5xx_HAL_Driver/Src/stm32u5xx_ll_usb.c **** 
 153              		.loc 1 106 3 view .LVU35
 106:Drivers/STM32U5xx_HAL_Driver/Src/stm32u5xx_ll_usb.c **** 
 154              		.loc 1 106 17 is_stmt 0 view .LVU36
 155 000e C368     		ldr	r3, [r0, #12]
 156 0010 43F04003 		orr	r3, r3, #64
 157 0014 C360     		str	r3, [r0, #12]
 109:Drivers/STM32U5xx_HAL_Driver/Src/stm32u5xx_ll_usb.c **** 
 158              		.loc 1 109 3 is_stmt 1 view .LVU37
ARM GAS  /tmp/cc0vokHo.s 			page 29


 109:Drivers/STM32U5xx_HAL_Driver/Src/stm32u5xx_ll_usb.c **** 
 159              		.loc 1 109 9 is_stmt 0 view .LVU38
 160 0016 FFF7FEFF 		bl	USB_CoreReset
 161              	.LVL7:
 111:Drivers/STM32U5xx_HAL_Driver/Src/stm32u5xx_ll_usb.c ****   {
 162              		.loc 1 111 3 is_stmt 1 view .LVU39
 111:Drivers/STM32U5xx_HAL_Driver/Src/stm32u5xx_ll_usb.c ****   {
 163              		.loc 1 111 10 is_stmt 0 view .LVU40
 164 001a 0C9B     		ldr	r3, [sp, #48]
 111:Drivers/STM32U5xx_HAL_Driver/Src/stm32u5xx_ll_usb.c ****   {
 165              		.loc 1 111 6 view .LVU41
 166 001c 3BB9     		cbnz	r3, .L11
 114:Drivers/STM32U5xx_HAL_Driver/Src/stm32u5xx_ll_usb.c ****   }
 167              		.loc 1 114 5 is_stmt 1 view .LVU42
 114:Drivers/STM32U5xx_HAL_Driver/Src/stm32u5xx_ll_usb.c ****   }
 168              		.loc 1 114 17 is_stmt 0 view .LVU43
 169 001e A36B     		ldr	r3, [r4, #56]
 170 0020 43F48033 		orr	r3, r3, #65536
 171 0024 A363     		str	r3, [r4, #56]
 172              	.L12:
 124:Drivers/STM32U5xx_HAL_Driver/Src/stm32u5xx_ll_usb.c **** }
 173              		.loc 1 124 3 is_stmt 1 view .LVU44
 125:Drivers/STM32U5xx_HAL_Driver/Src/stm32u5xx_ll_usb.c **** 
 174              		.loc 1 125 1 is_stmt 0 view .LVU45
 175 0026 BDE81040 		pop	{r4, lr}
 176              	.LCFI5:
 177              		.cfi_remember_state
 178              		.cfi_restore 14
 179              		.cfi_restore 4
 180              		.cfi_def_cfa_offset 16
 181              	.LVL8:
 125:Drivers/STM32U5xx_HAL_Driver/Src/stm32u5xx_ll_usb.c **** 
 182              		.loc 1 125 1 view .LVU46
 183 002a 04B0     		add	sp, sp, #16
 184              	.LCFI6:
 185              		.cfi_def_cfa_offset 0
 186 002c 7047     		bx	lr
 187              	.LVL9:
 188              	.L11:
 189              	.LCFI7:
 190              		.cfi_restore_state
 119:Drivers/STM32U5xx_HAL_Driver/Src/stm32u5xx_ll_usb.c ****   }
 191              		.loc 1 119 5 is_stmt 1 view .LVU47
 119:Drivers/STM32U5xx_HAL_Driver/Src/stm32u5xx_ll_usb.c ****   }
 192              		.loc 1 119 17 is_stmt 0 view .LVU48
 193 002e A36B     		ldr	r3, [r4, #56]
 194 0030 23F48033 		bic	r3, r3, #65536
 195 0034 A363     		str	r3, [r4, #56]
 196 0036 F6E7     		b	.L12
 197              		.cfi_endproc
 198              	.LFE345:
 200              		.section	.text.USB_SetTurnaroundTime,"ax",%progbits
 201              		.align	1
 202              		.global	USB_SetTurnaroundTime
 203              		.syntax unified
 204              		.thumb
 205              		.thumb_func
ARM GAS  /tmp/cc0vokHo.s 			page 30


 207              	USB_SetTurnaroundTime:
 208              	.LVL10:
 209              	.LFB346:
 136:Drivers/STM32U5xx_HAL_Driver/Src/stm32u5xx_ll_usb.c ****   uint32_t UsbTrd;
 210              		.loc 1 136 1 is_stmt 1 view -0
 211              		.cfi_startproc
 212              		@ args = 0, pretend = 0, frame = 0
 213              		@ frame_needed = 0, uses_anonymous_args = 0
 214              		@ link register save eliminated.
 137:Drivers/STM32U5xx_HAL_Driver/Src/stm32u5xx_ll_usb.c **** 
 215              		.loc 1 137 3 view .LVU50
 143:Drivers/STM32U5xx_HAL_Driver/Src/stm32u5xx_ll_usb.c ****   {
 216              		.loc 1 143 3 view .LVU51
 143:Drivers/STM32U5xx_HAL_Driver/Src/stm32u5xx_ll_usb.c ****   {
 217              		.loc 1 143 6 is_stmt 0 view .LVU52
 218 0000 022A     		cmp	r2, #2
 219 0002 0AD0     		beq	.L26
 198:Drivers/STM32U5xx_HAL_Driver/Src/stm32u5xx_ll_usb.c ****   }
 220              		.loc 1 198 12 view .LVU53
 221 0004 0921     		movs	r1, #9
 222              	.LVL11:
 223              	.L15:
 205:Drivers/STM32U5xx_HAL_Driver/Src/stm32u5xx_ll_usb.c ****   USBx->GUSBCFG |= (uint32_t)((UsbTrd << 10) & USB_OTG_GUSBCFG_TRDT);
 224              		.loc 1 205 3 is_stmt 1 view .LVU54
 205:Drivers/STM32U5xx_HAL_Driver/Src/stm32u5xx_ll_usb.c ****   USBx->GUSBCFG |= (uint32_t)((UsbTrd << 10) & USB_OTG_GUSBCFG_TRDT);
 225              		.loc 1 205 17 is_stmt 0 view .LVU55
 226 0006 C268     		ldr	r2, [r0, #12]
 227 0008 22F47052 		bic	r2, r2, #15360
 228 000c C260     		str	r2, [r0, #12]
 206:Drivers/STM32U5xx_HAL_Driver/Src/stm32u5xx_ll_usb.c **** 
 229              		.loc 1 206 3 is_stmt 1 view .LVU56
 206:Drivers/STM32U5xx_HAL_Driver/Src/stm32u5xx_ll_usb.c **** 
 230              		.loc 1 206 17 is_stmt 0 view .LVU57
 231 000e C368     		ldr	r3, [r0, #12]
 232 0010 43EA8123 		orr	r3, r3, r1, lsl #10
 233 0014 C360     		str	r3, [r0, #12]
 208:Drivers/STM32U5xx_HAL_Driver/Src/stm32u5xx_ll_usb.c **** }
 234              		.loc 1 208 3 is_stmt 1 view .LVU58
 209:Drivers/STM32U5xx_HAL_Driver/Src/stm32u5xx_ll_usb.c **** 
 235              		.loc 1 209 1 is_stmt 0 view .LVU59
 236 0016 0020     		movs	r0, #0
 237              	.LVL12:
 209:Drivers/STM32U5xx_HAL_Driver/Src/stm32u5xx_ll_usb.c **** 
 238              		.loc 1 209 1 view .LVU60
 239 0018 7047     		bx	lr
 240              	.LVL13:
 241              	.L26:
 145:Drivers/STM32U5xx_HAL_Driver/Src/stm32u5xx_ll_usb.c ****     {
 242              		.loc 1 145 5 is_stmt 1 view .LVU61
 145:Drivers/STM32U5xx_HAL_Driver/Src/stm32u5xx_ll_usb.c ****     {
 243              		.loc 1 145 29 is_stmt 0 view .LVU62
 244 001a 234B     		ldr	r3, .L27
 245 001c 0B44     		add	r3, r3, r1
 145:Drivers/STM32U5xx_HAL_Driver/Src/stm32u5xx_ll_usb.c ****     {
 246              		.loc 1 145 8 view .LVU63
 247 001e 234A     		ldr	r2, .L27+4
 248              	.LVL14:
ARM GAS  /tmp/cc0vokHo.s 			page 31


 145:Drivers/STM32U5xx_HAL_Driver/Src/stm32u5xx_ll_usb.c ****     {
 249              		.loc 1 145 8 view .LVU64
 250 0020 9342     		cmp	r3, r2
 251 0022 2FD9     		bls	.L17
 150:Drivers/STM32U5xx_HAL_Driver/Src/stm32u5xx_ll_usb.c ****     {
 252              		.loc 1 150 10 is_stmt 1 view .LVU65
 150:Drivers/STM32U5xx_HAL_Driver/Src/stm32u5xx_ll_usb.c ****     {
 253              		.loc 1 150 34 is_stmt 0 view .LVU66
 254 0024 224B     		ldr	r3, .L27+8
 255 0026 0B44     		add	r3, r3, r1
 150:Drivers/STM32U5xx_HAL_Driver/Src/stm32u5xx_ll_usb.c ****     {
 256              		.loc 1 150 13 view .LVU67
 257 0028 224A     		ldr	r2, .L27+12
 258 002a 9342     		cmp	r3, r2
 259 002c 2CD9     		bls	.L18
 155:Drivers/STM32U5xx_HAL_Driver/Src/stm32u5xx_ll_usb.c ****     {
 260              		.loc 1 155 10 is_stmt 1 view .LVU68
 155:Drivers/STM32U5xx_HAL_Driver/Src/stm32u5xx_ll_usb.c ****     {
 261              		.loc 1 155 34 is_stmt 0 view .LVU69
 262 002e A1F57403 		sub	r3, r1, #15990784
 263 0032 A3F51053 		sub	r3, r3, #9216
 155:Drivers/STM32U5xx_HAL_Driver/Src/stm32u5xx_ll_usb.c ****     {
 264              		.loc 1 155 13 view .LVU70
 265 0036 204A     		ldr	r2, .L27+16
 266 0038 9342     		cmp	r3, r2
 267 003a 27D9     		bls	.L19
 160:Drivers/STM32U5xx_HAL_Driver/Src/stm32u5xx_ll_usb.c ****     {
 268              		.loc 1 160 10 is_stmt 1 view .LVU71
 160:Drivers/STM32U5xx_HAL_Driver/Src/stm32u5xx_ll_usb.c ****     {
 269              		.loc 1 160 34 is_stmt 0 view .LVU72
 270 003c A1F18373 		sub	r3, r1, #17170432
 271 0040 A3F5E743 		sub	r3, r3, #29568
 160:Drivers/STM32U5xx_HAL_Driver/Src/stm32u5xx_ll_usb.c ****     {
 272              		.loc 1 160 13 view .LVU73
 273 0044 1D4A     		ldr	r2, .L27+20
 274 0046 9342     		cmp	r3, r2
 275 0048 22D3     		bcc	.L20
 165:Drivers/STM32U5xx_HAL_Driver/Src/stm32u5xx_ll_usb.c ****     {
 276              		.loc 1 165 10 is_stmt 1 view .LVU74
 165:Drivers/STM32U5xx_HAL_Driver/Src/stm32u5xx_ll_usb.c ****     {
 277              		.loc 1 165 34 is_stmt 0 view .LVU75
 278 004a 1D4B     		ldr	r3, .L27+24
 279 004c 0B44     		add	r3, r3, r1
 165:Drivers/STM32U5xx_HAL_Driver/Src/stm32u5xx_ll_usb.c ****     {
 280              		.loc 1 165 13 view .LVU76
 281 004e 1D4A     		ldr	r2, .L27+28
 282 0050 9342     		cmp	r3, r2
 283 0052 1FD9     		bls	.L21
 170:Drivers/STM32U5xx_HAL_Driver/Src/stm32u5xx_ll_usb.c ****     {
 284              		.loc 1 170 10 is_stmt 1 view .LVU77
 170:Drivers/STM32U5xx_HAL_Driver/Src/stm32u5xx_ll_usb.c ****     {
 285              		.loc 1 170 34 is_stmt 0 view .LVU78
 286 0054 1C4B     		ldr	r3, .L27+32
 287 0056 0B44     		add	r3, r3, r1
 170:Drivers/STM32U5xx_HAL_Driver/Src/stm32u5xx_ll_usb.c ****     {
 288              		.loc 1 170 13 view .LVU79
 289 0058 1C4A     		ldr	r2, .L27+36
ARM GAS  /tmp/cc0vokHo.s 			page 32


 290 005a 9342     		cmp	r3, r2
 291 005c 1CD3     		bcc	.L22
 175:Drivers/STM32U5xx_HAL_Driver/Src/stm32u5xx_ll_usb.c ****     {
 292              		.loc 1 175 10 is_stmt 1 view .LVU80
 175:Drivers/STM32U5xx_HAL_Driver/Src/stm32u5xx_ll_usb.c ****     {
 293              		.loc 1 175 34 is_stmt 0 view .LVU81
 294 005e 1C4B     		ldr	r3, .L27+40
 295 0060 0B44     		add	r3, r3, r1
 175:Drivers/STM32U5xx_HAL_Driver/Src/stm32u5xx_ll_usb.c ****     {
 296              		.loc 1 175 13 view .LVU82
 297 0062 1C4A     		ldr	r2, .L27+44
 298 0064 9342     		cmp	r3, r2
 299 0066 19D3     		bcc	.L23
 180:Drivers/STM32U5xx_HAL_Driver/Src/stm32u5xx_ll_usb.c ****     {
 300              		.loc 1 180 10 is_stmt 1 view .LVU83
 180:Drivers/STM32U5xx_HAL_Driver/Src/stm32u5xx_ll_usb.c ****     {
 301              		.loc 1 180 34 is_stmt 0 view .LVU84
 302 0068 A1F1B773 		sub	r3, r1, #23986176
 303 006c A3F55853 		sub	r3, r3, #13824
 180:Drivers/STM32U5xx_HAL_Driver/Src/stm32u5xx_ll_usb.c ****     {
 304              		.loc 1 180 13 view .LVU85
 305 0070 194A     		ldr	r2, .L27+48
 306 0072 9342     		cmp	r3, r2
 307 0074 14D3     		bcc	.L24
 185:Drivers/STM32U5xx_HAL_Driver/Src/stm32u5xx_ll_usb.c ****     {
 308              		.loc 1 185 10 is_stmt 1 view .LVU86
 185:Drivers/STM32U5xx_HAL_Driver/Src/stm32u5xx_ll_usb.c ****     {
 309              		.loc 1 185 34 is_stmt 0 view .LVU87
 310 0076 194B     		ldr	r3, .L27+52
 311 0078 0B44     		add	r3, r3, r1
 185:Drivers/STM32U5xx_HAL_Driver/Src/stm32u5xx_ll_usb.c ****     {
 312              		.loc 1 185 13 view .LVU88
 313 007a 194A     		ldr	r2, .L27+56
 314 007c 9342     		cmp	r3, r2
 315 007e 11D2     		bcs	.L25
 188:Drivers/STM32U5xx_HAL_Driver/Src/stm32u5xx_ll_usb.c ****     }
 316              		.loc 1 188 14 view .LVU89
 317 0080 0721     		movs	r1, #7
 318              	.LVL15:
 188:Drivers/STM32U5xx_HAL_Driver/Src/stm32u5xx_ll_usb.c ****     }
 319              		.loc 1 188 14 view .LVU90
 320 0082 C0E7     		b	.L15
 321              	.LVL16:
 322              	.L17:
 148:Drivers/STM32U5xx_HAL_Driver/Src/stm32u5xx_ll_usb.c ****     }
 323              		.loc 1 148 14 view .LVU91
 324 0084 0F21     		movs	r1, #15
 325              	.LVL17:
 148:Drivers/STM32U5xx_HAL_Driver/Src/stm32u5xx_ll_usb.c ****     }
 326              		.loc 1 148 14 view .LVU92
 327 0086 BEE7     		b	.L15
 328              	.LVL18:
 329              	.L18:
 153:Drivers/STM32U5xx_HAL_Driver/Src/stm32u5xx_ll_usb.c ****     }
 330              		.loc 1 153 14 view .LVU93
 331 0088 0E21     		movs	r1, #14
 332              	.LVL19:
ARM GAS  /tmp/cc0vokHo.s 			page 33


 153:Drivers/STM32U5xx_HAL_Driver/Src/stm32u5xx_ll_usb.c ****     }
 333              		.loc 1 153 14 view .LVU94
 334 008a BCE7     		b	.L15
 335              	.LVL20:
 336              	.L19:
 158:Drivers/STM32U5xx_HAL_Driver/Src/stm32u5xx_ll_usb.c ****     }
 337              		.loc 1 158 14 view .LVU95
 338 008c 0D21     		movs	r1, #13
 339              	.LVL21:
 158:Drivers/STM32U5xx_HAL_Driver/Src/stm32u5xx_ll_usb.c ****     }
 340              		.loc 1 158 14 view .LVU96
 341 008e BAE7     		b	.L15
 342              	.LVL22:
 343              	.L20:
 163:Drivers/STM32U5xx_HAL_Driver/Src/stm32u5xx_ll_usb.c ****     }
 344              		.loc 1 163 14 view .LVU97
 345 0090 0C21     		movs	r1, #12
 346              	.LVL23:
 163:Drivers/STM32U5xx_HAL_Driver/Src/stm32u5xx_ll_usb.c ****     }
 347              		.loc 1 163 14 view .LVU98
 348 0092 B8E7     		b	.L15
 349              	.LVL24:
 350              	.L21:
 168:Drivers/STM32U5xx_HAL_Driver/Src/stm32u5xx_ll_usb.c ****     }
 351              		.loc 1 168 14 view .LVU99
 352 0094 0B21     		movs	r1, #11
 353              	.LVL25:
 168:Drivers/STM32U5xx_HAL_Driver/Src/stm32u5xx_ll_usb.c ****     }
 354              		.loc 1 168 14 view .LVU100
 355 0096 B6E7     		b	.L15
 356              	.LVL26:
 357              	.L22:
 173:Drivers/STM32U5xx_HAL_Driver/Src/stm32u5xx_ll_usb.c ****     }
 358              		.loc 1 173 14 view .LVU101
 359 0098 0A21     		movs	r1, #10
 360              	.LVL27:
 173:Drivers/STM32U5xx_HAL_Driver/Src/stm32u5xx_ll_usb.c ****     }
 361              		.loc 1 173 14 view .LVU102
 362 009a B4E7     		b	.L15
 363              	.LVL28:
 364              	.L23:
 178:Drivers/STM32U5xx_HAL_Driver/Src/stm32u5xx_ll_usb.c ****     }
 365              		.loc 1 178 14 view .LVU103
 366 009c 0921     		movs	r1, #9
 367              	.LVL29:
 178:Drivers/STM32U5xx_HAL_Driver/Src/stm32u5xx_ll_usb.c ****     }
 368              		.loc 1 178 14 view .LVU104
 369 009e B2E7     		b	.L15
 370              	.LVL30:
 371              	.L24:
 183:Drivers/STM32U5xx_HAL_Driver/Src/stm32u5xx_ll_usb.c ****     }
 372              		.loc 1 183 14 view .LVU105
 373 00a0 0821     		movs	r1, #8
 374              	.LVL31:
 183:Drivers/STM32U5xx_HAL_Driver/Src/stm32u5xx_ll_usb.c ****     }
 375              		.loc 1 183 14 view .LVU106
 376 00a2 B0E7     		b	.L15
ARM GAS  /tmp/cc0vokHo.s 			page 34


 377              	.LVL32:
 378              	.L25:
 193:Drivers/STM32U5xx_HAL_Driver/Src/stm32u5xx_ll_usb.c ****     }
 379              		.loc 1 193 14 view .LVU107
 380 00a4 0621     		movs	r1, #6
 381              	.LVL33:
 193:Drivers/STM32U5xx_HAL_Driver/Src/stm32u5xx_ll_usb.c ****     }
 382              		.loc 1 193 14 view .LVU108
 383 00a6 AEE7     		b	.L15
 384              	.L28:
 385              		.align	2
 386              	.L27:
 387 00a8 405327FF 		.word	-14200000
 388 00ac FF340C00 		.word	799999
 389 00b0 401E1BFF 		.word	-15000000
 390 00b4 3F420F00 		.word	999999
 391 00b8 7F4F1200 		.word	1199999
 392 00bc 20D61300 		.word	1300000
 393 00c0 60B6E5FE 		.word	-18500000
 394 00c4 5FE31600 		.word	1499999
 395 00c8 00D3CEFE 		.word	-20000000
 396 00cc 40771B00 		.word	1800000
 397 00d0 C05BB3FE 		.word	-21800000
 398 00d4 C0912100 		.word	2200000
 399 00d8 20753800 		.word	3700000
 400 00dc E05459FE 		.word	-27700000
 401 00e0 E09C4100 		.word	4300000
 402              		.cfi_endproc
 403              	.LFE346:
 405              		.section	.text.USB_EnableGlobalInt,"ax",%progbits
 406              		.align	1
 407              		.global	USB_EnableGlobalInt
 408              		.syntax unified
 409              		.thumb
 410              		.thumb_func
 412              	USB_EnableGlobalInt:
 413              	.LVL34:
 414              	.LFB347:
 218:Drivers/STM32U5xx_HAL_Driver/Src/stm32u5xx_ll_usb.c ****   USBx->GAHBCFG |= USB_OTG_GAHBCFG_GINT;
 415              		.loc 1 218 1 is_stmt 1 view -0
 416              		.cfi_startproc
 417              		@ args = 0, pretend = 0, frame = 0
 418              		@ frame_needed = 0, uses_anonymous_args = 0
 419              		@ link register save eliminated.
 219:Drivers/STM32U5xx_HAL_Driver/Src/stm32u5xx_ll_usb.c ****   return HAL_OK;
 420              		.loc 1 219 3 view .LVU110
 219:Drivers/STM32U5xx_HAL_Driver/Src/stm32u5xx_ll_usb.c ****   return HAL_OK;
 421              		.loc 1 219 17 is_stmt 0 view .LVU111
 422 0000 8368     		ldr	r3, [r0, #8]
 423 0002 43F00103 		orr	r3, r3, #1
 424 0006 8360     		str	r3, [r0, #8]
 220:Drivers/STM32U5xx_HAL_Driver/Src/stm32u5xx_ll_usb.c **** }
 425              		.loc 1 220 3 is_stmt 1 view .LVU112
 221:Drivers/STM32U5xx_HAL_Driver/Src/stm32u5xx_ll_usb.c **** 
 426              		.loc 1 221 1 is_stmt 0 view .LVU113
 427 0008 0020     		movs	r0, #0
 428              	.LVL35:
ARM GAS  /tmp/cc0vokHo.s 			page 35


 221:Drivers/STM32U5xx_HAL_Driver/Src/stm32u5xx_ll_usb.c **** 
 429              		.loc 1 221 1 view .LVU114
 430 000a 7047     		bx	lr
 431              		.cfi_endproc
 432              	.LFE347:
 434              		.section	.text.USB_DisableGlobalInt,"ax",%progbits
 435              		.align	1
 436              		.global	USB_DisableGlobalInt
 437              		.syntax unified
 438              		.thumb
 439              		.thumb_func
 441              	USB_DisableGlobalInt:
 442              	.LVL36:
 443              	.LFB348:
 230:Drivers/STM32U5xx_HAL_Driver/Src/stm32u5xx_ll_usb.c ****   USBx->GAHBCFG &= ~USB_OTG_GAHBCFG_GINT;
 444              		.loc 1 230 1 is_stmt 1 view -0
 445              		.cfi_startproc
 446              		@ args = 0, pretend = 0, frame = 0
 447              		@ frame_needed = 0, uses_anonymous_args = 0
 448              		@ link register save eliminated.
 231:Drivers/STM32U5xx_HAL_Driver/Src/stm32u5xx_ll_usb.c ****   return HAL_OK;
 449              		.loc 1 231 3 view .LVU116
 231:Drivers/STM32U5xx_HAL_Driver/Src/stm32u5xx_ll_usb.c ****   return HAL_OK;
 450              		.loc 1 231 17 is_stmt 0 view .LVU117
 451 0000 8368     		ldr	r3, [r0, #8]
 452 0002 23F00103 		bic	r3, r3, #1
 453 0006 8360     		str	r3, [r0, #8]
 232:Drivers/STM32U5xx_HAL_Driver/Src/stm32u5xx_ll_usb.c **** }
 454              		.loc 1 232 3 is_stmt 1 view .LVU118
 233:Drivers/STM32U5xx_HAL_Driver/Src/stm32u5xx_ll_usb.c **** 
 455              		.loc 1 233 1 is_stmt 0 view .LVU119
 456 0008 0020     		movs	r0, #0
 457              	.LVL37:
 233:Drivers/STM32U5xx_HAL_Driver/Src/stm32u5xx_ll_usb.c **** 
 458              		.loc 1 233 1 view .LVU120
 459 000a 7047     		bx	lr
 460              		.cfi_endproc
 461              	.LFE348:
 463              		.section	.text.USB_FlushTxFifo,"ax",%progbits
 464              		.align	1
 465              		.global	USB_FlushTxFifo
 466              		.syntax unified
 467              		.thumb
 468              		.thumb_func
 470              	USB_FlushTxFifo:
 471              	.LVL38:
 472              	.LFB351:
 470:Drivers/STM32U5xx_HAL_Driver/Src/stm32u5xx_ll_usb.c ****   __IO uint32_t count = 0U;
 473              		.loc 1 470 1 is_stmt 1 view -0
 474              		.cfi_startproc
 475              		@ args = 0, pretend = 0, frame = 8
 476              		@ frame_needed = 0, uses_anonymous_args = 0
 477              		@ link register save eliminated.
 470:Drivers/STM32U5xx_HAL_Driver/Src/stm32u5xx_ll_usb.c ****   __IO uint32_t count = 0U;
 478              		.loc 1 470 1 is_stmt 0 view .LVU122
 479 0000 82B0     		sub	sp, sp, #8
 480              	.LCFI8:
ARM GAS  /tmp/cc0vokHo.s 			page 36


 481              		.cfi_def_cfa_offset 8
 471:Drivers/STM32U5xx_HAL_Driver/Src/stm32u5xx_ll_usb.c **** 
 482              		.loc 1 471 3 is_stmt 1 view .LVU123
 471:Drivers/STM32U5xx_HAL_Driver/Src/stm32u5xx_ll_usb.c **** 
 483              		.loc 1 471 17 is_stmt 0 view .LVU124
 484 0002 0023     		movs	r3, #0
 485 0004 0193     		str	r3, [sp, #4]
 486              	.L33:
 474:Drivers/STM32U5xx_HAL_Driver/Src/stm32u5xx_ll_usb.c ****   {
 487              		.loc 1 474 3 is_stmt 1 view .LVU125
 476:Drivers/STM32U5xx_HAL_Driver/Src/stm32u5xx_ll_usb.c **** 
 488              		.loc 1 476 5 view .LVU126
 476:Drivers/STM32U5xx_HAL_Driver/Src/stm32u5xx_ll_usb.c **** 
 489              		.loc 1 476 10 is_stmt 0 view .LVU127
 490 0006 019B     		ldr	r3, [sp, #4]
 491 0008 0133     		adds	r3, r3, #1
 492 000a 0193     		str	r3, [sp, #4]
 478:Drivers/STM32U5xx_HAL_Driver/Src/stm32u5xx_ll_usb.c ****     {
 493              		.loc 1 478 5 is_stmt 1 view .LVU128
 478:Drivers/STM32U5xx_HAL_Driver/Src/stm32u5xx_ll_usb.c ****     {
 494              		.loc 1 478 15 is_stmt 0 view .LVU129
 495 000c 019A     		ldr	r2, [sp, #4]
 478:Drivers/STM32U5xx_HAL_Driver/Src/stm32u5xx_ll_usb.c ****     {
 496              		.loc 1 478 8 view .LVU130
 497 000e 0F4B     		ldr	r3, .L38
 498 0010 9A42     		cmp	r2, r3
 499 0012 15D8     		bhi	.L35
 482:Drivers/STM32U5xx_HAL_Driver/Src/stm32u5xx_ll_usb.c **** 
 500              		.loc 1 482 11 is_stmt 1 view .LVU131
 482:Drivers/STM32U5xx_HAL_Driver/Src/stm32u5xx_ll_usb.c **** 
 501              		.loc 1 482 17 is_stmt 0 view .LVU132
 502 0014 0369     		ldr	r3, [r0, #16]
 482:Drivers/STM32U5xx_HAL_Driver/Src/stm32u5xx_ll_usb.c **** 
 503              		.loc 1 482 3 view .LVU133
 504 0016 002B     		cmp	r3, #0
 505 0018 F5DA     		bge	.L33
 485:Drivers/STM32U5xx_HAL_Driver/Src/stm32u5xx_ll_usb.c ****   USBx->GRSTCTL = (USB_OTG_GRSTCTL_TXFFLSH | (num << 6));
 506              		.loc 1 485 3 is_stmt 1 view .LVU134
 485:Drivers/STM32U5xx_HAL_Driver/Src/stm32u5xx_ll_usb.c ****   USBx->GRSTCTL = (USB_OTG_GRSTCTL_TXFFLSH | (num << 6));
 507              		.loc 1 485 9 is_stmt 0 view .LVU135
 508 001a 0023     		movs	r3, #0
 509 001c 0193     		str	r3, [sp, #4]
 486:Drivers/STM32U5xx_HAL_Driver/Src/stm32u5xx_ll_usb.c **** 
 510              		.loc 1 486 3 is_stmt 1 view .LVU136
 486:Drivers/STM32U5xx_HAL_Driver/Src/stm32u5xx_ll_usb.c **** 
 511              		.loc 1 486 51 is_stmt 0 view .LVU137
 512 001e 8901     		lsls	r1, r1, #6
 513              	.LVL39:
 486:Drivers/STM32U5xx_HAL_Driver/Src/stm32u5xx_ll_usb.c **** 
 514              		.loc 1 486 44 view .LVU138
 515 0020 41F02001 		orr	r1, r1, #32
 486:Drivers/STM32U5xx_HAL_Driver/Src/stm32u5xx_ll_usb.c **** 
 516              		.loc 1 486 17 view .LVU139
 517 0024 0161     		str	r1, [r0, #16]
 518              	.L34:
 488:Drivers/STM32U5xx_HAL_Driver/Src/stm32u5xx_ll_usb.c ****   {
 519              		.loc 1 488 3 is_stmt 1 view .LVU140
ARM GAS  /tmp/cc0vokHo.s 			page 37


 490:Drivers/STM32U5xx_HAL_Driver/Src/stm32u5xx_ll_usb.c **** 
 520              		.loc 1 490 5 view .LVU141
 490:Drivers/STM32U5xx_HAL_Driver/Src/stm32u5xx_ll_usb.c **** 
 521              		.loc 1 490 10 is_stmt 0 view .LVU142
 522 0026 019B     		ldr	r3, [sp, #4]
 523 0028 0133     		adds	r3, r3, #1
 524 002a 0193     		str	r3, [sp, #4]
 492:Drivers/STM32U5xx_HAL_Driver/Src/stm32u5xx_ll_usb.c ****     {
 525              		.loc 1 492 5 is_stmt 1 view .LVU143
 492:Drivers/STM32U5xx_HAL_Driver/Src/stm32u5xx_ll_usb.c ****     {
 526              		.loc 1 492 15 is_stmt 0 view .LVU144
 527 002c 019A     		ldr	r2, [sp, #4]
 492:Drivers/STM32U5xx_HAL_Driver/Src/stm32u5xx_ll_usb.c ****     {
 528              		.loc 1 492 8 view .LVU145
 529 002e 074B     		ldr	r3, .L38
 530 0030 9A42     		cmp	r2, r3
 531 0032 08D8     		bhi	.L36
 496:Drivers/STM32U5xx_HAL_Driver/Src/stm32u5xx_ll_usb.c **** 
 532              		.loc 1 496 11 is_stmt 1 view .LVU146
 496:Drivers/STM32U5xx_HAL_Driver/Src/stm32u5xx_ll_usb.c **** 
 533              		.loc 1 496 17 is_stmt 0 view .LVU147
 534 0034 0369     		ldr	r3, [r0, #16]
 496:Drivers/STM32U5xx_HAL_Driver/Src/stm32u5xx_ll_usb.c **** 
 535              		.loc 1 496 3 view .LVU148
 536 0036 13F0200F 		tst	r3, #32
 537 003a F4D1     		bne	.L34
 498:Drivers/STM32U5xx_HAL_Driver/Src/stm32u5xx_ll_usb.c **** }
 538              		.loc 1 498 10 view .LVU149
 539 003c 0020     		movs	r0, #0
 540              	.LVL40:
 498:Drivers/STM32U5xx_HAL_Driver/Src/stm32u5xx_ll_usb.c **** }
 541              		.loc 1 498 10 view .LVU150
 542 003e 00E0     		b	.L32
 543              	.LVL41:
 544              	.L35:
 480:Drivers/STM32U5xx_HAL_Driver/Src/stm32u5xx_ll_usb.c ****     }
 545              		.loc 1 480 14 view .LVU151
 546 0040 0320     		movs	r0, #3
 547              	.LVL42:
 548              	.L32:
 499:Drivers/STM32U5xx_HAL_Driver/Src/stm32u5xx_ll_usb.c **** 
 549              		.loc 1 499 1 view .LVU152
 550 0042 02B0     		add	sp, sp, #8
 551              	.LCFI9:
 552              		.cfi_remember_state
 553              		.cfi_def_cfa_offset 0
 554              		@ sp needed
 555 0044 7047     		bx	lr
 556              	.LVL43:
 557              	.L36:
 558              	.LCFI10:
 559              		.cfi_restore_state
 494:Drivers/STM32U5xx_HAL_Driver/Src/stm32u5xx_ll_usb.c ****     }
 560              		.loc 1 494 14 view .LVU153
 561 0046 0320     		movs	r0, #3
 562              	.LVL44:
 494:Drivers/STM32U5xx_HAL_Driver/Src/stm32u5xx_ll_usb.c ****     }
ARM GAS  /tmp/cc0vokHo.s 			page 38


 563              		.loc 1 494 14 view .LVU154
 564 0048 FBE7     		b	.L32
 565              	.L39:
 566 004a 00BF     		.align	2
 567              	.L38:
 568 004c 400D0300 		.word	200000
 569              		.cfi_endproc
 570              	.LFE351:
 572              		.section	.text.USB_FlushRxFifo,"ax",%progbits
 573              		.align	1
 574              		.global	USB_FlushRxFifo
 575              		.syntax unified
 576              		.thumb
 577              		.thumb_func
 579              	USB_FlushRxFifo:
 580              	.LVL45:
 581              	.LFB352:
 507:Drivers/STM32U5xx_HAL_Driver/Src/stm32u5xx_ll_usb.c ****   __IO uint32_t count = 0U;
 582              		.loc 1 507 1 is_stmt 1 view -0
 583              		.cfi_startproc
 584              		@ args = 0, pretend = 0, frame = 8
 585              		@ frame_needed = 0, uses_anonymous_args = 0
 586              		@ link register save eliminated.
 507:Drivers/STM32U5xx_HAL_Driver/Src/stm32u5xx_ll_usb.c ****   __IO uint32_t count = 0U;
 587              		.loc 1 507 1 is_stmt 0 view .LVU156
 588 0000 82B0     		sub	sp, sp, #8
 589              	.LCFI11:
 590              		.cfi_def_cfa_offset 8
 508:Drivers/STM32U5xx_HAL_Driver/Src/stm32u5xx_ll_usb.c **** 
 591              		.loc 1 508 3 is_stmt 1 view .LVU157
 508:Drivers/STM32U5xx_HAL_Driver/Src/stm32u5xx_ll_usb.c **** 
 592              		.loc 1 508 17 is_stmt 0 view .LVU158
 593 0002 0023     		movs	r3, #0
 594 0004 0193     		str	r3, [sp, #4]
 595              	.L42:
 511:Drivers/STM32U5xx_HAL_Driver/Src/stm32u5xx_ll_usb.c ****   {
 596              		.loc 1 511 3 is_stmt 1 view .LVU159
 513:Drivers/STM32U5xx_HAL_Driver/Src/stm32u5xx_ll_usb.c **** 
 597              		.loc 1 513 5 view .LVU160
 513:Drivers/STM32U5xx_HAL_Driver/Src/stm32u5xx_ll_usb.c **** 
 598              		.loc 1 513 10 is_stmt 0 view .LVU161
 599 0006 019B     		ldr	r3, [sp, #4]
 600 0008 0133     		adds	r3, r3, #1
 601 000a 0193     		str	r3, [sp, #4]
 515:Drivers/STM32U5xx_HAL_Driver/Src/stm32u5xx_ll_usb.c ****     {
 602              		.loc 1 515 5 is_stmt 1 view .LVU162
 515:Drivers/STM32U5xx_HAL_Driver/Src/stm32u5xx_ll_usb.c ****     {
 603              		.loc 1 515 15 is_stmt 0 view .LVU163
 604 000c 019A     		ldr	r2, [sp, #4]
 515:Drivers/STM32U5xx_HAL_Driver/Src/stm32u5xx_ll_usb.c ****     {
 605              		.loc 1 515 8 view .LVU164
 606 000e 0E4B     		ldr	r3, .L47
 607 0010 9A42     		cmp	r2, r3
 608 0012 13D8     		bhi	.L44
 519:Drivers/STM32U5xx_HAL_Driver/Src/stm32u5xx_ll_usb.c **** 
 609              		.loc 1 519 11 is_stmt 1 view .LVU165
 519:Drivers/STM32U5xx_HAL_Driver/Src/stm32u5xx_ll_usb.c **** 
ARM GAS  /tmp/cc0vokHo.s 			page 39


 610              		.loc 1 519 17 is_stmt 0 view .LVU166
 611 0014 0369     		ldr	r3, [r0, #16]
 519:Drivers/STM32U5xx_HAL_Driver/Src/stm32u5xx_ll_usb.c **** 
 612              		.loc 1 519 3 view .LVU167
 613 0016 002B     		cmp	r3, #0
 614 0018 F5DA     		bge	.L42
 522:Drivers/STM32U5xx_HAL_Driver/Src/stm32u5xx_ll_usb.c ****   USBx->GRSTCTL = USB_OTG_GRSTCTL_RXFFLSH;
 615              		.loc 1 522 3 is_stmt 1 view .LVU168
 522:Drivers/STM32U5xx_HAL_Driver/Src/stm32u5xx_ll_usb.c ****   USBx->GRSTCTL = USB_OTG_GRSTCTL_RXFFLSH;
 616              		.loc 1 522 9 is_stmt 0 view .LVU169
 617 001a 0023     		movs	r3, #0
 618 001c 0193     		str	r3, [sp, #4]
 523:Drivers/STM32U5xx_HAL_Driver/Src/stm32u5xx_ll_usb.c **** 
 619              		.loc 1 523 3 is_stmt 1 view .LVU170
 523:Drivers/STM32U5xx_HAL_Driver/Src/stm32u5xx_ll_usb.c **** 
 620              		.loc 1 523 17 is_stmt 0 view .LVU171
 621 001e 1023     		movs	r3, #16
 622 0020 0361     		str	r3, [r0, #16]
 623              	.L43:
 525:Drivers/STM32U5xx_HAL_Driver/Src/stm32u5xx_ll_usb.c ****   {
 624              		.loc 1 525 3 is_stmt 1 view .LVU172
 527:Drivers/STM32U5xx_HAL_Driver/Src/stm32u5xx_ll_usb.c **** 
 625              		.loc 1 527 5 view .LVU173
 527:Drivers/STM32U5xx_HAL_Driver/Src/stm32u5xx_ll_usb.c **** 
 626              		.loc 1 527 10 is_stmt 0 view .LVU174
 627 0022 019B     		ldr	r3, [sp, #4]
 628 0024 0133     		adds	r3, r3, #1
 629 0026 0193     		str	r3, [sp, #4]
 529:Drivers/STM32U5xx_HAL_Driver/Src/stm32u5xx_ll_usb.c ****     {
 630              		.loc 1 529 5 is_stmt 1 view .LVU175
 529:Drivers/STM32U5xx_HAL_Driver/Src/stm32u5xx_ll_usb.c ****     {
 631              		.loc 1 529 15 is_stmt 0 view .LVU176
 632 0028 019A     		ldr	r2, [sp, #4]
 529:Drivers/STM32U5xx_HAL_Driver/Src/stm32u5xx_ll_usb.c ****     {
 633              		.loc 1 529 8 view .LVU177
 634 002a 074B     		ldr	r3, .L47
 635 002c 9A42     		cmp	r2, r3
 636 002e 08D8     		bhi	.L45
 533:Drivers/STM32U5xx_HAL_Driver/Src/stm32u5xx_ll_usb.c **** 
 637              		.loc 1 533 11 is_stmt 1 view .LVU178
 533:Drivers/STM32U5xx_HAL_Driver/Src/stm32u5xx_ll_usb.c **** 
 638              		.loc 1 533 17 is_stmt 0 view .LVU179
 639 0030 0369     		ldr	r3, [r0, #16]
 533:Drivers/STM32U5xx_HAL_Driver/Src/stm32u5xx_ll_usb.c **** 
 640              		.loc 1 533 3 view .LVU180
 641 0032 13F0100F 		tst	r3, #16
 642 0036 F4D1     		bne	.L43
 535:Drivers/STM32U5xx_HAL_Driver/Src/stm32u5xx_ll_usb.c **** }
 643              		.loc 1 535 10 view .LVU181
 644 0038 0020     		movs	r0, #0
 645              	.LVL46:
 535:Drivers/STM32U5xx_HAL_Driver/Src/stm32u5xx_ll_usb.c **** }
 646              		.loc 1 535 10 view .LVU182
 647 003a 00E0     		b	.L41
 648              	.LVL47:
 649              	.L44:
 517:Drivers/STM32U5xx_HAL_Driver/Src/stm32u5xx_ll_usb.c ****     }
ARM GAS  /tmp/cc0vokHo.s 			page 40


 650              		.loc 1 517 14 view .LVU183
 651 003c 0320     		movs	r0, #3
 652              	.LVL48:
 653              	.L41:
 536:Drivers/STM32U5xx_HAL_Driver/Src/stm32u5xx_ll_usb.c **** 
 654              		.loc 1 536 1 view .LVU184
 655 003e 02B0     		add	sp, sp, #8
 656              	.LCFI12:
 657              		.cfi_remember_state
 658              		.cfi_def_cfa_offset 0
 659              		@ sp needed
 660 0040 7047     		bx	lr
 661              	.LVL49:
 662              	.L45:
 663              	.LCFI13:
 664              		.cfi_restore_state
 531:Drivers/STM32U5xx_HAL_Driver/Src/stm32u5xx_ll_usb.c ****     }
 665              		.loc 1 531 14 view .LVU185
 666 0042 0320     		movs	r0, #3
 667              	.LVL50:
 531:Drivers/STM32U5xx_HAL_Driver/Src/stm32u5xx_ll_usb.c ****     }
 668              		.loc 1 531 14 view .LVU186
 669 0044 FBE7     		b	.L41
 670              	.L48:
 671 0046 00BF     		.align	2
 672              	.L47:
 673 0048 400D0300 		.word	200000
 674              		.cfi_endproc
 675              	.LFE352:
 677              		.section	.text.USB_SetDevSpeed,"ax",%progbits
 678              		.align	1
 679              		.global	USB_SetDevSpeed
 680              		.syntax unified
 681              		.thumb
 682              		.thumb_func
 684              	USB_SetDevSpeed:
 685              	.LVL51:
 686              	.LFB353:
 550:Drivers/STM32U5xx_HAL_Driver/Src/stm32u5xx_ll_usb.c ****   uint32_t USBx_BASE = (uint32_t)USBx;
 687              		.loc 1 550 1 is_stmt 1 view -0
 688              		.cfi_startproc
 689              		@ args = 0, pretend = 0, frame = 0
 690              		@ frame_needed = 0, uses_anonymous_args = 0
 691              		@ link register save eliminated.
 551:Drivers/STM32U5xx_HAL_Driver/Src/stm32u5xx_ll_usb.c **** 
 692              		.loc 1 551 3 view .LVU188
 553:Drivers/STM32U5xx_HAL_Driver/Src/stm32u5xx_ll_usb.c ****   return HAL_OK;
 693              		.loc 1 553 3 view .LVU189
 553:Drivers/STM32U5xx_HAL_Driver/Src/stm32u5xx_ll_usb.c ****   return HAL_OK;
 694              		.loc 1 553 21 is_stmt 0 view .LVU190
 695 0000 D0F80038 		ldr	r3, [r0, #2048]
 696 0004 1943     		orrs	r1, r1, r3
 697              	.LVL52:
 553:Drivers/STM32U5xx_HAL_Driver/Src/stm32u5xx_ll_usb.c ****   return HAL_OK;
 698              		.loc 1 553 21 view .LVU191
 699 0006 C0F80018 		str	r1, [r0, #2048]
 554:Drivers/STM32U5xx_HAL_Driver/Src/stm32u5xx_ll_usb.c **** }
ARM GAS  /tmp/cc0vokHo.s 			page 41


 700              		.loc 1 554 3 is_stmt 1 view .LVU192
 555:Drivers/STM32U5xx_HAL_Driver/Src/stm32u5xx_ll_usb.c **** 
 701              		.loc 1 555 1 is_stmt 0 view .LVU193
 702 000a 0020     		movs	r0, #0
 703              	.LVL53:
 555:Drivers/STM32U5xx_HAL_Driver/Src/stm32u5xx_ll_usb.c **** 
 704              		.loc 1 555 1 view .LVU194
 705 000c 7047     		bx	lr
 706              		.cfi_endproc
 707              	.LFE353:
 709              		.section	.text.USB_DevInit,"ax",%progbits
 710              		.align	1
 711              		.global	USB_DevInit
 712              		.syntax unified
 713              		.thumb
 714              		.thumb_func
 716              	USB_DevInit:
 717              	.LVL54:
 718              	.LFB350:
 292:Drivers/STM32U5xx_HAL_Driver/Src/stm32u5xx_ll_usb.c ****   HAL_StatusTypeDef ret = HAL_OK;
 719              		.loc 1 292 1 is_stmt 1 view -0
 720              		.cfi_startproc
 721              		@ args = 56, pretend = 16, frame = 0
 722              		@ frame_needed = 0, uses_anonymous_args = 0
 292:Drivers/STM32U5xx_HAL_Driver/Src/stm32u5xx_ll_usb.c ****   HAL_StatusTypeDef ret = HAL_OK;
 723              		.loc 1 292 1 is_stmt 0 view .LVU196
 724 0000 84B0     		sub	sp, sp, #16
 725              	.LCFI14:
 726              		.cfi_def_cfa_offset 16
 727 0002 F8B5     		push	{r3, r4, r5, r6, r7, lr}
 728              	.LCFI15:
 729              		.cfi_def_cfa_offset 40
 730              		.cfi_offset 3, -40
 731              		.cfi_offset 4, -36
 732              		.cfi_offset 5, -32
 733              		.cfi_offset 6, -28
 734              		.cfi_offset 7, -24
 735              		.cfi_offset 14, -20
 736 0004 0446     		mov	r4, r0
 737 0006 07A8     		add	r0, sp, #28
 738 0008 80E80E00 		stm	r0, {r1, r2, r3}
 293:Drivers/STM32U5xx_HAL_Driver/Src/stm32u5xx_ll_usb.c ****   uint32_t USBx_BASE = (uint32_t)USBx;
 739              		.loc 1 293 3 is_stmt 1 view .LVU197
 740              	.LVL55:
 294:Drivers/STM32U5xx_HAL_Driver/Src/stm32u5xx_ll_usb.c ****   uint32_t i;
 741              		.loc 1 294 3 view .LVU198
 295:Drivers/STM32U5xx_HAL_Driver/Src/stm32u5xx_ll_usb.c **** 
 742              		.loc 1 295 3 view .LVU199
 297:Drivers/STM32U5xx_HAL_Driver/Src/stm32u5xx_ll_usb.c ****   {
 743              		.loc 1 297 3 view .LVU200
 297:Drivers/STM32U5xx_HAL_Driver/Src/stm32u5xx_ll_usb.c ****   {
 744              		.loc 1 297 10 is_stmt 0 view .LVU201
 745 000c 0023     		movs	r3, #0
 297:Drivers/STM32U5xx_HAL_Driver/Src/stm32u5xx_ll_usb.c ****   {
 746              		.loc 1 297 3 view .LVU202
 747 000e 06E0     		b	.L51
 748              	.LVL56:
ARM GAS  /tmp/cc0vokHo.s 			page 42


 749              	.L52:
 299:Drivers/STM32U5xx_HAL_Driver/Src/stm32u5xx_ll_usb.c ****   }
 750              		.loc 1 299 5 is_stmt 1 discriminator 3 view .LVU203
 299:Drivers/STM32U5xx_HAL_Driver/Src/stm32u5xx_ll_usb.c ****   }
 751              		.loc 1 299 22 is_stmt 0 discriminator 3 view .LVU204
 752 0010 03F14002 		add	r2, r3, #64
 753 0014 04EB8202 		add	r2, r4, r2, lsl #2
 754 0018 0021     		movs	r1, #0
 755 001a 5160     		str	r1, [r2, #4]
 297:Drivers/STM32U5xx_HAL_Driver/Src/stm32u5xx_ll_usb.c ****   {
 756              		.loc 1 297 25 is_stmt 1 discriminator 3 view .LVU205
 297:Drivers/STM32U5xx_HAL_Driver/Src/stm32u5xx_ll_usb.c ****   {
 757              		.loc 1 297 26 is_stmt 0 discriminator 3 view .LVU206
 758 001c 0133     		adds	r3, r3, #1
 759              	.LVL57:
 760              	.L51:
 297:Drivers/STM32U5xx_HAL_Driver/Src/stm32u5xx_ll_usb.c ****   {
 761              		.loc 1 297 16 is_stmt 1 discriminator 1 view .LVU207
 297:Drivers/STM32U5xx_HAL_Driver/Src/stm32u5xx_ll_usb.c ****   {
 762              		.loc 1 297 3 is_stmt 0 discriminator 1 view .LVU208
 763 001e 0E2B     		cmp	r3, #14
 764 0020 F6D9     		bls	.L52
 310:Drivers/STM32U5xx_HAL_Driver/Src/stm32u5xx_ll_usb.c ****   {
 765              		.loc 1 310 3 is_stmt 1 view .LVU209
 310:Drivers/STM32U5xx_HAL_Driver/Src/stm32u5xx_ll_usb.c ****   {
 766              		.loc 1 310 10 is_stmt 0 view .LVU210
 767 0022 119E     		ldr	r6, [sp, #68]
 310:Drivers/STM32U5xx_HAL_Driver/Src/stm32u5xx_ll_usb.c ****   {
 768              		.loc 1 310 6 view .LVU211
 769 0024 76BB     		cbnz	r6, .L53
 312:Drivers/STM32U5xx_HAL_Driver/Src/stm32u5xx_ll_usb.c **** 
 770              		.loc 1 312 5 is_stmt 1 view .LVU212
 312:Drivers/STM32U5xx_HAL_Driver/Src/stm32u5xx_ll_usb.c **** 
 771              		.loc 1 312 23 is_stmt 0 view .LVU213
 772 0026 D4F80438 		ldr	r3, [r4, #2052]
 773              	.LVL58:
 312:Drivers/STM32U5xx_HAL_Driver/Src/stm32u5xx_ll_usb.c **** 
 774              		.loc 1 312 23 view .LVU214
 775 002a 43F00203 		orr	r3, r3, #2
 776 002e C4F80438 		str	r3, [r4, #2052]
 315:Drivers/STM32U5xx_HAL_Driver/Src/stm32u5xx_ll_usb.c **** 
 777              		.loc 1 315 5 is_stmt 1 view .LVU215
 315:Drivers/STM32U5xx_HAL_Driver/Src/stm32u5xx_ll_usb.c **** 
 778              		.loc 1 315 17 is_stmt 0 view .LVU216
 779 0032 A36B     		ldr	r3, [r4, #56]
 780 0034 23F40013 		bic	r3, r3, #2097152
 781 0038 A363     		str	r3, [r4, #56]
 323:Drivers/STM32U5xx_HAL_Driver/Src/stm32u5xx_ll_usb.c ****     USBx->GOTGCTL |= USB_OTG_GOTGCTL_BVALOVAL;
 782              		.loc 1 323 5 is_stmt 1 view .LVU217
 323:Drivers/STM32U5xx_HAL_Driver/Src/stm32u5xx_ll_usb.c ****     USBx->GOTGCTL |= USB_OTG_GOTGCTL_BVALOVAL;
 783              		.loc 1 323 19 is_stmt 0 view .LVU218
 784 003a 2368     		ldr	r3, [r4]
 785 003c 43F04003 		orr	r3, r3, #64
 786 0040 2360     		str	r3, [r4]
 324:Drivers/STM32U5xx_HAL_Driver/Src/stm32u5xx_ll_usb.c **** #endif /* defined (STM32U595xx) || defined (STM32U5A5xx) || defined (STM32U599xx) || defined (STM32
 787              		.loc 1 324 5 is_stmt 1 view .LVU219
 324:Drivers/STM32U5xx_HAL_Driver/Src/stm32u5xx_ll_usb.c **** #endif /* defined (STM32U595xx) || defined (STM32U5A5xx) || defined (STM32U599xx) || defined (STM32
ARM GAS  /tmp/cc0vokHo.s 			page 43


 788              		.loc 1 324 19 is_stmt 0 view .LVU220
 789 0042 2368     		ldr	r3, [r4]
 790 0044 43F08003 		orr	r3, r3, #128
 791 0048 2360     		str	r3, [r4]
 792              	.L54:
 343:Drivers/STM32U5xx_HAL_Driver/Src/stm32u5xx_ll_usb.c **** 
 793              		.loc 1 343 3 is_stmt 1 view .LVU221
 343:Drivers/STM32U5xx_HAL_Driver/Src/stm32u5xx_ll_usb.c **** 
 794              		.loc 1 343 16 is_stmt 0 view .LVU222
 795 004a 0023     		movs	r3, #0
 796 004c C4F8003E 		str	r3, [r4, #3584]
 365:Drivers/STM32U5xx_HAL_Driver/Src/stm32u5xx_ll_usb.c ****   }
 797              		.loc 1 365 5 is_stmt 1 view .LVU223
 365:Drivers/STM32U5xx_HAL_Driver/Src/stm32u5xx_ll_usb.c ****   }
 798              		.loc 1 365 11 is_stmt 0 view .LVU224
 799 0050 0321     		movs	r1, #3
 800 0052 2046     		mov	r0, r4
 801              	.LVL59:
 365:Drivers/STM32U5xx_HAL_Driver/Src/stm32u5xx_ll_usb.c ****   }
 802              		.loc 1 365 11 view .LVU225
 803 0054 FFF7FEFF 		bl	USB_SetDevSpeed
 804              	.LVL60:
 369:Drivers/STM32U5xx_HAL_Driver/Src/stm32u5xx_ll_usb.c ****   {
 805              		.loc 1 369 3 is_stmt 1 view .LVU226
 369:Drivers/STM32U5xx_HAL_Driver/Src/stm32u5xx_ll_usb.c ****   {
 806              		.loc 1 369 7 is_stmt 0 view .LVU227
 807 0058 1021     		movs	r1, #16
 808 005a 2046     		mov	r0, r4
 809 005c FFF7FEFF 		bl	USB_FlushTxFifo
 810              	.LVL61:
 369:Drivers/STM32U5xx_HAL_Driver/Src/stm32u5xx_ll_usb.c ****   {
 811              		.loc 1 369 6 view .LVU228
 812 0060 0546     		mov	r5, r0
 813 0062 00B1     		cbz	r0, .L55
 371:Drivers/STM32U5xx_HAL_Driver/Src/stm32u5xx_ll_usb.c ****   }
 814              		.loc 1 371 9 view .LVU229
 815 0064 0125     		movs	r5, #1
 816              	.L55:
 817              	.LVL62:
 374:Drivers/STM32U5xx_HAL_Driver/Src/stm32u5xx_ll_usb.c ****   {
 818              		.loc 1 374 3 is_stmt 1 view .LVU230
 374:Drivers/STM32U5xx_HAL_Driver/Src/stm32u5xx_ll_usb.c ****   {
 819              		.loc 1 374 7 is_stmt 0 view .LVU231
 820 0066 2046     		mov	r0, r4
 821 0068 FFF7FEFF 		bl	USB_FlushRxFifo
 822              	.LVL63:
 374:Drivers/STM32U5xx_HAL_Driver/Src/stm32u5xx_ll_usb.c ****   {
 823              		.loc 1 374 6 view .LVU232
 824 006c 00B1     		cbz	r0, .L56
 376:Drivers/STM32U5xx_HAL_Driver/Src/stm32u5xx_ll_usb.c ****   }
 825              		.loc 1 376 9 view .LVU233
 826 006e 0125     		movs	r5, #1
 827              	.LVL64:
 828              	.L56:
 380:Drivers/STM32U5xx_HAL_Driver/Src/stm32u5xx_ll_usb.c ****   USBx_DEVICE->DOEPMSK = 0U;
 829              		.loc 1 380 3 is_stmt 1 view .LVU234
 830 0070 04F5006C 		add	ip, r4, #2048
ARM GAS  /tmp/cc0vokHo.s 			page 44


 380:Drivers/STM32U5xx_HAL_Driver/Src/stm32u5xx_ll_usb.c ****   USBx_DEVICE->DOEPMSK = 0U;
 831              		.loc 1 380 24 is_stmt 0 view .LVU235
 832 0074 0023     		movs	r3, #0
 833 0076 CCF81030 		str	r3, [ip, #16]
 381:Drivers/STM32U5xx_HAL_Driver/Src/stm32u5xx_ll_usb.c ****   USBx_DEVICE->DAINTMSK = 0U;
 834              		.loc 1 381 3 is_stmt 1 view .LVU236
 381:Drivers/STM32U5xx_HAL_Driver/Src/stm32u5xx_ll_usb.c ****   USBx_DEVICE->DAINTMSK = 0U;
 835              		.loc 1 381 24 is_stmt 0 view .LVU237
 836 007a CCF81430 		str	r3, [ip, #20]
 382:Drivers/STM32U5xx_HAL_Driver/Src/stm32u5xx_ll_usb.c **** 
 837              		.loc 1 382 3 is_stmt 1 view .LVU238
 382:Drivers/STM32U5xx_HAL_Driver/Src/stm32u5xx_ll_usb.c **** 
 838              		.loc 1 382 25 is_stmt 0 view .LVU239
 839 007e CCF81C30 		str	r3, [ip, #28]
 384:Drivers/STM32U5xx_HAL_Driver/Src/stm32u5xx_ll_usb.c ****   {
 840              		.loc 1 384 3 is_stmt 1 view .LVU240
 841              	.LVL65:
 384:Drivers/STM32U5xx_HAL_Driver/Src/stm32u5xx_ll_usb.c ****   {
 842              		.loc 1 384 3 is_stmt 0 view .LVU241
 843 0082 0FE0     		b	.L57
 844              	.LVL66:
 845              	.L53:
 339:Drivers/STM32U5xx_HAL_Driver/Src/stm32u5xx_ll_usb.c ****   }
 846              		.loc 1 339 5 is_stmt 1 view .LVU242
 339:Drivers/STM32U5xx_HAL_Driver/Src/stm32u5xx_ll_usb.c ****   }
 847              		.loc 1 339 17 is_stmt 0 view .LVU243
 848 0084 A36B     		ldr	r3, [r4, #56]
 849              	.LVL67:
 339:Drivers/STM32U5xx_HAL_Driver/Src/stm32u5xx_ll_usb.c ****   }
 850              		.loc 1 339 17 view .LVU244
 851 0086 43F40013 		orr	r3, r3, #2097152
 852 008a A363     		str	r3, [r4, #56]
 853 008c DDE7     		b	.L54
 854              	.LVL68:
 855              	.L74:
 388:Drivers/STM32U5xx_HAL_Driver/Src/stm32u5xx_ll_usb.c ****       {
 856              		.loc 1 388 7 is_stmt 1 view .LVU245
 388:Drivers/STM32U5xx_HAL_Driver/Src/stm32u5xx_ll_usb.c ****       {
 857              		.loc 1 388 10 is_stmt 0 view .LVU246
 858 008e C3B9     		cbnz	r3, .L59
 390:Drivers/STM32U5xx_HAL_Driver/Src/stm32u5xx_ll_usb.c ****       }
 859              		.loc 1 390 9 is_stmt 1 view .LVU247
 390:Drivers/STM32U5xx_HAL_Driver/Src/stm32u5xx_ll_usb.c ****       }
 860              		.loc 1 390 31 is_stmt 0 view .LVU248
 861 0090 4FF00060 		mov	r0, #134217728
 862 0094 C2F80009 		str	r0, [r2, #2304]
 863              	.L60:
 402:Drivers/STM32U5xx_HAL_Driver/Src/stm32u5xx_ll_usb.c ****     USBx_INEP(i)->DIEPINT  = 0xFB7FU;
 864              		.loc 1 402 5 is_stmt 1 discriminator 2 view .LVU249
 402:Drivers/STM32U5xx_HAL_Driver/Src/stm32u5xx_ll_usb.c ****     USBx_INEP(i)->DIEPINT  = 0xFB7FU;
 865              		.loc 1 402 28 is_stmt 0 discriminator 2 view .LVU250
 866 0098 0022     		movs	r2, #0
 867 009a 0A61     		str	r2, [r1, #16]
 403:Drivers/STM32U5xx_HAL_Driver/Src/stm32u5xx_ll_usb.c ****   }
 868              		.loc 1 403 5 is_stmt 1 discriminator 2 view .LVU251
 403:Drivers/STM32U5xx_HAL_Driver/Src/stm32u5xx_ll_usb.c ****   }
 869              		.loc 1 403 28 is_stmt 0 discriminator 2 view .LVU252
ARM GAS  /tmp/cc0vokHo.s 			page 45


 870 009c 4FF67F32 		movw	r2, #64383
 871 00a0 8A60     		str	r2, [r1, #8]
 384:Drivers/STM32U5xx_HAL_Driver/Src/stm32u5xx_ll_usb.c ****   {
 872              		.loc 1 384 39 is_stmt 1 discriminator 2 view .LVU253
 384:Drivers/STM32U5xx_HAL_Driver/Src/stm32u5xx_ll_usb.c ****   {
 873              		.loc 1 384 40 is_stmt 0 discriminator 2 view .LVU254
 874 00a2 0133     		adds	r3, r3, #1
 875              	.LVL69:
 876              	.L57:
 384:Drivers/STM32U5xx_HAL_Driver/Src/stm32u5xx_ll_usb.c ****   {
 877              		.loc 1 384 16 is_stmt 1 discriminator 1 view .LVU255
 384:Drivers/STM32U5xx_HAL_Driver/Src/stm32u5xx_ll_usb.c ****   {
 878              		.loc 1 384 23 is_stmt 0 discriminator 1 view .LVU256
 879 00a4 0799     		ldr	r1, [sp, #28]
 384:Drivers/STM32U5xx_HAL_Driver/Src/stm32u5xx_ll_usb.c ****   {
 880              		.loc 1 384 3 discriminator 1 view .LVU257
 881 00a6 9942     		cmp	r1, r3
 882 00a8 10D9     		bls	.L73
 386:Drivers/STM32U5xx_HAL_Driver/Src/stm32u5xx_ll_usb.c ****     {
 883              		.loc 1 386 5 is_stmt 1 view .LVU258
 386:Drivers/STM32U5xx_HAL_Driver/Src/stm32u5xx_ll_usb.c ****     {
 884              		.loc 1 386 10 is_stmt 0 view .LVU259
 885 00aa 04EB4312 		add	r2, r4, r3, lsl #5
 886 00ae 02F51061 		add	r1, r2, #2304
 386:Drivers/STM32U5xx_HAL_Driver/Src/stm32u5xx_ll_usb.c ****     {
 887              		.loc 1 386 22 view .LVU260
 888 00b2 D2F80009 		ldr	r0, [r2, #2304]
 386:Drivers/STM32U5xx_HAL_Driver/Src/stm32u5xx_ll_usb.c ****     {
 889              		.loc 1 386 8 view .LVU261
 890 00b6 0028     		cmp	r0, #0
 891 00b8 E9DB     		blt	.L74
 399:Drivers/STM32U5xx_HAL_Driver/Src/stm32u5xx_ll_usb.c ****     }
 892              		.loc 1 399 7 is_stmt 1 view .LVU262
 399:Drivers/STM32U5xx_HAL_Driver/Src/stm32u5xx_ll_usb.c ****     }
 893              		.loc 1 399 29 is_stmt 0 view .LVU263
 894 00ba 0020     		movs	r0, #0
 895 00bc C2F80009 		str	r0, [r2, #2304]
 896 00c0 EAE7     		b	.L60
 897              	.L59:
 394:Drivers/STM32U5xx_HAL_Driver/Src/stm32u5xx_ll_usb.c ****       }
 898              		.loc 1 394 9 is_stmt 1 view .LVU264
 394:Drivers/STM32U5xx_HAL_Driver/Src/stm32u5xx_ll_usb.c ****       }
 899              		.loc 1 394 31 is_stmt 0 view .LVU265
 900 00c2 4FF09040 		mov	r0, #1207959552
 901 00c6 C2F80009 		str	r0, [r2, #2304]
 902 00ca E5E7     		b	.L60
 903              	.L73:
 406:Drivers/STM32U5xx_HAL_Driver/Src/stm32u5xx_ll_usb.c ****   {
 904              		.loc 1 406 10 view .LVU266
 905 00cc 0023     		movs	r3, #0
 906              	.LVL70:
 406:Drivers/STM32U5xx_HAL_Driver/Src/stm32u5xx_ll_usb.c ****   {
 907              		.loc 1 406 10 view .LVU267
 908 00ce 0AE0     		b	.L62
 909              	.LVL71:
 910              	.L77:
 410:Drivers/STM32U5xx_HAL_Driver/Src/stm32u5xx_ll_usb.c ****       {
ARM GAS  /tmp/cc0vokHo.s 			page 46


 911              		.loc 1 410 7 is_stmt 1 view .LVU268
 410:Drivers/STM32U5xx_HAL_Driver/Src/stm32u5xx_ll_usb.c ****       {
 912              		.loc 1 410 10 is_stmt 0 view .LVU269
 913 00d0 BBB1     		cbz	r3, .L75
 416:Drivers/STM32U5xx_HAL_Driver/Src/stm32u5xx_ll_usb.c ****       }
 914              		.loc 1 416 9 is_stmt 1 view .LVU270
 416:Drivers/STM32U5xx_HAL_Driver/Src/stm32u5xx_ll_usb.c ****       }
 915              		.loc 1 416 32 is_stmt 0 view .LVU271
 916 00d2 4FF09047 		mov	r7, #1207959552
 917 00d6 C2F8007B 		str	r7, [r2, #2816]
 918              	.L65:
 424:Drivers/STM32U5xx_HAL_Driver/Src/stm32u5xx_ll_usb.c ****     USBx_OUTEP(i)->DOEPINT  = 0xFB7FU;
 919              		.loc 1 424 5 is_stmt 1 discriminator 2 view .LVU272
 424:Drivers/STM32U5xx_HAL_Driver/Src/stm32u5xx_ll_usb.c ****     USBx_OUTEP(i)->DOEPINT  = 0xFB7FU;
 920              		.loc 1 424 29 is_stmt 0 discriminator 2 view .LVU273
 921 00da 0022     		movs	r2, #0
 922 00dc 0261     		str	r2, [r0, #16]
 425:Drivers/STM32U5xx_HAL_Driver/Src/stm32u5xx_ll_usb.c ****   }
 923              		.loc 1 425 5 is_stmt 1 discriminator 2 view .LVU274
 425:Drivers/STM32U5xx_HAL_Driver/Src/stm32u5xx_ll_usb.c ****   }
 924              		.loc 1 425 29 is_stmt 0 discriminator 2 view .LVU275
 925 00de 4FF67F32 		movw	r2, #64383
 926 00e2 8260     		str	r2, [r0, #8]
 406:Drivers/STM32U5xx_HAL_Driver/Src/stm32u5xx_ll_usb.c ****   {
 927              		.loc 1 406 39 is_stmt 1 discriminator 2 view .LVU276
 406:Drivers/STM32U5xx_HAL_Driver/Src/stm32u5xx_ll_usb.c ****   {
 928              		.loc 1 406 40 is_stmt 0 discriminator 2 view .LVU277
 929 00e4 0133     		adds	r3, r3, #1
 930              	.LVL72:
 931              	.L62:
 406:Drivers/STM32U5xx_HAL_Driver/Src/stm32u5xx_ll_usb.c ****   {
 932              		.loc 1 406 16 is_stmt 1 discriminator 1 view .LVU278
 406:Drivers/STM32U5xx_HAL_Driver/Src/stm32u5xx_ll_usb.c ****   {
 933              		.loc 1 406 3 is_stmt 0 discriminator 1 view .LVU279
 934 00e6 9942     		cmp	r1, r3
 935 00e8 10D9     		bls	.L76
 408:Drivers/STM32U5xx_HAL_Driver/Src/stm32u5xx_ll_usb.c ****     {
 936              		.loc 1 408 5 is_stmt 1 view .LVU280
 408:Drivers/STM32U5xx_HAL_Driver/Src/stm32u5xx_ll_usb.c ****     {
 937              		.loc 1 408 10 is_stmt 0 view .LVU281
 938 00ea 04EB4312 		add	r2, r4, r3, lsl #5
 939 00ee 02F53060 		add	r0, r2, #2816
 408:Drivers/STM32U5xx_HAL_Driver/Src/stm32u5xx_ll_usb.c ****     {
 940              		.loc 1 408 23 view .LVU282
 941 00f2 D2F8007B 		ldr	r7, [r2, #2816]
 408:Drivers/STM32U5xx_HAL_Driver/Src/stm32u5xx_ll_usb.c ****     {
 942              		.loc 1 408 8 view .LVU283
 943 00f6 002F     		cmp	r7, #0
 944 00f8 EADB     		blt	.L77
 421:Drivers/STM32U5xx_HAL_Driver/Src/stm32u5xx_ll_usb.c ****     }
 945              		.loc 1 421 7 is_stmt 1 view .LVU284
 421:Drivers/STM32U5xx_HAL_Driver/Src/stm32u5xx_ll_usb.c ****     }
 946              		.loc 1 421 30 is_stmt 0 view .LVU285
 947 00fa 0027     		movs	r7, #0
 948 00fc C2F8007B 		str	r7, [r2, #2816]
 949 0100 EBE7     		b	.L65
 950              	.L75:
ARM GAS  /tmp/cc0vokHo.s 			page 47


 412:Drivers/STM32U5xx_HAL_Driver/Src/stm32u5xx_ll_usb.c ****       }
 951              		.loc 1 412 9 is_stmt 1 view .LVU286
 412:Drivers/STM32U5xx_HAL_Driver/Src/stm32u5xx_ll_usb.c ****       }
 952              		.loc 1 412 32 is_stmt 0 view .LVU287
 953 0102 4FF00067 		mov	r7, #134217728
 954 0106 C2F8007B 		str	r7, [r2, #2816]
 955 010a E6E7     		b	.L65
 956              	.L76:
 428:Drivers/STM32U5xx_HAL_Driver/Src/stm32u5xx_ll_usb.c **** 
 957              		.loc 1 428 3 is_stmt 1 view .LVU288
 428:Drivers/STM32U5xx_HAL_Driver/Src/stm32u5xx_ll_usb.c **** 
 958              		.loc 1 428 24 is_stmt 0 view .LVU289
 959 010c DCF81030 		ldr	r3, [ip, #16]
 960              	.LVL73:
 428:Drivers/STM32U5xx_HAL_Driver/Src/stm32u5xx_ll_usb.c **** 
 961              		.loc 1 428 24 view .LVU290
 962 0110 23F48073 		bic	r3, r3, #256
 963 0114 CCF81030 		str	r3, [ip, #16]
 431:Drivers/STM32U5xx_HAL_Driver/Src/stm32u5xx_ll_usb.c **** 
 964              		.loc 1 431 3 is_stmt 1 view .LVU291
 431:Drivers/STM32U5xx_HAL_Driver/Src/stm32u5xx_ll_usb.c **** 
 965              		.loc 1 431 17 is_stmt 0 view .LVU292
 966 0118 0023     		movs	r3, #0
 967 011a A361     		str	r3, [r4, #24]
 434:Drivers/STM32U5xx_HAL_Driver/Src/stm32u5xx_ll_usb.c **** 
 968              		.loc 1 434 3 is_stmt 1 view .LVU293
 434:Drivers/STM32U5xx_HAL_Driver/Src/stm32u5xx_ll_usb.c **** 
 969              		.loc 1 434 17 is_stmt 0 view .LVU294
 970 011c 6FF08043 		mvn	r3, #1073741824
 971 0120 6361     		str	r3, [r4, #20]
 437:Drivers/STM32U5xx_HAL_Driver/Src/stm32u5xx_ll_usb.c ****   {
 972              		.loc 1 437 3 is_stmt 1 view .LVU295
 437:Drivers/STM32U5xx_HAL_Driver/Src/stm32u5xx_ll_usb.c ****   {
 973              		.loc 1 437 10 is_stmt 0 view .LVU296
 974 0122 099B     		ldr	r3, [sp, #36]
 437:Drivers/STM32U5xx_HAL_Driver/Src/stm32u5xx_ll_usb.c ****   {
 975              		.loc 1 437 6 view .LVU297
 976 0124 1BB9     		cbnz	r3, .L67
 439:Drivers/STM32U5xx_HAL_Driver/Src/stm32u5xx_ll_usb.c ****   }
 977              		.loc 1 439 5 is_stmt 1 view .LVU298
 439:Drivers/STM32U5xx_HAL_Driver/Src/stm32u5xx_ll_usb.c ****   }
 978              		.loc 1 439 19 is_stmt 0 view .LVU299
 979 0126 A369     		ldr	r3, [r4, #24]
 980 0128 43F01003 		orr	r3, r3, #16
 981 012c A361     		str	r3, [r4, #24]
 982              	.L67:
 443:Drivers/STM32U5xx_HAL_Driver/Src/stm32u5xx_ll_usb.c ****                    USB_OTG_GINTMSK_ENUMDNEM | USB_OTG_GINTMSK_IEPINT |
 983              		.loc 1 443 3 is_stmt 1 view .LVU300
 443:Drivers/STM32U5xx_HAL_Driver/Src/stm32u5xx_ll_usb.c ****                    USB_OTG_GINTMSK_ENUMDNEM | USB_OTG_GINTMSK_IEPINT |
 984              		.loc 1 443 17 is_stmt 0 view .LVU301
 985 012e A269     		ldr	r2, [r4, #24]
 986 0130 0B4B     		ldr	r3, .L79
 987 0132 1343     		orrs	r3, r3, r2
 988 0134 A361     		str	r3, [r4, #24]
 448:Drivers/STM32U5xx_HAL_Driver/Src/stm32u5xx_ll_usb.c ****   {
 989              		.loc 1 448 3 is_stmt 1 view .LVU302
 448:Drivers/STM32U5xx_HAL_Driver/Src/stm32u5xx_ll_usb.c ****   {
ARM GAS  /tmp/cc0vokHo.s 			page 48


 990              		.loc 1 448 10 is_stmt 0 view .LVU303
 991 0136 0D9B     		ldr	r3, [sp, #52]
 448:Drivers/STM32U5xx_HAL_Driver/Src/stm32u5xx_ll_usb.c ****   {
 992              		.loc 1 448 6 view .LVU304
 993 0138 1BB1     		cbz	r3, .L68
 450:Drivers/STM32U5xx_HAL_Driver/Src/stm32u5xx_ll_usb.c ****   }
 994              		.loc 1 450 5 is_stmt 1 view .LVU305
 450:Drivers/STM32U5xx_HAL_Driver/Src/stm32u5xx_ll_usb.c ****   }
 995              		.loc 1 450 19 is_stmt 0 view .LVU306
 996 013a A369     		ldr	r3, [r4, #24]
 997 013c 43F00803 		orr	r3, r3, #8
 998 0140 A361     		str	r3, [r4, #24]
 999              	.L68:
 453:Drivers/STM32U5xx_HAL_Driver/Src/stm32u5xx_ll_usb.c ****   {
 1000              		.loc 1 453 3 is_stmt 1 view .LVU307
 453:Drivers/STM32U5xx_HAL_Driver/Src/stm32u5xx_ll_usb.c ****   {
 1001              		.loc 1 453 6 is_stmt 0 view .LVU308
 1002 0142 012E     		cmp	r6, #1
 1003 0144 04D0     		beq	.L78
 1004              	.L69:
 458:Drivers/STM32U5xx_HAL_Driver/Src/stm32u5xx_ll_usb.c **** }
 1005              		.loc 1 458 3 is_stmt 1 view .LVU309
 459:Drivers/STM32U5xx_HAL_Driver/Src/stm32u5xx_ll_usb.c **** 
 1006              		.loc 1 459 1 is_stmt 0 view .LVU310
 1007 0146 2846     		mov	r0, r5
 1008 0148 BDE8F840 		pop	{r3, r4, r5, r6, r7, lr}
 1009              	.LCFI16:
 1010              		.cfi_remember_state
 1011              		.cfi_restore 14
 1012              		.cfi_restore 7
 1013              		.cfi_restore 6
 1014              		.cfi_restore 5
 1015              		.cfi_restore 4
 1016              		.cfi_restore 3
 1017              		.cfi_def_cfa_offset 16
 1018              	.LVL74:
 459:Drivers/STM32U5xx_HAL_Driver/Src/stm32u5xx_ll_usb.c **** 
 1019              		.loc 1 459 1 view .LVU311
 1020 014c 04B0     		add	sp, sp, #16
 1021              	.LCFI17:
 1022              		.cfi_def_cfa_offset 0
 1023 014e 7047     		bx	lr
 1024              	.LVL75:
 1025              	.L78:
 1026              	.LCFI18:
 1027              		.cfi_restore_state
 455:Drivers/STM32U5xx_HAL_Driver/Src/stm32u5xx_ll_usb.c ****   }
 1028              		.loc 1 455 5 is_stmt 1 view .LVU312
 455:Drivers/STM32U5xx_HAL_Driver/Src/stm32u5xx_ll_usb.c ****   }
 1029              		.loc 1 455 19 is_stmt 0 view .LVU313
 1030 0150 A369     		ldr	r3, [r4, #24]
 1031 0152 43F08043 		orr	r3, r3, #1073741824
 1032 0156 43F00403 		orr	r3, r3, #4
 1033 015a A361     		str	r3, [r4, #24]
 1034 015c F3E7     		b	.L69
 1035              	.L80:
 1036 015e 00BF     		.align	2
ARM GAS  /tmp/cc0vokHo.s 			page 49


 1037              	.L79:
 1038 0160 00383C80 		.word	-2143537152
 1039              		.cfi_endproc
 1040              	.LFE350:
 1042              		.section	.text.USB_GetDevSpeed,"ax",%progbits
 1043              		.align	1
 1044              		.global	USB_GetDevSpeed
 1045              		.syntax unified
 1046              		.thumb
 1047              		.thumb_func
 1049              	USB_GetDevSpeed:
 1050              	.LVL76:
 1051              	.LFB354:
 566:Drivers/STM32U5xx_HAL_Driver/Src/stm32u5xx_ll_usb.c ****   uint32_t USBx_BASE = (uint32_t)USBx;
 1052              		.loc 1 566 1 is_stmt 1 view -0
 1053              		.cfi_startproc
 1054              		@ args = 0, pretend = 0, frame = 0
 1055              		@ frame_needed = 0, uses_anonymous_args = 0
 1056              		@ link register save eliminated.
 567:Drivers/STM32U5xx_HAL_Driver/Src/stm32u5xx_ll_usb.c ****   uint8_t speed;
 1057              		.loc 1 567 3 view .LVU315
 568:Drivers/STM32U5xx_HAL_Driver/Src/stm32u5xx_ll_usb.c ****   uint32_t DevEnumSpeed = USBx_DEVICE->DSTS & USB_OTG_DSTS_ENUMSPD;
 1058              		.loc 1 568 3 view .LVU316
 569:Drivers/STM32U5xx_HAL_Driver/Src/stm32u5xx_ll_usb.c **** 
 1059              		.loc 1 569 3 view .LVU317
 569:Drivers/STM32U5xx_HAL_Driver/Src/stm32u5xx_ll_usb.c **** 
 1060              		.loc 1 569 38 is_stmt 0 view .LVU318
 1061 0000 D0F80838 		ldr	r3, [r0, #2056]
 1062              	.LVL77:
 571:Drivers/STM32U5xx_HAL_Driver/Src/stm32u5xx_ll_usb.c ****   {
 1063              		.loc 1 571 3 is_stmt 1 view .LVU319
 571:Drivers/STM32U5xx_HAL_Driver/Src/stm32u5xx_ll_usb.c ****   {
 1064              		.loc 1 571 6 is_stmt 0 view .LVU320
 1065 0004 13F00603 		ands	r3, r3, #6
 1066              	.LVL78:
 571:Drivers/STM32U5xx_HAL_Driver/Src/stm32u5xx_ll_usb.c ****   {
 1067              		.loc 1 571 6 view .LVU321
 1068 0008 07D0     		beq	.L83
 575:Drivers/STM32U5xx_HAL_Driver/Src/stm32u5xx_ll_usb.c ****            (DevEnumSpeed == DSTS_ENUMSPD_FS_PHY_48MHZ))
 1069              		.loc 1 575 8 is_stmt 1 view .LVU322
 575:Drivers/STM32U5xx_HAL_Driver/Src/stm32u5xx_ll_usb.c ****            (DevEnumSpeed == DSTS_ENUMSPD_FS_PHY_48MHZ))
 1070              		.loc 1 575 11 is_stmt 0 view .LVU323
 1071 000a 022B     		cmp	r3, #2
 1072 000c 07D0     		beq	.L84
 575:Drivers/STM32U5xx_HAL_Driver/Src/stm32u5xx_ll_usb.c ****            (DevEnumSpeed == DSTS_ENUMSPD_FS_PHY_48MHZ))
 1073              		.loc 1 575 65 discriminator 1 view .LVU324
 1074 000e 062B     		cmp	r3, #6
 1075 0010 01D0     		beq	.L86
 582:Drivers/STM32U5xx_HAL_Driver/Src/stm32u5xx_ll_usb.c ****   }
 1076              		.loc 1 582 11 view .LVU325
 1077 0012 0F20     		movs	r0, #15
 1078              	.LVL79:
 585:Drivers/STM32U5xx_HAL_Driver/Src/stm32u5xx_ll_usb.c **** }
 1079              		.loc 1 585 3 is_stmt 1 view .LVU326
 586:Drivers/STM32U5xx_HAL_Driver/Src/stm32u5xx_ll_usb.c **** 
 1080              		.loc 1 586 1 is_stmt 0 view .LVU327
 1081 0014 7047     		bx	lr
ARM GAS  /tmp/cc0vokHo.s 			page 50


 1082              	.LVL80:
 1083              	.L86:
 578:Drivers/STM32U5xx_HAL_Driver/Src/stm32u5xx_ll_usb.c ****   }
 1084              		.loc 1 578 11 view .LVU328
 1085 0016 0220     		movs	r0, #2
 1086              	.LVL81:
 578:Drivers/STM32U5xx_HAL_Driver/Src/stm32u5xx_ll_usb.c ****   }
 1087              		.loc 1 578 11 view .LVU329
 1088 0018 7047     		bx	lr
 1089              	.LVL82:
 1090              	.L83:
 573:Drivers/STM32U5xx_HAL_Driver/Src/stm32u5xx_ll_usb.c ****   }
 1091              		.loc 1 573 11 view .LVU330
 1092 001a 0020     		movs	r0, #0
 1093              	.LVL83:
 573:Drivers/STM32U5xx_HAL_Driver/Src/stm32u5xx_ll_usb.c ****   }
 1094              		.loc 1 573 11 view .LVU331
 1095 001c 7047     		bx	lr
 1096              	.LVL84:
 1097              	.L84:
 578:Drivers/STM32U5xx_HAL_Driver/Src/stm32u5xx_ll_usb.c ****   }
 1098              		.loc 1 578 11 view .LVU332
 1099 001e 0220     		movs	r0, #2
 1100              	.LVL85:
 578:Drivers/STM32U5xx_HAL_Driver/Src/stm32u5xx_ll_usb.c ****   }
 1101              		.loc 1 578 11 view .LVU333
 1102 0020 7047     		bx	lr
 1103              		.cfi_endproc
 1104              	.LFE354:
 1106              		.section	.text.USB_ActivateEndpoint,"ax",%progbits
 1107              		.align	1
 1108              		.global	USB_ActivateEndpoint
 1109              		.syntax unified
 1110              		.thumb
 1111              		.thumb_func
 1113              	USB_ActivateEndpoint:
 1114              	.LVL86:
 1115              	.LFB355:
 595:Drivers/STM32U5xx_HAL_Driver/Src/stm32u5xx_ll_usb.c ****   uint32_t USBx_BASE = (uint32_t)USBx;
 1116              		.loc 1 595 1 is_stmt 1 view -0
 1117              		.cfi_startproc
 1118              		@ args = 0, pretend = 0, frame = 0
 1119              		@ frame_needed = 0, uses_anonymous_args = 0
 595:Drivers/STM32U5xx_HAL_Driver/Src/stm32u5xx_ll_usb.c ****   uint32_t USBx_BASE = (uint32_t)USBx;
 1120              		.loc 1 595 1 is_stmt 0 view .LVU335
 1121 0000 10B5     		push	{r4, lr}
 1122              	.LCFI19:
 1123              		.cfi_def_cfa_offset 8
 1124              		.cfi_offset 4, -8
 1125              		.cfi_offset 14, -4
 596:Drivers/STM32U5xx_HAL_Driver/Src/stm32u5xx_ll_usb.c ****   uint32_t epnum = (uint32_t)ep->num;
 1126              		.loc 1 596 3 is_stmt 1 view .LVU336
 1127              	.LVL87:
 597:Drivers/STM32U5xx_HAL_Driver/Src/stm32u5xx_ll_usb.c **** 
 1128              		.loc 1 597 3 view .LVU337
 597:Drivers/STM32U5xx_HAL_Driver/Src/stm32u5xx_ll_usb.c **** 
 1129              		.loc 1 597 32 is_stmt 0 view .LVU338
ARM GAS  /tmp/cc0vokHo.s 			page 51


 1130 0002 91F800C0 		ldrb	ip, [r1]	@ zero_extendqisi2
 1131              	.LVL88:
 599:Drivers/STM32U5xx_HAL_Driver/Src/stm32u5xx_ll_usb.c ****   {
 1132              		.loc 1 599 3 is_stmt 1 view .LVU339
 599:Drivers/STM32U5xx_HAL_Driver/Src/stm32u5xx_ll_usb.c ****   {
 1133              		.loc 1 599 9 is_stmt 0 view .LVU340
 1134 0006 4B78     		ldrb	r3, [r1, #1]	@ zero_extendqisi2
 599:Drivers/STM32U5xx_HAL_Driver/Src/stm32u5xx_ll_usb.c ****   {
 1135              		.loc 1 599 6 view .LVU341
 1136 0008 012B     		cmp	r3, #1
 1137 000a 23D0     		beq	.L91
 613:Drivers/STM32U5xx_HAL_Driver/Src/stm32u5xx_ll_usb.c **** 
 1138              		.loc 1 613 5 is_stmt 1 view .LVU342
 613:Drivers/STM32U5xx_HAL_Driver/Src/stm32u5xx_ll_usb.c **** 
 1139              		.loc 1 613 27 is_stmt 0 view .LVU343
 1140 000c 00F5006E 		add	lr, r0, #2048
 1141 0010 D0F81C38 		ldr	r3, [r0, #2076]
 613:Drivers/STM32U5xx_HAL_Driver/Src/stm32u5xx_ll_usb.c **** 
 1142              		.loc 1 613 82 view .LVU344
 1143 0014 0CF00F04 		and	r4, ip, #15
 613:Drivers/STM32U5xx_HAL_Driver/Src/stm32u5xx_ll_usb.c **** 
 1144              		.loc 1 613 55 view .LVU345
 1145 0018 0122     		movs	r2, #1
 1146 001a A240     		lsls	r2, r2, r4
 613:Drivers/STM32U5xx_HAL_Driver/Src/stm32u5xx_ll_usb.c **** 
 1147              		.loc 1 613 27 view .LVU346
 1148 001c 43EA0243 		orr	r3, r3, r2, lsl #16
 1149 0020 C0F81C38 		str	r3, [r0, #2076]
 615:Drivers/STM32U5xx_HAL_Driver/Src/stm32u5xx_ll_usb.c ****     {
 1150              		.loc 1 615 5 is_stmt 1 view .LVU347
 615:Drivers/STM32U5xx_HAL_Driver/Src/stm32u5xx_ll_usb.c ****     {
 1151              		.loc 1 615 11 is_stmt 0 view .LVU348
 1152 0024 00EB4C10 		add	r0, r0, ip, lsl #5
 1153              	.LVL89:
 615:Drivers/STM32U5xx_HAL_Driver/Src/stm32u5xx_ll_usb.c ****     {
 1154              		.loc 1 615 28 view .LVU349
 1155 0028 D0F8003B 		ldr	r3, [r0, #2816]
 615:Drivers/STM32U5xx_HAL_Driver/Src/stm32u5xx_ll_usb.c ****     {
 1156              		.loc 1 615 8 view .LVU350
 1157 002c 13F4004F 		tst	r3, #32768
 1158 0030 0ED1     		bne	.L89
 617:Drivers/STM32U5xx_HAL_Driver/Src/stm32u5xx_ll_usb.c ****                                     ((uint32_t)ep->type << 18) |
 1159              		.loc 1 617 7 is_stmt 1 view .LVU351
 617:Drivers/STM32U5xx_HAL_Driver/Src/stm32u5xx_ll_usb.c ****                                     ((uint32_t)ep->type << 18) |
 1160              		.loc 1 617 34 is_stmt 0 view .LVU352
 1161 0032 D0F8003B 		ldr	r3, [r0, #2816]
 617:Drivers/STM32U5xx_HAL_Driver/Src/stm32u5xx_ll_usb.c ****                                     ((uint32_t)ep->type << 18) |
 1162              		.loc 1 617 40 view .LVU353
 1163 0036 8A68     		ldr	r2, [r1, #8]
 617:Drivers/STM32U5xx_HAL_Driver/Src/stm32u5xx_ll_usb.c ****                                     ((uint32_t)ep->type << 18) |
 1164              		.loc 1 617 52 view .LVU354
 1165 0038 C2F30A02 		ubfx	r2, r2, #0, #11
 618:Drivers/STM32U5xx_HAL_Driver/Src/stm32u5xx_ll_usb.c ****                                     USB_OTG_DIEPCTL_SD0PID_SEVNFRM |
 1166              		.loc 1 618 50 view .LVU355
 1167 003c 0979     		ldrb	r1, [r1, #4]	@ zero_extendqisi2
 1168              	.LVL90:
 617:Drivers/STM32U5xx_HAL_Driver/Src/stm32u5xx_ll_usb.c ****                                     ((uint32_t)ep->type << 18) |
ARM GAS  /tmp/cc0vokHo.s 			page 52


 1169              		.loc 1 617 77 view .LVU356
 1170 003e 42EA8142 		orr	r2, r2, r1, lsl #18
 617:Drivers/STM32U5xx_HAL_Driver/Src/stm32u5xx_ll_usb.c ****                                     ((uint32_t)ep->type << 18) |
 1171              		.loc 1 617 34 view .LVU357
 1172 0042 1343     		orrs	r3, r3, r2
 1173 0044 43F08053 		orr	r3, r3, #268435456
 1174 0048 43F40043 		orr	r3, r3, #32768
 1175 004c C0F8003B 		str	r3, [r0, #2816]
 1176              	.LVL91:
 1177              	.L89:
 623:Drivers/STM32U5xx_HAL_Driver/Src/stm32u5xx_ll_usb.c **** }
 1178              		.loc 1 623 3 is_stmt 1 view .LVU358
 624:Drivers/STM32U5xx_HAL_Driver/Src/stm32u5xx_ll_usb.c **** 
 1179              		.loc 1 624 1 is_stmt 0 view .LVU359
 1180 0050 0020     		movs	r0, #0
 1181 0052 10BD     		pop	{r4, pc}
 1182              	.LVL92:
 1183              	.L91:
 601:Drivers/STM32U5xx_HAL_Driver/Src/stm32u5xx_ll_usb.c **** 
 1184              		.loc 1 601 5 is_stmt 1 view .LVU360
 601:Drivers/STM32U5xx_HAL_Driver/Src/stm32u5xx_ll_usb.c **** 
 1185              		.loc 1 601 27 is_stmt 0 view .LVU361
 1186 0054 D0F81C28 		ldr	r2, [r0, #2076]
 601:Drivers/STM32U5xx_HAL_Driver/Src/stm32u5xx_ll_usb.c **** 
 1187              		.loc 1 601 81 view .LVU362
 1188 0058 0CF00F0E 		and	lr, ip, #15
 601:Drivers/STM32U5xx_HAL_Driver/Src/stm32u5xx_ll_usb.c **** 
 1189              		.loc 1 601 54 view .LVU363
 1190 005c 03FA0EF3 		lsl	r3, r3, lr
 601:Drivers/STM32U5xx_HAL_Driver/Src/stm32u5xx_ll_usb.c **** 
 1191              		.loc 1 601 52 view .LVU364
 1192 0060 9BB2     		uxth	r3, r3
 601:Drivers/STM32U5xx_HAL_Driver/Src/stm32u5xx_ll_usb.c **** 
 1193              		.loc 1 601 27 view .LVU365
 1194 0062 1343     		orrs	r3, r3, r2
 1195 0064 C0F81C38 		str	r3, [r0, #2076]
 603:Drivers/STM32U5xx_HAL_Driver/Src/stm32u5xx_ll_usb.c ****     {
 1196              		.loc 1 603 5 is_stmt 1 view .LVU366
 603:Drivers/STM32U5xx_HAL_Driver/Src/stm32u5xx_ll_usb.c ****     {
 1197              		.loc 1 603 10 is_stmt 0 view .LVU367
 1198 0068 00EB4C10 		add	r0, r0, ip, lsl #5
 1199              	.LVL93:
 603:Drivers/STM32U5xx_HAL_Driver/Src/stm32u5xx_ll_usb.c ****     {
 1200              		.loc 1 603 26 view .LVU368
 1201 006c D0F80039 		ldr	r3, [r0, #2304]
 603:Drivers/STM32U5xx_HAL_Driver/Src/stm32u5xx_ll_usb.c ****     {
 1202              		.loc 1 603 8 view .LVU369
 1203 0070 13F4004F 		tst	r3, #32768
 1204 0074 ECD1     		bne	.L89
 605:Drivers/STM32U5xx_HAL_Driver/Src/stm32u5xx_ll_usb.c ****                                    ((uint32_t)ep->type << 18) | (epnum << 22) |
 1205              		.loc 1 605 7 is_stmt 1 view .LVU370
 605:Drivers/STM32U5xx_HAL_Driver/Src/stm32u5xx_ll_usb.c ****                                    ((uint32_t)ep->type << 18) | (epnum << 22) |
 1206              		.loc 1 605 33 is_stmt 0 view .LVU371
 1207 0076 D0F80039 		ldr	r3, [r0, #2304]
 605:Drivers/STM32U5xx_HAL_Driver/Src/stm32u5xx_ll_usb.c ****                                    ((uint32_t)ep->type << 18) | (epnum << 22) |
 1208              		.loc 1 605 39 view .LVU372
 1209 007a 8A68     		ldr	r2, [r1, #8]
ARM GAS  /tmp/cc0vokHo.s 			page 53


 605:Drivers/STM32U5xx_HAL_Driver/Src/stm32u5xx_ll_usb.c ****                                    ((uint32_t)ep->type << 18) | (epnum << 22) |
 1210              		.loc 1 605 51 view .LVU373
 1211 007c C2F30A02 		ubfx	r2, r2, #0, #11
 606:Drivers/STM32U5xx_HAL_Driver/Src/stm32u5xx_ll_usb.c ****                                    USB_OTG_DIEPCTL_SD0PID_SEVNFRM |
 1212              		.loc 1 606 49 view .LVU374
 1213 0080 0979     		ldrb	r1, [r1, #4]	@ zero_extendqisi2
 1214              	.LVL94:
 605:Drivers/STM32U5xx_HAL_Driver/Src/stm32u5xx_ll_usb.c ****                                    ((uint32_t)ep->type << 18) | (epnum << 22) |
 1215              		.loc 1 605 76 view .LVU375
 1216 0082 42EA8142 		orr	r2, r2, r1, lsl #18
 606:Drivers/STM32U5xx_HAL_Driver/Src/stm32u5xx_ll_usb.c ****                                    USB_OTG_DIEPCTL_SD0PID_SEVNFRM |
 1217              		.loc 1 606 63 view .LVU376
 1218 0086 42EA8C5C 		orr	ip, r2, ip, lsl #22
 1219              	.LVL95:
 605:Drivers/STM32U5xx_HAL_Driver/Src/stm32u5xx_ll_usb.c ****                                    ((uint32_t)ep->type << 18) | (epnum << 22) |
 1220              		.loc 1 605 33 view .LVU377
 1221 008a 43EA0C03 		orr	r3, r3, ip
 1222 008e 43F08053 		orr	r3, r3, #268435456
 1223 0092 43F40043 		orr	r3, r3, #32768
 1224 0096 C0F80039 		str	r3, [r0, #2304]
 1225 009a D9E7     		b	.L89
 1226              		.cfi_endproc
 1227              	.LFE355:
 1229              		.section	.text.USB_ActivateDedicatedEndpoint,"ax",%progbits
 1230              		.align	1
 1231              		.global	USB_ActivateDedicatedEndpoint
 1232              		.syntax unified
 1233              		.thumb
 1234              		.thumb_func
 1236              	USB_ActivateDedicatedEndpoint:
 1237              	.LVL96:
 1238              	.LFB356:
 633:Drivers/STM32U5xx_HAL_Driver/Src/stm32u5xx_ll_usb.c ****   uint32_t USBx_BASE = (uint32_t)USBx;
 1239              		.loc 1 633 1 is_stmt 1 view -0
 1240              		.cfi_startproc
 1241              		@ args = 0, pretend = 0, frame = 0
 1242              		@ frame_needed = 0, uses_anonymous_args = 0
 633:Drivers/STM32U5xx_HAL_Driver/Src/stm32u5xx_ll_usb.c ****   uint32_t USBx_BASE = (uint32_t)USBx;
 1243              		.loc 1 633 1 is_stmt 0 view .LVU379
 1244 0000 10B5     		push	{r4, lr}
 1245              	.LCFI20:
 1246              		.cfi_def_cfa_offset 8
 1247              		.cfi_offset 4, -8
 1248              		.cfi_offset 14, -4
 634:Drivers/STM32U5xx_HAL_Driver/Src/stm32u5xx_ll_usb.c ****   uint32_t epnum = (uint32_t)ep->num;
 1249              		.loc 1 634 3 is_stmt 1 view .LVU380
 1250              	.LVL97:
 635:Drivers/STM32U5xx_HAL_Driver/Src/stm32u5xx_ll_usb.c **** 
 1251              		.loc 1 635 3 view .LVU381
 635:Drivers/STM32U5xx_HAL_Driver/Src/stm32u5xx_ll_usb.c **** 
 1252              		.loc 1 635 32 is_stmt 0 view .LVU382
 1253 0002 0A78     		ldrb	r2, [r1]	@ zero_extendqisi2
 1254              	.LVL98:
 638:Drivers/STM32U5xx_HAL_Driver/Src/stm32u5xx_ll_usb.c ****   {
 1255              		.loc 1 638 3 is_stmt 1 view .LVU383
 638:Drivers/STM32U5xx_HAL_Driver/Src/stm32u5xx_ll_usb.c ****   {
 1256              		.loc 1 638 9 is_stmt 0 view .LVU384
ARM GAS  /tmp/cc0vokHo.s 			page 54


 1257 0004 4B78     		ldrb	r3, [r1, #1]	@ zero_extendqisi2
 638:Drivers/STM32U5xx_HAL_Driver/Src/stm32u5xx_ll_usb.c ****   {
 1258              		.loc 1 638 6 view .LVU385
 1259 0006 012B     		cmp	r3, #1
 1260 0008 23D0     		beq	.L98
 652:Drivers/STM32U5xx_HAL_Driver/Src/stm32u5xx_ll_usb.c ****     {
 1261              		.loc 1 652 5 is_stmt 1 view .LVU386
 652:Drivers/STM32U5xx_HAL_Driver/Src/stm32u5xx_ll_usb.c ****     {
 1262              		.loc 1 652 11 is_stmt 0 view .LVU387
 1263 000a 00EB421C 		add	ip, r0, r2, lsl #5
 652:Drivers/STM32U5xx_HAL_Driver/Src/stm32u5xx_ll_usb.c ****     {
 1264              		.loc 1 652 28 view .LVU388
 1265 000e DCF8003B 		ldr	r3, [ip, #2816]
 652:Drivers/STM32U5xx_HAL_Driver/Src/stm32u5xx_ll_usb.c ****     {
 1266              		.loc 1 652 8 view .LVU389
 1267 0012 13F4004F 		tst	r3, #32768
 1268 0016 0FD1     		bne	.L96
 654:Drivers/STM32U5xx_HAL_Driver/Src/stm32u5xx_ll_usb.c ****                                     ((uint32_t)ep->type << 18) | (epnum << 22) |
 1269              		.loc 1 654 7 is_stmt 1 view .LVU390
 654:Drivers/STM32U5xx_HAL_Driver/Src/stm32u5xx_ll_usb.c ****                                     ((uint32_t)ep->type << 18) | (epnum << 22) |
 1270              		.loc 1 654 34 is_stmt 0 view .LVU391
 1271 0018 DCF8004B 		ldr	r4, [ip, #2816]
 654:Drivers/STM32U5xx_HAL_Driver/Src/stm32u5xx_ll_usb.c ****                                     ((uint32_t)ep->type << 18) | (epnum << 22) |
 1272              		.loc 1 654 40 view .LVU392
 1273 001c 8B68     		ldr	r3, [r1, #8]
 654:Drivers/STM32U5xx_HAL_Driver/Src/stm32u5xx_ll_usb.c ****                                     ((uint32_t)ep->type << 18) | (epnum << 22) |
 1274              		.loc 1 654 52 view .LVU393
 1275 001e C3F30A03 		ubfx	r3, r3, #0, #11
 655:Drivers/STM32U5xx_HAL_Driver/Src/stm32u5xx_ll_usb.c ****                                     USB_OTG_DOEPCTL_USBAEP;
 1276              		.loc 1 655 50 view .LVU394
 1277 0022 91F804E0 		ldrb	lr, [r1, #4]	@ zero_extendqisi2
 654:Drivers/STM32U5xx_HAL_Driver/Src/stm32u5xx_ll_usb.c ****                                     ((uint32_t)ep->type << 18) | (epnum << 22) |
 1278              		.loc 1 654 77 view .LVU395
 1279 0026 43EA8E43 		orr	r3, r3, lr, lsl #18
 655:Drivers/STM32U5xx_HAL_Driver/Src/stm32u5xx_ll_usb.c ****                                     USB_OTG_DOEPCTL_USBAEP;
 1280              		.loc 1 655 64 view .LVU396
 1281 002a 43EA8253 		orr	r3, r3, r2, lsl #22
 654:Drivers/STM32U5xx_HAL_Driver/Src/stm32u5xx_ll_usb.c ****                                     ((uint32_t)ep->type << 18) | (epnum << 22) |
 1282              		.loc 1 654 34 view .LVU397
 1283 002e 2343     		orrs	r3, r3, r4
 1284 0030 43F40043 		orr	r3, r3, #32768
 1285 0034 CCF8003B 		str	r3, [ip, #2816]
 1286              	.L96:
 659:Drivers/STM32U5xx_HAL_Driver/Src/stm32u5xx_ll_usb.c ****   }
 1287              		.loc 1 659 5 is_stmt 1 view .LVU398
 659:Drivers/STM32U5xx_HAL_Driver/Src/stm32u5xx_ll_usb.c ****   }
 1288              		.loc 1 659 27 is_stmt 0 view .LVU399
 1289 0038 D0F83C38 		ldr	r3, [r0, #2108]
 659:Drivers/STM32U5xx_HAL_Driver/Src/stm32u5xx_ll_usb.c ****   }
 1290              		.loc 1 659 76 view .LVU400
 1291 003c 0A78     		ldrb	r2, [r1]	@ zero_extendqisi2
 1292              	.LVL99:
 659:Drivers/STM32U5xx_HAL_Driver/Src/stm32u5xx_ll_usb.c ****   }
 1293              		.loc 1 659 82 view .LVU401
 1294 003e 02F00F01 		and	r1, r2, #15
 1295              	.LVL100:
 659:Drivers/STM32U5xx_HAL_Driver/Src/stm32u5xx_ll_usb.c ****   }
ARM GAS  /tmp/cc0vokHo.s 			page 55


 1296              		.loc 1 659 55 view .LVU402
 1297 0042 0122     		movs	r2, #1
 1298 0044 8A40     		lsls	r2, r2, r1
 659:Drivers/STM32U5xx_HAL_Driver/Src/stm32u5xx_ll_usb.c ****   }
 1299              		.loc 1 659 27 view .LVU403
 1300 0046 43EA0243 		orr	r3, r3, r2, lsl #16
 1301 004a C0F83C38 		str	r3, [r0, #2108]
 1302              	.L95:
 662:Drivers/STM32U5xx_HAL_Driver/Src/stm32u5xx_ll_usb.c **** }
 1303              		.loc 1 662 3 is_stmt 1 view .LVU404
 663:Drivers/STM32U5xx_HAL_Driver/Src/stm32u5xx_ll_usb.c **** 
 1304              		.loc 1 663 1 is_stmt 0 view .LVU405
 1305 004e 0020     		movs	r0, #0
 1306              	.LVL101:
 663:Drivers/STM32U5xx_HAL_Driver/Src/stm32u5xx_ll_usb.c **** 
 1307              		.loc 1 663 1 view .LVU406
 1308 0050 10BD     		pop	{r4, pc}
 1309              	.LVL102:
 1310              	.L98:
 640:Drivers/STM32U5xx_HAL_Driver/Src/stm32u5xx_ll_usb.c ****     {
 1311              		.loc 1 640 5 is_stmt 1 view .LVU407
 640:Drivers/STM32U5xx_HAL_Driver/Src/stm32u5xx_ll_usb.c ****     {
 1312              		.loc 1 640 11 is_stmt 0 view .LVU408
 1313 0052 00EB421C 		add	ip, r0, r2, lsl #5
 640:Drivers/STM32U5xx_HAL_Driver/Src/stm32u5xx_ll_usb.c ****     {
 1314              		.loc 1 640 27 view .LVU409
 1315 0056 DCF80039 		ldr	r3, [ip, #2304]
 640:Drivers/STM32U5xx_HAL_Driver/Src/stm32u5xx_ll_usb.c ****     {
 1316              		.loc 1 640 8 view .LVU410
 1317 005a 13F4004F 		tst	r3, #32768
 1318 005e 11D1     		bne	.L94
 642:Drivers/STM32U5xx_HAL_Driver/Src/stm32u5xx_ll_usb.c ****                                    ((uint32_t)ep->type << 18) | (epnum << 22) |
 1319              		.loc 1 642 7 is_stmt 1 view .LVU411
 642:Drivers/STM32U5xx_HAL_Driver/Src/stm32u5xx_ll_usb.c ****                                    ((uint32_t)ep->type << 18) | (epnum << 22) |
 1320              		.loc 1 642 33 is_stmt 0 view .LVU412
 1321 0060 DCF80039 		ldr	r3, [ip, #2304]
 642:Drivers/STM32U5xx_HAL_Driver/Src/stm32u5xx_ll_usb.c ****                                    ((uint32_t)ep->type << 18) | (epnum << 22) |
 1322              		.loc 1 642 39 view .LVU413
 1323 0064 8C68     		ldr	r4, [r1, #8]
 642:Drivers/STM32U5xx_HAL_Driver/Src/stm32u5xx_ll_usb.c ****                                    ((uint32_t)ep->type << 18) | (epnum << 22) |
 1324              		.loc 1 642 51 view .LVU414
 1325 0066 C4F30A04 		ubfx	r4, r4, #0, #11
 643:Drivers/STM32U5xx_HAL_Driver/Src/stm32u5xx_ll_usb.c ****                                    USB_OTG_DIEPCTL_SD0PID_SEVNFRM |
 1326              		.loc 1 643 49 view .LVU415
 1327 006a 91F804E0 		ldrb	lr, [r1, #4]	@ zero_extendqisi2
 642:Drivers/STM32U5xx_HAL_Driver/Src/stm32u5xx_ll_usb.c ****                                    ((uint32_t)ep->type << 18) | (epnum << 22) |
 1328              		.loc 1 642 76 view .LVU416
 1329 006e 44EA8E44 		orr	r4, r4, lr, lsl #18
 643:Drivers/STM32U5xx_HAL_Driver/Src/stm32u5xx_ll_usb.c ****                                    USB_OTG_DIEPCTL_SD0PID_SEVNFRM |
 1330              		.loc 1 643 63 view .LVU417
 1331 0072 44EA8252 		orr	r2, r4, r2, lsl #22
 1332              	.LVL103:
 642:Drivers/STM32U5xx_HAL_Driver/Src/stm32u5xx_ll_usb.c ****                                    ((uint32_t)ep->type << 18) | (epnum << 22) |
 1333              		.loc 1 642 33 view .LVU418
 1334 0076 1343     		orrs	r3, r3, r2
 1335 0078 43F08053 		orr	r3, r3, #268435456
 1336 007c 43F40043 		orr	r3, r3, #32768
ARM GAS  /tmp/cc0vokHo.s 			page 56


 1337 0080 CCF80039 		str	r3, [ip, #2304]
 1338              	.LVL104:
 1339              	.L94:
 648:Drivers/STM32U5xx_HAL_Driver/Src/stm32u5xx_ll_usb.c ****   }
 1340              		.loc 1 648 5 is_stmt 1 view .LVU419
 648:Drivers/STM32U5xx_HAL_Driver/Src/stm32u5xx_ll_usb.c ****   }
 1341              		.loc 1 648 27 is_stmt 0 view .LVU420
 1342 0084 D0F83C28 		ldr	r2, [r0, #2108]
 648:Drivers/STM32U5xx_HAL_Driver/Src/stm32u5xx_ll_usb.c ****   }
 1343              		.loc 1 648 75 view .LVU421
 1344 0088 0B78     		ldrb	r3, [r1]	@ zero_extendqisi2
 648:Drivers/STM32U5xx_HAL_Driver/Src/stm32u5xx_ll_usb.c ****   }
 1345              		.loc 1 648 81 view .LVU422
 1346 008a 03F00F01 		and	r1, r3, #15
 1347              	.LVL105:
 648:Drivers/STM32U5xx_HAL_Driver/Src/stm32u5xx_ll_usb.c ****   }
 1348              		.loc 1 648 54 view .LVU423
 1349 008e 0123     		movs	r3, #1
 1350 0090 8B40     		lsls	r3, r3, r1
 648:Drivers/STM32U5xx_HAL_Driver/Src/stm32u5xx_ll_usb.c ****   }
 1351              		.loc 1 648 52 view .LVU424
 1352 0092 9BB2     		uxth	r3, r3
 648:Drivers/STM32U5xx_HAL_Driver/Src/stm32u5xx_ll_usb.c ****   }
 1353              		.loc 1 648 27 view .LVU425
 1354 0094 1343     		orrs	r3, r3, r2
 1355 0096 C0F83C38 		str	r3, [r0, #2108]
 1356 009a D8E7     		b	.L95
 1357              		.cfi_endproc
 1358              	.LFE356:
 1360              		.section	.text.USB_DeactivateEndpoint,"ax",%progbits
 1361              		.align	1
 1362              		.global	USB_DeactivateEndpoint
 1363              		.syntax unified
 1364              		.thumb
 1365              		.thumb_func
 1367              	USB_DeactivateEndpoint:
 1368              	.LVL106:
 1369              	.LFB357:
 672:Drivers/STM32U5xx_HAL_Driver/Src/stm32u5xx_ll_usb.c ****   uint32_t USBx_BASE = (uint32_t)USBx;
 1370              		.loc 1 672 1 is_stmt 1 view -0
 1371              		.cfi_startproc
 1372              		@ args = 0, pretend = 0, frame = 0
 1373              		@ frame_needed = 0, uses_anonymous_args = 0
 1374              		@ link register save eliminated.
 672:Drivers/STM32U5xx_HAL_Driver/Src/stm32u5xx_ll_usb.c ****   uint32_t USBx_BASE = (uint32_t)USBx;
 1375              		.loc 1 672 1 is_stmt 0 view .LVU427
 1376 0000 30B4     		push	{r4, r5}
 1377              	.LCFI21:
 1378              		.cfi_def_cfa_offset 8
 1379              		.cfi_offset 4, -8
 1380              		.cfi_offset 5, -4
 673:Drivers/STM32U5xx_HAL_Driver/Src/stm32u5xx_ll_usb.c ****   uint32_t epnum = (uint32_t)ep->num;
 1381              		.loc 1 673 3 is_stmt 1 view .LVU428
 1382              	.LVL107:
 674:Drivers/STM32U5xx_HAL_Driver/Src/stm32u5xx_ll_usb.c **** 
 1383              		.loc 1 674 3 view .LVU429
 674:Drivers/STM32U5xx_HAL_Driver/Src/stm32u5xx_ll_usb.c **** 
ARM GAS  /tmp/cc0vokHo.s 			page 57


 1384              		.loc 1 674 32 is_stmt 0 view .LVU430
 1385 0002 0B78     		ldrb	r3, [r1]	@ zero_extendqisi2
 1386              	.LVL108:
 677:Drivers/STM32U5xx_HAL_Driver/Src/stm32u5xx_ll_usb.c ****   {
 1387              		.loc 1 677 3 is_stmt 1 view .LVU431
 677:Drivers/STM32U5xx_HAL_Driver/Src/stm32u5xx_ll_usb.c ****   {
 1388              		.loc 1 677 9 is_stmt 0 view .LVU432
 1389 0004 4A78     		ldrb	r2, [r1, #1]	@ zero_extendqisi2
 677:Drivers/STM32U5xx_HAL_Driver/Src/stm32u5xx_ll_usb.c ****   {
 1390              		.loc 1 677 6 view .LVU433
 1391 0006 012A     		cmp	r2, #1
 1392 0008 26D0     		beq	.L105
 695:Drivers/STM32U5xx_HAL_Driver/Src/stm32u5xx_ll_usb.c ****     {
 1393              		.loc 1 695 5 is_stmt 1 view .LVU434
 695:Drivers/STM32U5xx_HAL_Driver/Src/stm32u5xx_ll_usb.c ****     {
 1394              		.loc 1 695 10 is_stmt 0 view .LVU435
 1395 000a 00EB4313 		add	r3, r0, r3, lsl #5
 1396              	.LVL109:
 695:Drivers/STM32U5xx_HAL_Driver/Src/stm32u5xx_ll_usb.c ****     {
 1397              		.loc 1 695 27 view .LVU436
 1398 000e D3F8002B 		ldr	r2, [r3, #2816]
 695:Drivers/STM32U5xx_HAL_Driver/Src/stm32u5xx_ll_usb.c ****     {
 1399              		.loc 1 695 8 view .LVU437
 1400 0012 002A     		cmp	r2, #0
 1401 0014 52DB     		blt	.L106
 1402              	.LVL110:
 1403              	.L103:
 701:Drivers/STM32U5xx_HAL_Driver/Src/stm32u5xx_ll_usb.c ****     USBx_DEVICE->DAINTMSK &= ~(USB_OTG_DAINTMSK_OEPM & ((uint32_t)(1UL << (ep->num & EP_ADDR_MSK)) 
 1404              		.loc 1 701 5 is_stmt 1 view .LVU438
 701:Drivers/STM32U5xx_HAL_Driver/Src/stm32u5xx_ll_usb.c ****     USBx_DEVICE->DAINTMSK &= ~(USB_OTG_DAINTMSK_OEPM & ((uint32_t)(1UL << (ep->num & EP_ADDR_MSK)) 
 1405              		.loc 1 701 27 is_stmt 0 view .LVU439
 1406 0016 D0F83C48 		ldr	r4, [r0, #2108]
 701:Drivers/STM32U5xx_HAL_Driver/Src/stm32u5xx_ll_usb.c ****     USBx_DEVICE->DAINTMSK &= ~(USB_OTG_DAINTMSK_OEPM & ((uint32_t)(1UL << (ep->num & EP_ADDR_MSK)) 
 1407              		.loc 1 701 78 view .LVU440
 1408 001a 0A78     		ldrb	r2, [r1]	@ zero_extendqisi2
 701:Drivers/STM32U5xx_HAL_Driver/Src/stm32u5xx_ll_usb.c ****     USBx_DEVICE->DAINTMSK &= ~(USB_OTG_DAINTMSK_OEPM & ((uint32_t)(1UL << (ep->num & EP_ADDR_MSK)) 
 1409              		.loc 1 701 84 view .LVU441
 1410 001c 02F00F02 		and	r2, r2, #15
 701:Drivers/STM32U5xx_HAL_Driver/Src/stm32u5xx_ll_usb.c ****     USBx_DEVICE->DAINTMSK &= ~(USB_OTG_DAINTMSK_OEPM & ((uint32_t)(1UL << (ep->num & EP_ADDR_MSK)) 
 1411              		.loc 1 701 57 view .LVU442
 1412 0020 4FF0010C 		mov	ip, #1
 1413 0024 0CFA02F2 		lsl	r2, ip, r2
 701:Drivers/STM32U5xx_HAL_Driver/Src/stm32u5xx_ll_usb.c ****     USBx_DEVICE->DAINTMSK &= ~(USB_OTG_DAINTMSK_OEPM & ((uint32_t)(1UL << (ep->num & EP_ADDR_MSK)) 
 1414              		.loc 1 701 27 view .LVU443
 1415 0028 24EA0242 		bic	r2, r4, r2, lsl #16
 1416 002c C0F83C28 		str	r2, [r0, #2108]
 702:Drivers/STM32U5xx_HAL_Driver/Src/stm32u5xx_ll_usb.c ****     USBx_OUTEP(epnum)->DOEPCTL &= ~(USB_OTG_DOEPCTL_USBAEP |
 1417              		.loc 1 702 5 is_stmt 1 view .LVU444
 702:Drivers/STM32U5xx_HAL_Driver/Src/stm32u5xx_ll_usb.c ****     USBx_OUTEP(epnum)->DOEPCTL &= ~(USB_OTG_DOEPCTL_USBAEP |
 1418              		.loc 1 702 27 is_stmt 0 view .LVU445
 1419 0030 D0F81C28 		ldr	r2, [r0, #2076]
 702:Drivers/STM32U5xx_HAL_Driver/Src/stm32u5xx_ll_usb.c ****     USBx_OUTEP(epnum)->DOEPCTL &= ~(USB_OTG_DOEPCTL_USBAEP |
 1420              		.loc 1 702 78 view .LVU446
 1421 0034 0978     		ldrb	r1, [r1]	@ zero_extendqisi2
 1422              	.LVL111:
 702:Drivers/STM32U5xx_HAL_Driver/Src/stm32u5xx_ll_usb.c ****     USBx_OUTEP(epnum)->DOEPCTL &= ~(USB_OTG_DOEPCTL_USBAEP |
 1423              		.loc 1 702 84 view .LVU447
ARM GAS  /tmp/cc0vokHo.s 			page 58


 1424 0036 01F00F01 		and	r1, r1, #15
 702:Drivers/STM32U5xx_HAL_Driver/Src/stm32u5xx_ll_usb.c ****     USBx_OUTEP(epnum)->DOEPCTL &= ~(USB_OTG_DOEPCTL_USBAEP |
 1425              		.loc 1 702 57 view .LVU448
 1426 003a 0CFA01FC 		lsl	ip, ip, r1
 702:Drivers/STM32U5xx_HAL_Driver/Src/stm32u5xx_ll_usb.c ****     USBx_OUTEP(epnum)->DOEPCTL &= ~(USB_OTG_DOEPCTL_USBAEP |
 1427              		.loc 1 702 27 view .LVU449
 1428 003e 22EA0C42 		bic	r2, r2, ip, lsl #16
 1429 0042 C0F81C28 		str	r2, [r0, #2076]
 703:Drivers/STM32U5xx_HAL_Driver/Src/stm32u5xx_ll_usb.c ****                                     USB_OTG_DOEPCTL_MPSIZ |
 1430              		.loc 1 703 5 is_stmt 1 view .LVU450
 703:Drivers/STM32U5xx_HAL_Driver/Src/stm32u5xx_ll_usb.c ****                                     USB_OTG_DOEPCTL_MPSIZ |
 1431              		.loc 1 703 32 is_stmt 0 view .LVU451
 1432 0046 D3F8001B 		ldr	r1, [r3, #2816]
 1433 004a 234A     		ldr	r2, .L108
 1434 004c 0A40     		ands	r2, r2, r1
 1435 004e C3F8002B 		str	r2, [r3, #2816]
 1436              	.L102:
 709:Drivers/STM32U5xx_HAL_Driver/Src/stm32u5xx_ll_usb.c **** }
 1437              		.loc 1 709 3 is_stmt 1 view .LVU452
 710:Drivers/STM32U5xx_HAL_Driver/Src/stm32u5xx_ll_usb.c **** 
 1438              		.loc 1 710 1 is_stmt 0 view .LVU453
 1439 0052 0020     		movs	r0, #0
 1440              	.LVL112:
 710:Drivers/STM32U5xx_HAL_Driver/Src/stm32u5xx_ll_usb.c **** 
 1441              		.loc 1 710 1 view .LVU454
 1442 0054 30BC     		pop	{r4, r5}
 1443              	.LCFI22:
 1444              		.cfi_remember_state
 1445              		.cfi_restore 5
 1446              		.cfi_restore 4
 1447              		.cfi_def_cfa_offset 0
 1448 0056 7047     		bx	lr
 1449              	.LVL113:
 1450              	.L105:
 1451              	.LCFI23:
 1452              		.cfi_restore_state
 679:Drivers/STM32U5xx_HAL_Driver/Src/stm32u5xx_ll_usb.c ****     {
 1453              		.loc 1 679 5 is_stmt 1 view .LVU455
 679:Drivers/STM32U5xx_HAL_Driver/Src/stm32u5xx_ll_usb.c ****     {
 1454              		.loc 1 679 10 is_stmt 0 view .LVU456
 1455 0058 00EB4313 		add	r3, r0, r3, lsl #5
 1456              	.LVL114:
 679:Drivers/STM32U5xx_HAL_Driver/Src/stm32u5xx_ll_usb.c ****     {
 1457              		.loc 1 679 26 view .LVU457
 1458 005c D3F80029 		ldr	r2, [r3, #2304]
 679:Drivers/STM32U5xx_HAL_Driver/Src/stm32u5xx_ll_usb.c ****     {
 1459              		.loc 1 679 8 view .LVU458
 1460 0060 002A     		cmp	r2, #0
 1461 0062 1EDB     		blt	.L107
 1462              	.LVL115:
 1463              	.L101:
 685:Drivers/STM32U5xx_HAL_Driver/Src/stm32u5xx_ll_usb.c ****     USBx_DEVICE->DAINTMSK &= ~(USB_OTG_DAINTMSK_IEPM & (uint32_t)(1UL << (ep->num & EP_ADDR_MSK)));
 1464              		.loc 1 685 5 is_stmt 1 view .LVU459
 685:Drivers/STM32U5xx_HAL_Driver/Src/stm32u5xx_ll_usb.c ****     USBx_DEVICE->DAINTMSK &= ~(USB_OTG_DAINTMSK_IEPM & (uint32_t)(1UL << (ep->num & EP_ADDR_MSK)));
 1465              		.loc 1 685 27 is_stmt 0 view .LVU460
 1466 0064 D0F83C58 		ldr	r5, [r0, #2108]
 685:Drivers/STM32U5xx_HAL_Driver/Src/stm32u5xx_ll_usb.c ****     USBx_DEVICE->DAINTMSK &= ~(USB_OTG_DAINTMSK_IEPM & (uint32_t)(1UL << (ep->num & EP_ADDR_MSK)));
ARM GAS  /tmp/cc0vokHo.s 			page 59


 1467              		.loc 1 685 77 view .LVU461
 1468 0068 0A78     		ldrb	r2, [r1]	@ zero_extendqisi2
 685:Drivers/STM32U5xx_HAL_Driver/Src/stm32u5xx_ll_usb.c ****     USBx_DEVICE->DAINTMSK &= ~(USB_OTG_DAINTMSK_IEPM & (uint32_t)(1UL << (ep->num & EP_ADDR_MSK)));
 1469              		.loc 1 685 83 view .LVU462
 1470 006a 02F00F02 		and	r2, r2, #15
 685:Drivers/STM32U5xx_HAL_Driver/Src/stm32u5xx_ll_usb.c ****     USBx_DEVICE->DAINTMSK &= ~(USB_OTG_DAINTMSK_IEPM & (uint32_t)(1UL << (ep->num & EP_ADDR_MSK)));
 1471              		.loc 1 685 56 view .LVU463
 1472 006e 0124     		movs	r4, #1
 1473 0070 04FA02F2 		lsl	r2, r4, r2
 685:Drivers/STM32U5xx_HAL_Driver/Src/stm32u5xx_ll_usb.c ****     USBx_DEVICE->DAINTMSK &= ~(USB_OTG_DAINTMSK_IEPM & (uint32_t)(1UL << (ep->num & EP_ADDR_MSK)));
 1474              		.loc 1 685 54 view .LVU464
 1475 0074 92B2     		uxth	r2, r2
 685:Drivers/STM32U5xx_HAL_Driver/Src/stm32u5xx_ll_usb.c ****     USBx_DEVICE->DAINTMSK &= ~(USB_OTG_DAINTMSK_IEPM & (uint32_t)(1UL << (ep->num & EP_ADDR_MSK)));
 1476              		.loc 1 685 27 view .LVU465
 1477 0076 25EA0202 		bic	r2, r5, r2
 1478 007a C0F83C28 		str	r2, [r0, #2108]
 686:Drivers/STM32U5xx_HAL_Driver/Src/stm32u5xx_ll_usb.c ****     USBx_INEP(epnum)->DIEPCTL &= ~(USB_OTG_DIEPCTL_USBAEP |
 1479              		.loc 1 686 5 is_stmt 1 view .LVU466
 686:Drivers/STM32U5xx_HAL_Driver/Src/stm32u5xx_ll_usb.c ****     USBx_INEP(epnum)->DIEPCTL &= ~(USB_OTG_DIEPCTL_USBAEP |
 1480              		.loc 1 686 27 is_stmt 0 view .LVU467
 1481 007e D0F81C28 		ldr	r2, [r0, #2076]
 686:Drivers/STM32U5xx_HAL_Driver/Src/stm32u5xx_ll_usb.c ****     USBx_INEP(epnum)->DIEPCTL &= ~(USB_OTG_DIEPCTL_USBAEP |
 1482              		.loc 1 686 77 view .LVU468
 1483 0082 0978     		ldrb	r1, [r1]	@ zero_extendqisi2
 1484              	.LVL116:
 686:Drivers/STM32U5xx_HAL_Driver/Src/stm32u5xx_ll_usb.c ****     USBx_INEP(epnum)->DIEPCTL &= ~(USB_OTG_DIEPCTL_USBAEP |
 1485              		.loc 1 686 83 view .LVU469
 1486 0084 01F00F01 		and	r1, r1, #15
 686:Drivers/STM32U5xx_HAL_Driver/Src/stm32u5xx_ll_usb.c ****     USBx_INEP(epnum)->DIEPCTL &= ~(USB_OTG_DIEPCTL_USBAEP |
 1487              		.loc 1 686 56 view .LVU470
 1488 0088 8C40     		lsls	r4, r4, r1
 686:Drivers/STM32U5xx_HAL_Driver/Src/stm32u5xx_ll_usb.c ****     USBx_INEP(epnum)->DIEPCTL &= ~(USB_OTG_DIEPCTL_USBAEP |
 1489              		.loc 1 686 54 view .LVU471
 1490 008a A4B2     		uxth	r4, r4
 686:Drivers/STM32U5xx_HAL_Driver/Src/stm32u5xx_ll_usb.c ****     USBx_INEP(epnum)->DIEPCTL &= ~(USB_OTG_DIEPCTL_USBAEP |
 1491              		.loc 1 686 27 view .LVU472
 1492 008c 22EA0404 		bic	r4, r2, r4
 1493 0090 C0F81C48 		str	r4, [r0, #2076]
 687:Drivers/STM32U5xx_HAL_Driver/Src/stm32u5xx_ll_usb.c ****                                    USB_OTG_DIEPCTL_MPSIZ |
 1494              		.loc 1 687 5 is_stmt 1 view .LVU473
 687:Drivers/STM32U5xx_HAL_Driver/Src/stm32u5xx_ll_usb.c ****                                    USB_OTG_DIEPCTL_MPSIZ |
 1495              		.loc 1 687 31 is_stmt 0 view .LVU474
 1496 0094 D3F80019 		ldr	r1, [r3, #2304]
 1497 0098 104A     		ldr	r2, .L108+4
 1498 009a 0A40     		ands	r2, r2, r1
 1499 009c C3F80029 		str	r2, [r3, #2304]
 1500 00a0 D7E7     		b	.L102
 1501              	.LVL117:
 1502              	.L107:
 681:Drivers/STM32U5xx_HAL_Driver/Src/stm32u5xx_ll_usb.c ****       USBx_INEP(epnum)->DIEPCTL |= USB_OTG_DIEPCTL_EPDIS;
 1503              		.loc 1 681 7 is_stmt 1 view .LVU475
 681:Drivers/STM32U5xx_HAL_Driver/Src/stm32u5xx_ll_usb.c ****       USBx_INEP(epnum)->DIEPCTL |= USB_OTG_DIEPCTL_EPDIS;
 1504              		.loc 1 681 33 is_stmt 0 view .LVU476
 1505 00a2 D3F80029 		ldr	r2, [r3, #2304]
 1506 00a6 42F00062 		orr	r2, r2, #134217728
 1507 00aa C3F80029 		str	r2, [r3, #2304]
 1508              	.LVL118:
ARM GAS  /tmp/cc0vokHo.s 			page 60


 682:Drivers/STM32U5xx_HAL_Driver/Src/stm32u5xx_ll_usb.c ****     }
 1509              		.loc 1 682 7 is_stmt 1 view .LVU477
 682:Drivers/STM32U5xx_HAL_Driver/Src/stm32u5xx_ll_usb.c ****     }
 1510              		.loc 1 682 33 is_stmt 0 view .LVU478
 1511 00ae D3F80029 		ldr	r2, [r3, #2304]
 1512 00b2 42F08042 		orr	r2, r2, #1073741824
 1513 00b6 C3F80029 		str	r2, [r3, #2304]
 1514 00ba D3E7     		b	.L101
 1515              	.LVL119:
 1516              	.L106:
 697:Drivers/STM32U5xx_HAL_Driver/Src/stm32u5xx_ll_usb.c ****       USBx_OUTEP(epnum)->DOEPCTL |= USB_OTG_DOEPCTL_EPDIS;
 1517              		.loc 1 697 7 is_stmt 1 view .LVU479
 697:Drivers/STM32U5xx_HAL_Driver/Src/stm32u5xx_ll_usb.c ****       USBx_OUTEP(epnum)->DOEPCTL |= USB_OTG_DOEPCTL_EPDIS;
 1518              		.loc 1 697 34 is_stmt 0 view .LVU480
 1519 00bc D3F8002B 		ldr	r2, [r3, #2816]
 1520 00c0 42F00062 		orr	r2, r2, #134217728
 1521 00c4 C3F8002B 		str	r2, [r3, #2816]
 1522              	.LVL120:
 698:Drivers/STM32U5xx_HAL_Driver/Src/stm32u5xx_ll_usb.c ****     }
 1523              		.loc 1 698 7 is_stmt 1 view .LVU481
 698:Drivers/STM32U5xx_HAL_Driver/Src/stm32u5xx_ll_usb.c ****     }
 1524              		.loc 1 698 34 is_stmt 0 view .LVU482
 1525 00c8 D3F8002B 		ldr	r2, [r3, #2816]
 1526 00cc 42F08042 		orr	r2, r2, #1073741824
 1527 00d0 C3F8002B 		str	r2, [r3, #2816]
 1528 00d4 9FE7     		b	.L103
 1529              	.L109:
 1530 00d6 00BF     		.align	2
 1531              	.L108:
 1532 00d8 0078F3EF 		.word	-269256704
 1533 00dc 007833EC 		.word	-332171264
 1534              		.cfi_endproc
 1535              	.LFE357:
 1537              		.section	.text.USB_DeactivateDedicatedEndpoint,"ax",%progbits
 1538              		.align	1
 1539              		.global	USB_DeactivateDedicatedEndpoint
 1540              		.syntax unified
 1541              		.thumb
 1542              		.thumb_func
 1544              	USB_DeactivateDedicatedEndpoint:
 1545              	.LVL121:
 1546              	.LFB358:
 719:Drivers/STM32U5xx_HAL_Driver/Src/stm32u5xx_ll_usb.c ****   uint32_t USBx_BASE = (uint32_t)USBx;
 1547              		.loc 1 719 1 is_stmt 1 view -0
 1548              		.cfi_startproc
 1549              		@ args = 0, pretend = 0, frame = 0
 1550              		@ frame_needed = 0, uses_anonymous_args = 0
 1551              		@ link register save eliminated.
 720:Drivers/STM32U5xx_HAL_Driver/Src/stm32u5xx_ll_usb.c ****   uint32_t epnum = (uint32_t)ep->num;
 1552              		.loc 1 720 3 view .LVU484
 721:Drivers/STM32U5xx_HAL_Driver/Src/stm32u5xx_ll_usb.c **** 
 1553              		.loc 1 721 3 view .LVU485
 721:Drivers/STM32U5xx_HAL_Driver/Src/stm32u5xx_ll_usb.c **** 
 1554              		.loc 1 721 32 is_stmt 0 view .LVU486
 1555 0000 0B78     		ldrb	r3, [r1]	@ zero_extendqisi2
 1556              	.LVL122:
 724:Drivers/STM32U5xx_HAL_Driver/Src/stm32u5xx_ll_usb.c ****   {
ARM GAS  /tmp/cc0vokHo.s 			page 61


 1557              		.loc 1 724 3 is_stmt 1 view .LVU487
 724:Drivers/STM32U5xx_HAL_Driver/Src/stm32u5xx_ll_usb.c ****   {
 1558              		.loc 1 724 9 is_stmt 0 view .LVU488
 1559 0002 4A78     		ldrb	r2, [r1, #1]	@ zero_extendqisi2
 724:Drivers/STM32U5xx_HAL_Driver/Src/stm32u5xx_ll_usb.c ****   {
 1560              		.loc 1 724 6 view .LVU489
 1561 0004 012A     		cmp	r2, #1
 1562 0006 18D0     		beq	.L115
 737:Drivers/STM32U5xx_HAL_Driver/Src/stm32u5xx_ll_usb.c ****     {
 1563              		.loc 1 737 5 is_stmt 1 view .LVU490
 737:Drivers/STM32U5xx_HAL_Driver/Src/stm32u5xx_ll_usb.c ****     {
 1564              		.loc 1 737 10 is_stmt 0 view .LVU491
 1565 0008 00EB4313 		add	r3, r0, r3, lsl #5
 1566              	.LVL123:
 737:Drivers/STM32U5xx_HAL_Driver/Src/stm32u5xx_ll_usb.c ****     {
 1567              		.loc 1 737 27 view .LVU492
 1568 000c D3F8002B 		ldr	r2, [r3, #2816]
 737:Drivers/STM32U5xx_HAL_Driver/Src/stm32u5xx_ll_usb.c ****     {
 1569              		.loc 1 737 8 view .LVU493
 1570 0010 002A     		cmp	r2, #0
 1571 0012 38DB     		blt	.L116
 1572              	.LVL124:
 1573              	.L114:
 743:Drivers/STM32U5xx_HAL_Driver/Src/stm32u5xx_ll_usb.c ****     USBx_DEVICE->DAINTMSK &= ~(USB_OTG_DAINTMSK_OEPM & ((uint32_t)(1UL << (ep->num & EP_ADDR_MSK)) 
 1574              		.loc 1 743 5 is_stmt 1 view .LVU494
 743:Drivers/STM32U5xx_HAL_Driver/Src/stm32u5xx_ll_usb.c ****     USBx_DEVICE->DAINTMSK &= ~(USB_OTG_DAINTMSK_OEPM & ((uint32_t)(1UL << (ep->num & EP_ADDR_MSK)) 
 1575              		.loc 1 743 32 is_stmt 0 view .LVU495
 1576 0014 D3F8002B 		ldr	r2, [r3, #2816]
 1577 0018 22F40042 		bic	r2, r2, #32768
 1578 001c C3F8002B 		str	r2, [r3, #2816]
 744:Drivers/STM32U5xx_HAL_Driver/Src/stm32u5xx_ll_usb.c ****   }
 1579              		.loc 1 744 5 is_stmt 1 view .LVU496
 744:Drivers/STM32U5xx_HAL_Driver/Src/stm32u5xx_ll_usb.c ****   }
 1580              		.loc 1 744 27 is_stmt 0 view .LVU497
 1581 0020 D0F81C38 		ldr	r3, [r0, #2076]
 744:Drivers/STM32U5xx_HAL_Driver/Src/stm32u5xx_ll_usb.c ****   }
 1582              		.loc 1 744 78 view .LVU498
 1583 0024 0A78     		ldrb	r2, [r1]	@ zero_extendqisi2
 744:Drivers/STM32U5xx_HAL_Driver/Src/stm32u5xx_ll_usb.c ****   }
 1584              		.loc 1 744 84 view .LVU499
 1585 0026 02F00F01 		and	r1, r2, #15
 1586              	.LVL125:
 744:Drivers/STM32U5xx_HAL_Driver/Src/stm32u5xx_ll_usb.c ****   }
 1587              		.loc 1 744 57 view .LVU500
 1588 002a 0122     		movs	r2, #1
 1589 002c 8A40     		lsls	r2, r2, r1
 744:Drivers/STM32U5xx_HAL_Driver/Src/stm32u5xx_ll_usb.c ****   }
 1590              		.loc 1 744 27 view .LVU501
 1591 002e 23EA0243 		bic	r3, r3, r2, lsl #16
 1592 0032 C0F81C38 		str	r3, [r0, #2076]
 1593              	.L113:
 747:Drivers/STM32U5xx_HAL_Driver/Src/stm32u5xx_ll_usb.c **** }
 1594              		.loc 1 747 3 is_stmt 1 view .LVU502
 748:Drivers/STM32U5xx_HAL_Driver/Src/stm32u5xx_ll_usb.c **** 
 1595              		.loc 1 748 1 is_stmt 0 view .LVU503
 1596 0036 0020     		movs	r0, #0
 1597              	.LVL126:
ARM GAS  /tmp/cc0vokHo.s 			page 62


 748:Drivers/STM32U5xx_HAL_Driver/Src/stm32u5xx_ll_usb.c **** 
 1598              		.loc 1 748 1 view .LVU504
 1599 0038 7047     		bx	lr
 1600              	.LVL127:
 1601              	.L115:
 726:Drivers/STM32U5xx_HAL_Driver/Src/stm32u5xx_ll_usb.c ****     {
 1602              		.loc 1 726 5 is_stmt 1 view .LVU505
 726:Drivers/STM32U5xx_HAL_Driver/Src/stm32u5xx_ll_usb.c ****     {
 1603              		.loc 1 726 10 is_stmt 0 view .LVU506
 1604 003a 00EB4313 		add	r3, r0, r3, lsl #5
 1605              	.LVL128:
 726:Drivers/STM32U5xx_HAL_Driver/Src/stm32u5xx_ll_usb.c ****     {
 1606              		.loc 1 726 26 view .LVU507
 1607 003e D3F80029 		ldr	r2, [r3, #2304]
 726:Drivers/STM32U5xx_HAL_Driver/Src/stm32u5xx_ll_usb.c ****     {
 1608              		.loc 1 726 8 view .LVU508
 1609 0042 002A     		cmp	r2, #0
 1610 0044 12DB     		blt	.L117
 1611              	.LVL129:
 1612              	.L112:
 732:Drivers/STM32U5xx_HAL_Driver/Src/stm32u5xx_ll_usb.c ****     USBx_DEVICE->DAINTMSK &= ~(USB_OTG_DAINTMSK_IEPM & (uint32_t)(1UL << (ep->num & EP_ADDR_MSK)));
 1613              		.loc 1 732 5 is_stmt 1 view .LVU509
 732:Drivers/STM32U5xx_HAL_Driver/Src/stm32u5xx_ll_usb.c ****     USBx_DEVICE->DAINTMSK &= ~(USB_OTG_DAINTMSK_IEPM & (uint32_t)(1UL << (ep->num & EP_ADDR_MSK)));
 1614              		.loc 1 732 31 is_stmt 0 view .LVU510
 1615 0046 D3F80029 		ldr	r2, [r3, #2304]
 1616 004a 22F40042 		bic	r2, r2, #32768
 1617 004e C3F80029 		str	r2, [r3, #2304]
 733:Drivers/STM32U5xx_HAL_Driver/Src/stm32u5xx_ll_usb.c ****   }
 1618              		.loc 1 733 5 is_stmt 1 view .LVU511
 733:Drivers/STM32U5xx_HAL_Driver/Src/stm32u5xx_ll_usb.c ****   }
 1619              		.loc 1 733 27 is_stmt 0 view .LVU512
 1620 0052 D0F81C28 		ldr	r2, [r0, #2076]
 733:Drivers/STM32U5xx_HAL_Driver/Src/stm32u5xx_ll_usb.c ****   }
 1621              		.loc 1 733 77 view .LVU513
 1622 0056 0B78     		ldrb	r3, [r1]	@ zero_extendqisi2
 733:Drivers/STM32U5xx_HAL_Driver/Src/stm32u5xx_ll_usb.c ****   }
 1623              		.loc 1 733 83 view .LVU514
 1624 0058 03F00F01 		and	r1, r3, #15
 1625              	.LVL130:
 733:Drivers/STM32U5xx_HAL_Driver/Src/stm32u5xx_ll_usb.c ****   }
 1626              		.loc 1 733 56 view .LVU515
 1627 005c 0123     		movs	r3, #1
 1628 005e 8B40     		lsls	r3, r3, r1
 733:Drivers/STM32U5xx_HAL_Driver/Src/stm32u5xx_ll_usb.c ****   }
 1629              		.loc 1 733 54 view .LVU516
 1630 0060 9BB2     		uxth	r3, r3
 733:Drivers/STM32U5xx_HAL_Driver/Src/stm32u5xx_ll_usb.c ****   }
 1631              		.loc 1 733 27 view .LVU517
 1632 0062 22EA0303 		bic	r3, r2, r3
 1633 0066 C0F81C38 		str	r3, [r0, #2076]
 1634 006a E4E7     		b	.L113
 1635              	.LVL131:
 1636              	.L117:
 728:Drivers/STM32U5xx_HAL_Driver/Src/stm32u5xx_ll_usb.c ****       USBx_INEP(epnum)->DIEPCTL  |= USB_OTG_DIEPCTL_EPDIS;
 1637              		.loc 1 728 7 is_stmt 1 view .LVU518
 728:Drivers/STM32U5xx_HAL_Driver/Src/stm32u5xx_ll_usb.c ****       USBx_INEP(epnum)->DIEPCTL  |= USB_OTG_DIEPCTL_EPDIS;
 1638              		.loc 1 728 34 is_stmt 0 view .LVU519
ARM GAS  /tmp/cc0vokHo.s 			page 63


 1639 006c D3F80029 		ldr	r2, [r3, #2304]
 1640 0070 42F00062 		orr	r2, r2, #134217728
 1641 0074 C3F80029 		str	r2, [r3, #2304]
 1642              	.LVL132:
 729:Drivers/STM32U5xx_HAL_Driver/Src/stm32u5xx_ll_usb.c ****     }
 1643              		.loc 1 729 7 is_stmt 1 view .LVU520
 729:Drivers/STM32U5xx_HAL_Driver/Src/stm32u5xx_ll_usb.c ****     }
 1644              		.loc 1 729 34 is_stmt 0 view .LVU521
 1645 0078 D3F80029 		ldr	r2, [r3, #2304]
 1646 007c 42F08042 		orr	r2, r2, #1073741824
 1647 0080 C3F80029 		str	r2, [r3, #2304]
 1648 0084 DFE7     		b	.L112
 1649              	.LVL133:
 1650              	.L116:
 739:Drivers/STM32U5xx_HAL_Driver/Src/stm32u5xx_ll_usb.c ****       USBx_OUTEP(epnum)->DOEPCTL  |= USB_OTG_DOEPCTL_EPDIS;
 1651              		.loc 1 739 7 is_stmt 1 view .LVU522
 739:Drivers/STM32U5xx_HAL_Driver/Src/stm32u5xx_ll_usb.c ****       USBx_OUTEP(epnum)->DOEPCTL  |= USB_OTG_DOEPCTL_EPDIS;
 1652              		.loc 1 739 35 is_stmt 0 view .LVU523
 1653 0086 D3F8002B 		ldr	r2, [r3, #2816]
 1654 008a 42F00062 		orr	r2, r2, #134217728
 1655 008e C3F8002B 		str	r2, [r3, #2816]
 1656              	.LVL134:
 740:Drivers/STM32U5xx_HAL_Driver/Src/stm32u5xx_ll_usb.c ****     }
 1657              		.loc 1 740 7 is_stmt 1 view .LVU524
 740:Drivers/STM32U5xx_HAL_Driver/Src/stm32u5xx_ll_usb.c ****     }
 1658              		.loc 1 740 35 is_stmt 0 view .LVU525
 1659 0092 D3F8002B 		ldr	r2, [r3, #2816]
 1660 0096 42F08042 		orr	r2, r2, #1073741824
 1661 009a C3F8002B 		str	r2, [r3, #2816]
 1662 009e B9E7     		b	.L114
 1663              		.cfi_endproc
 1664              	.LFE358:
 1666              		.section	.text.USB_EPStopXfer,"ax",%progbits
 1667              		.align	1
 1668              		.global	USB_EPStopXfer
 1669              		.syntax unified
 1670              		.thumb
 1671              		.thumb_func
 1673              	USB_EPStopXfer:
 1674              	.LVL135:
 1675              	.LFB360:
 933:Drivers/STM32U5xx_HAL_Driver/Src/stm32u5xx_ll_usb.c ****   __IO uint32_t count = 0U;
 1676              		.loc 1 933 1 is_stmt 1 view -0
 1677              		.cfi_startproc
 1678              		@ args = 0, pretend = 0, frame = 8
 1679              		@ frame_needed = 0, uses_anonymous_args = 0
 1680              		@ link register save eliminated.
 933:Drivers/STM32U5xx_HAL_Driver/Src/stm32u5xx_ll_usb.c ****   __IO uint32_t count = 0U;
 1681              		.loc 1 933 1 is_stmt 0 view .LVU527
 1682 0000 10B4     		push	{r4}
 1683              	.LCFI24:
 1684              		.cfi_def_cfa_offset 4
 1685              		.cfi_offset 4, -4
 1686 0002 83B0     		sub	sp, sp, #12
 1687              	.LCFI25:
 1688              		.cfi_def_cfa_offset 16
 1689 0004 0246     		mov	r2, r0
ARM GAS  /tmp/cc0vokHo.s 			page 64


 934:Drivers/STM32U5xx_HAL_Driver/Src/stm32u5xx_ll_usb.c ****   HAL_StatusTypeDef ret = HAL_OK;
 1690              		.loc 1 934 3 is_stmt 1 view .LVU528
 934:Drivers/STM32U5xx_HAL_Driver/Src/stm32u5xx_ll_usb.c ****   HAL_StatusTypeDef ret = HAL_OK;
 1691              		.loc 1 934 17 is_stmt 0 view .LVU529
 1692 0006 0023     		movs	r3, #0
 1693 0008 0193     		str	r3, [sp, #4]
 935:Drivers/STM32U5xx_HAL_Driver/Src/stm32u5xx_ll_usb.c ****   uint32_t USBx_BASE = (uint32_t)USBx;
 1694              		.loc 1 935 3 is_stmt 1 view .LVU530
 1695              	.LVL136:
 936:Drivers/STM32U5xx_HAL_Driver/Src/stm32u5xx_ll_usb.c **** 
 1696              		.loc 1 936 3 view .LVU531
 939:Drivers/STM32U5xx_HAL_Driver/Src/stm32u5xx_ll_usb.c ****   {
 1697              		.loc 1 939 3 view .LVU532
 939:Drivers/STM32U5xx_HAL_Driver/Src/stm32u5xx_ll_usb.c ****   {
 1698              		.loc 1 939 9 is_stmt 0 view .LVU533
 1699 000a 4878     		ldrb	r0, [r1, #1]	@ zero_extendqisi2
 1700              	.LVL137:
 939:Drivers/STM32U5xx_HAL_Driver/Src/stm32u5xx_ll_usb.c ****   {
 1701              		.loc 1 939 6 view .LVU534
 1702 000c 0128     		cmp	r0, #1
 1703 000e 0BD0     		beq	.L127
 961:Drivers/STM32U5xx_HAL_Driver/Src/stm32u5xx_ll_usb.c ****     {
 1704              		.loc 1 961 5 is_stmt 1 view .LVU535
 961:Drivers/STM32U5xx_HAL_Driver/Src/stm32u5xx_ll_usb.c ****     {
 1705              		.loc 1 961 11 is_stmt 0 view .LVU536
 1706 0010 0B78     		ldrb	r3, [r1]	@ zero_extendqisi2
 1707 0012 02EB4313 		add	r3, r2, r3, lsl #5
 961:Drivers/STM32U5xx_HAL_Driver/Src/stm32u5xx_ll_usb.c ****     {
 1708              		.loc 1 961 30 view .LVU537
 1709 0016 D3F8000B 		ldr	r0, [r3, #2816]
 961:Drivers/STM32U5xx_HAL_Driver/Src/stm32u5xx_ll_usb.c ****     {
 1710              		.loc 1 961 8 view .LVU538
 1711 001a 0028     		cmp	r0, #0
 1712 001c 2DDB     		blt	.L128
 935:Drivers/STM32U5xx_HAL_Driver/Src/stm32u5xx_ll_usb.c ****   uint32_t USBx_BASE = (uint32_t)USBx;
 1713              		.loc 1 935 21 view .LVU539
 1714 001e 0020     		movs	r0, #0
 1715              	.L120:
 1716              	.LVL138:
 979:Drivers/STM32U5xx_HAL_Driver/Src/stm32u5xx_ll_usb.c **** }
 1717              		.loc 1 979 3 is_stmt 1 view .LVU540
 980:Drivers/STM32U5xx_HAL_Driver/Src/stm32u5xx_ll_usb.c **** 
 1718              		.loc 1 980 1 is_stmt 0 view .LVU541
 1719 0020 03B0     		add	sp, sp, #12
 1720              	.LCFI26:
 1721              		.cfi_remember_state
 1722              		.cfi_def_cfa_offset 4
 1723              		@ sp needed
 1724 0022 5DF8044B 		ldr	r4, [sp], #4
 1725              	.LCFI27:
 1726              		.cfi_restore 4
 1727              		.cfi_def_cfa_offset 0
 1728 0026 7047     		bx	lr
 1729              	.LVL139:
 1730              	.L127:
 1731              	.LCFI28:
 1732              		.cfi_restore_state
ARM GAS  /tmp/cc0vokHo.s 			page 65


 942:Drivers/STM32U5xx_HAL_Driver/Src/stm32u5xx_ll_usb.c ****     {
 1733              		.loc 1 942 5 is_stmt 1 view .LVU542
 942:Drivers/STM32U5xx_HAL_Driver/Src/stm32u5xx_ll_usb.c ****     {
 1734              		.loc 1 942 11 is_stmt 0 view .LVU543
 1735 0028 0B78     		ldrb	r3, [r1]	@ zero_extendqisi2
 1736 002a 02EB4313 		add	r3, r2, r3, lsl #5
 942:Drivers/STM32U5xx_HAL_Driver/Src/stm32u5xx_ll_usb.c ****     {
 1737              		.loc 1 942 29 view .LVU544
 1738 002e D3F80049 		ldr	r4, [r3, #2304]
 942:Drivers/STM32U5xx_HAL_Driver/Src/stm32u5xx_ll_usb.c ****     {
 1739              		.loc 1 942 8 view .LVU545
 1740 0032 002C     		cmp	r4, #0
 1741 0034 01DB     		blt	.L129
 935:Drivers/STM32U5xx_HAL_Driver/Src/stm32u5xx_ll_usb.c ****   uint32_t USBx_BASE = (uint32_t)USBx;
 1742              		.loc 1 935 21 view .LVU546
 1743 0036 0020     		movs	r0, #0
 1744 0038 F2E7     		b	.L120
 1745              	.L129:
 944:Drivers/STM32U5xx_HAL_Driver/Src/stm32u5xx_ll_usb.c ****       USBx_INEP(ep->num)->DIEPCTL |= (USB_OTG_DIEPCTL_EPDIS);
 1746              		.loc 1 944 7 is_stmt 1 view .LVU547
 944:Drivers/STM32U5xx_HAL_Driver/Src/stm32u5xx_ll_usb.c ****       USBx_INEP(ep->num)->DIEPCTL |= (USB_OTG_DIEPCTL_EPDIS);
 1747              		.loc 1 944 35 is_stmt 0 view .LVU548
 1748 003a D3F80049 		ldr	r4, [r3, #2304]
 1749 003e 44F00064 		orr	r4, r4, #134217728
 1750 0042 C3F80049 		str	r4, [r3, #2304]
 945:Drivers/STM32U5xx_HAL_Driver/Src/stm32u5xx_ll_usb.c **** 
 1751              		.loc 1 945 7 is_stmt 1 view .LVU549
 1752 0046 0B78     		ldrb	r3, [r1]	@ zero_extendqisi2
 945:Drivers/STM32U5xx_HAL_Driver/Src/stm32u5xx_ll_usb.c **** 
 1753              		.loc 1 945 35 is_stmt 0 view .LVU550
 1754 0048 02EB4313 		add	r3, r2, r3, lsl #5
 1755 004c D3F80049 		ldr	r4, [r3, #2304]
 1756 0050 44F08044 		orr	r4, r4, #1073741824
 1757 0054 C3F80049 		str	r4, [r3, #2304]
 1758              	.L121:
 947:Drivers/STM32U5xx_HAL_Driver/Src/stm32u5xx_ll_usb.c ****       {
 1759              		.loc 1 947 7 is_stmt 1 view .LVU551
 949:Drivers/STM32U5xx_HAL_Driver/Src/stm32u5xx_ll_usb.c **** 
 1760              		.loc 1 949 9 view .LVU552
 949:Drivers/STM32U5xx_HAL_Driver/Src/stm32u5xx_ll_usb.c **** 
 1761              		.loc 1 949 14 is_stmt 0 view .LVU553
 1762 0058 019B     		ldr	r3, [sp, #4]
 1763 005a 0133     		adds	r3, r3, #1
 1764 005c 0193     		str	r3, [sp, #4]
 951:Drivers/STM32U5xx_HAL_Driver/Src/stm32u5xx_ll_usb.c ****         {
 1765              		.loc 1 951 9 is_stmt 1 view .LVU554
 951:Drivers/STM32U5xx_HAL_Driver/Src/stm32u5xx_ll_usb.c ****         {
 1766              		.loc 1 951 19 is_stmt 0 view .LVU555
 1767 005e 019C     		ldr	r4, [sp, #4]
 951:Drivers/STM32U5xx_HAL_Driver/Src/stm32u5xx_ll_usb.c ****         {
 1768              		.loc 1 951 12 view .LVU556
 1769 0060 42F21073 		movw	r3, #10000
 1770 0064 9C42     		cmp	r4, r3
 1771 0066 DBD8     		bhi	.L120
 956:Drivers/STM32U5xx_HAL_Driver/Src/stm32u5xx_ll_usb.c ****     }
 1772              		.loc 1 956 15 is_stmt 1 view .LVU557
 956:Drivers/STM32U5xx_HAL_Driver/Src/stm32u5xx_ll_usb.c ****     }
ARM GAS  /tmp/cc0vokHo.s 			page 66


 1773              		.loc 1 956 18 is_stmt 0 view .LVU558
 1774 0068 0B78     		ldrb	r3, [r1]	@ zero_extendqisi2
 1775 006a 02EB4313 		add	r3, r2, r3, lsl #5
 956:Drivers/STM32U5xx_HAL_Driver/Src/stm32u5xx_ll_usb.c ****     }
 1776              		.loc 1 956 36 view .LVU559
 1777 006e D3F80039 		ldr	r3, [r3, #2304]
 956:Drivers/STM32U5xx_HAL_Driver/Src/stm32u5xx_ll_usb.c ****     }
 1778              		.loc 1 956 7 view .LVU560
 1779 0072 002B     		cmp	r3, #0
 1780 0074 F0DB     		blt	.L121
 935:Drivers/STM32U5xx_HAL_Driver/Src/stm32u5xx_ll_usb.c ****   uint32_t USBx_BASE = (uint32_t)USBx;
 1781              		.loc 1 935 21 view .LVU561
 1782 0076 0020     		movs	r0, #0
 1783 0078 D2E7     		b	.L120
 1784              	.L128:
 963:Drivers/STM32U5xx_HAL_Driver/Src/stm32u5xx_ll_usb.c ****       USBx_OUTEP(ep->num)->DOEPCTL |= (USB_OTG_DOEPCTL_EPDIS);
 1785              		.loc 1 963 7 is_stmt 1 view .LVU562
 963:Drivers/STM32U5xx_HAL_Driver/Src/stm32u5xx_ll_usb.c ****       USBx_OUTEP(ep->num)->DOEPCTL |= (USB_OTG_DOEPCTL_EPDIS);
 1786              		.loc 1 963 36 is_stmt 0 view .LVU563
 1787 007a D3F8000B 		ldr	r0, [r3, #2816]
 1788 007e 40F00060 		orr	r0, r0, #134217728
 1789 0082 C3F8000B 		str	r0, [r3, #2816]
 964:Drivers/STM32U5xx_HAL_Driver/Src/stm32u5xx_ll_usb.c **** 
 1790              		.loc 1 964 7 is_stmt 1 view .LVU564
 1791 0086 0B78     		ldrb	r3, [r1]	@ zero_extendqisi2
 964:Drivers/STM32U5xx_HAL_Driver/Src/stm32u5xx_ll_usb.c **** 
 1792              		.loc 1 964 36 is_stmt 0 view .LVU565
 1793 0088 02EB4313 		add	r3, r2, r3, lsl #5
 1794 008c D3F8000B 		ldr	r0, [r3, #2816]
 1795 0090 40F08040 		orr	r0, r0, #1073741824
 1796 0094 C3F8000B 		str	r0, [r3, #2816]
 1797              	.L122:
 966:Drivers/STM32U5xx_HAL_Driver/Src/stm32u5xx_ll_usb.c ****       {
 1798              		.loc 1 966 7 is_stmt 1 view .LVU566
 968:Drivers/STM32U5xx_HAL_Driver/Src/stm32u5xx_ll_usb.c **** 
 1799              		.loc 1 968 9 view .LVU567
 968:Drivers/STM32U5xx_HAL_Driver/Src/stm32u5xx_ll_usb.c **** 
 1800              		.loc 1 968 14 is_stmt 0 view .LVU568
 1801 0098 019B     		ldr	r3, [sp, #4]
 1802 009a 0133     		adds	r3, r3, #1
 1803 009c 0193     		str	r3, [sp, #4]
 970:Drivers/STM32U5xx_HAL_Driver/Src/stm32u5xx_ll_usb.c ****         {
 1804              		.loc 1 970 9 is_stmt 1 view .LVU569
 970:Drivers/STM32U5xx_HAL_Driver/Src/stm32u5xx_ll_usb.c ****         {
 1805              		.loc 1 970 19 is_stmt 0 view .LVU570
 1806 009e 0198     		ldr	r0, [sp, #4]
 970:Drivers/STM32U5xx_HAL_Driver/Src/stm32u5xx_ll_usb.c ****         {
 1807              		.loc 1 970 12 view .LVU571
 1808 00a0 42F21073 		movw	r3, #10000
 1809 00a4 9842     		cmp	r0, r3
 1810 00a6 08D8     		bhi	.L125
 975:Drivers/STM32U5xx_HAL_Driver/Src/stm32u5xx_ll_usb.c ****     }
 1811              		.loc 1 975 15 is_stmt 1 view .LVU572
 975:Drivers/STM32U5xx_HAL_Driver/Src/stm32u5xx_ll_usb.c ****     }
 1812              		.loc 1 975 18 is_stmt 0 view .LVU573
 1813 00a8 0B78     		ldrb	r3, [r1]	@ zero_extendqisi2
 1814 00aa 02EB4313 		add	r3, r2, r3, lsl #5
ARM GAS  /tmp/cc0vokHo.s 			page 67


 975:Drivers/STM32U5xx_HAL_Driver/Src/stm32u5xx_ll_usb.c ****     }
 1815              		.loc 1 975 37 view .LVU574
 1816 00ae D3F8003B 		ldr	r3, [r3, #2816]
 975:Drivers/STM32U5xx_HAL_Driver/Src/stm32u5xx_ll_usb.c ****     }
 1817              		.loc 1 975 7 view .LVU575
 1818 00b2 002B     		cmp	r3, #0
 1819 00b4 F0DB     		blt	.L122
 935:Drivers/STM32U5xx_HAL_Driver/Src/stm32u5xx_ll_usb.c ****   uint32_t USBx_BASE = (uint32_t)USBx;
 1820              		.loc 1 935 21 view .LVU576
 1821 00b6 0020     		movs	r0, #0
 1822 00b8 B2E7     		b	.L120
 1823              	.L125:
 972:Drivers/STM32U5xx_HAL_Driver/Src/stm32u5xx_ll_usb.c ****           break;
 1824              		.loc 1 972 15 view .LVU577
 1825 00ba 0120     		movs	r0, #1
 1826 00bc B0E7     		b	.L120
 1827              		.cfi_endproc
 1828              	.LFE360:
 1830              		.section	.text.USB_WritePacket,"ax",%progbits
 1831              		.align	1
 1832              		.global	USB_WritePacket
 1833              		.syntax unified
 1834              		.thumb
 1835              		.thumb_func
 1837              	USB_WritePacket:
 1838              	.LVL140:
 1839              	.LFB361:
 998:Drivers/STM32U5xx_HAL_Driver/Src/stm32u5xx_ll_usb.c ****   uint32_t USBx_BASE = (uint32_t)USBx;
 1840              		.loc 1 998 1 is_stmt 1 view -0
 1841              		.cfi_startproc
 1842              		@ args = 4, pretend = 0, frame = 0
 1843              		@ frame_needed = 0, uses_anonymous_args = 0
 998:Drivers/STM32U5xx_HAL_Driver/Src/stm32u5xx_ll_usb.c ****   uint32_t USBx_BASE = (uint32_t)USBx;
 1844              		.loc 1 998 1 is_stmt 0 view .LVU579
 1845 0000 10B5     		push	{r4, lr}
 1846              	.LCFI29:
 1847              		.cfi_def_cfa_offset 8
 1848              		.cfi_offset 4, -8
 1849              		.cfi_offset 14, -4
 1850 0002 9DF80840 		ldrb	r4, [sp, #8]	@ zero_extendqisi2
 999:Drivers/STM32U5xx_HAL_Driver/Src/stm32u5xx_ll_usb.c ****   uint8_t *pSrc = src;
 1851              		.loc 1 999 3 is_stmt 1 view .LVU580
 1852              	.LVL141:
1000:Drivers/STM32U5xx_HAL_Driver/Src/stm32u5xx_ll_usb.c ****   uint32_t count32b;
 1853              		.loc 1 1000 3 view .LVU581
1001:Drivers/STM32U5xx_HAL_Driver/Src/stm32u5xx_ll_usb.c ****   uint32_t i;
 1854              		.loc 1 1001 3 view .LVU582
1002:Drivers/STM32U5xx_HAL_Driver/Src/stm32u5xx_ll_usb.c **** 
 1855              		.loc 1 1002 3 view .LVU583
1004:Drivers/STM32U5xx_HAL_Driver/Src/stm32u5xx_ll_usb.c ****   {
 1856              		.loc 1 1004 3 view .LVU584
1004:Drivers/STM32U5xx_HAL_Driver/Src/stm32u5xx_ll_usb.c ****   {
 1857              		.loc 1 1004 6 is_stmt 0 view .LVU585
 1858 0006 84B9     		cbnz	r4, .L131
1006:Drivers/STM32U5xx_HAL_Driver/Src/stm32u5xx_ll_usb.c ****     for (i = 0U; i < count32b; i++)
 1859              		.loc 1 1006 5 is_stmt 1 view .LVU586
1006:Drivers/STM32U5xx_HAL_Driver/Src/stm32u5xx_ll_usb.c ****     for (i = 0U; i < count32b; i++)
ARM GAS  /tmp/cc0vokHo.s 			page 68


 1860              		.loc 1 1006 31 is_stmt 0 view .LVU587
 1861 0008 0333     		adds	r3, r3, #3
 1862              	.LVL142:
1006:Drivers/STM32U5xx_HAL_Driver/Src/stm32u5xx_ll_usb.c ****     for (i = 0U; i < count32b; i++)
 1863              		.loc 1 1006 14 view .LVU588
 1864 000a 4FEA930E 		lsr	lr, r3, #2
 1865              	.LVL143:
1007:Drivers/STM32U5xx_HAL_Driver/Src/stm32u5xx_ll_usb.c ****     {
 1866              		.loc 1 1007 5 is_stmt 1 view .LVU589
1007:Drivers/STM32U5xx_HAL_Driver/Src/stm32u5xx_ll_usb.c ****     {
 1867              		.loc 1 1007 12 is_stmt 0 view .LVU590
 1868 000e 4FF0000C 		mov	ip, #0
1007:Drivers/STM32U5xx_HAL_Driver/Src/stm32u5xx_ll_usb.c ****     {
 1869              		.loc 1 1007 5 view .LVU591
 1870 0012 08E0     		b	.L132
 1871              	.LVL144:
 1872              	.L133:
1009:Drivers/STM32U5xx_HAL_Driver/Src/stm32u5xx_ll_usb.c ****       pSrc++;
 1873              		.loc 1 1009 7 is_stmt 1 discriminator 3 view .LVU592
 1874 0014 00EB0233 		add	r3, r0, r2, lsl #12
 1875 0018 03F58053 		add	r3, r3, #4096
1009:Drivers/STM32U5xx_HAL_Driver/Src/stm32u5xx_ll_usb.c ****       pSrc++;
 1876              		.loc 1 1009 41 is_stmt 0 discriminator 3 view .LVU593
 1877 001c 51F8044B 		ldr	r4, [r1], #4	@ unaligned
 1878              	.LVL145:
1009:Drivers/STM32U5xx_HAL_Driver/Src/stm32u5xx_ll_usb.c ****       pSrc++;
 1879              		.loc 1 1009 39 discriminator 3 view .LVU594
 1880 0020 1C60     		str	r4, [r3]
1010:Drivers/STM32U5xx_HAL_Driver/Src/stm32u5xx_ll_usb.c ****       pSrc++;
 1881              		.loc 1 1010 7 is_stmt 1 discriminator 3 view .LVU595
 1882              	.LVL146:
1011:Drivers/STM32U5xx_HAL_Driver/Src/stm32u5xx_ll_usb.c ****       pSrc++;
 1883              		.loc 1 1011 7 discriminator 3 view .LVU596
1012:Drivers/STM32U5xx_HAL_Driver/Src/stm32u5xx_ll_usb.c ****       pSrc++;
 1884              		.loc 1 1012 7 discriminator 3 view .LVU597
1013:Drivers/STM32U5xx_HAL_Driver/Src/stm32u5xx_ll_usb.c ****     }
 1885              		.loc 1 1013 7 discriminator 3 view .LVU598
1007:Drivers/STM32U5xx_HAL_Driver/Src/stm32u5xx_ll_usb.c ****     {
 1886              		.loc 1 1007 32 discriminator 3 view .LVU599
1007:Drivers/STM32U5xx_HAL_Driver/Src/stm32u5xx_ll_usb.c ****     {
 1887              		.loc 1 1007 33 is_stmt 0 discriminator 3 view .LVU600
 1888 0022 0CF1010C 		add	ip, ip, #1
 1889              	.LVL147:
 1890              	.L132:
1007:Drivers/STM32U5xx_HAL_Driver/Src/stm32u5xx_ll_usb.c ****     {
 1891              		.loc 1 1007 18 is_stmt 1 discriminator 1 view .LVU601
1007:Drivers/STM32U5xx_HAL_Driver/Src/stm32u5xx_ll_usb.c ****     {
 1892              		.loc 1 1007 5 is_stmt 0 discriminator 1 view .LVU602
 1893 0026 F445     		cmp	ip, lr
 1894 0028 F4D3     		bcc	.L133
 1895              	.LVL148:
 1896              	.L131:
1017:Drivers/STM32U5xx_HAL_Driver/Src/stm32u5xx_ll_usb.c **** }
 1897              		.loc 1 1017 3 is_stmt 1 view .LVU603
1018:Drivers/STM32U5xx_HAL_Driver/Src/stm32u5xx_ll_usb.c **** 
 1898              		.loc 1 1018 1 is_stmt 0 view .LVU604
 1899 002a 0020     		movs	r0, #0
ARM GAS  /tmp/cc0vokHo.s 			page 69


 1900              	.LVL149:
1018:Drivers/STM32U5xx_HAL_Driver/Src/stm32u5xx_ll_usb.c **** 
 1901              		.loc 1 1018 1 view .LVU605
 1902 002c 10BD     		pop	{r4, pc}
1018:Drivers/STM32U5xx_HAL_Driver/Src/stm32u5xx_ll_usb.c **** 
 1903              		.loc 1 1018 1 view .LVU606
 1904              		.cfi_endproc
 1905              	.LFE361:
 1907              		.section	.text.USB_EPStartXfer,"ax",%progbits
 1908              		.align	1
 1909              		.global	USB_EPStartXfer
 1910              		.syntax unified
 1911              		.thumb
 1912              		.thumb_func
 1914              	USB_EPStartXfer:
 1915              	.LVL150:
 1916              	.LFB359:
 761:Drivers/STM32U5xx_HAL_Driver/Src/stm32u5xx_ll_usb.c ****   uint32_t USBx_BASE = (uint32_t)USBx;
 1917              		.loc 1 761 1 is_stmt 1 view -0
 1918              		.cfi_startproc
 1919              		@ args = 0, pretend = 0, frame = 0
 1920              		@ frame_needed = 0, uses_anonymous_args = 0
 761:Drivers/STM32U5xx_HAL_Driver/Src/stm32u5xx_ll_usb.c ****   uint32_t USBx_BASE = (uint32_t)USBx;
 1921              		.loc 1 761 1 is_stmt 0 view .LVU608
 1922 0000 F0B5     		push	{r4, r5, r6, r7, lr}
 1923              	.LCFI30:
 1924              		.cfi_def_cfa_offset 20
 1925              		.cfi_offset 4, -20
 1926              		.cfi_offset 5, -16
 1927              		.cfi_offset 6, -12
 1928              		.cfi_offset 7, -8
 1929              		.cfi_offset 14, -4
 1930 0002 83B0     		sub	sp, sp, #12
 1931              	.LCFI31:
 1932              		.cfi_def_cfa_offset 32
 762:Drivers/STM32U5xx_HAL_Driver/Src/stm32u5xx_ll_usb.c ****   uint32_t epnum = (uint32_t)ep->num;
 1933              		.loc 1 762 3 is_stmt 1 view .LVU609
 1934              	.LVL151:
 763:Drivers/STM32U5xx_HAL_Driver/Src/stm32u5xx_ll_usb.c ****   uint16_t pktcnt;
 1935              		.loc 1 763 3 view .LVU610
 763:Drivers/STM32U5xx_HAL_Driver/Src/stm32u5xx_ll_usb.c ****   uint16_t pktcnt;
 1936              		.loc 1 763 32 is_stmt 0 view .LVU611
 1937 0004 0C78     		ldrb	r4, [r1]	@ zero_extendqisi2
 1938              	.LVL152:
 764:Drivers/STM32U5xx_HAL_Driver/Src/stm32u5xx_ll_usb.c **** 
 1939              		.loc 1 764 3 is_stmt 1 view .LVU612
 767:Drivers/STM32U5xx_HAL_Driver/Src/stm32u5xx_ll_usb.c ****   {
 1940              		.loc 1 767 3 view .LVU613
 767:Drivers/STM32U5xx_HAL_Driver/Src/stm32u5xx_ll_usb.c ****   {
 1941              		.loc 1 767 9 is_stmt 0 view .LVU614
 1942 0006 4B78     		ldrb	r3, [r1, #1]	@ zero_extendqisi2
 767:Drivers/STM32U5xx_HAL_Driver/Src/stm32u5xx_ll_usb.c ****   {
 1943              		.loc 1 767 6 view .LVU615
 1944 0008 012B     		cmp	r3, #1
 1945 000a 2FD0     		beq	.L158
 866:Drivers/STM32U5xx_HAL_Driver/Src/stm32u5xx_ll_usb.c ****     USBx_OUTEP(epnum)->DOEPTSIZ &= ~(USB_OTG_DOEPTSIZ_PKTCNT);
 1946              		.loc 1 866 5 is_stmt 1 view .LVU616
ARM GAS  /tmp/cc0vokHo.s 			page 70


 866:Drivers/STM32U5xx_HAL_Driver/Src/stm32u5xx_ll_usb.c ****     USBx_OUTEP(epnum)->DOEPTSIZ &= ~(USB_OTG_DOEPTSIZ_PKTCNT);
 1947              		.loc 1 866 33 is_stmt 0 view .LVU617
 1948 000c 00EB441C 		add	ip, r0, r4, lsl #5
 1949 0010 0CF53063 		add	r3, ip, #2816
 1950 0014 1D69     		ldr	r5, [r3, #16]
 1951 0016 ED0C     		lsrs	r5, r5, #19
 1952 0018 ED04     		lsls	r5, r5, #19
 1953 001a 1D61     		str	r5, [r3, #16]
 867:Drivers/STM32U5xx_HAL_Driver/Src/stm32u5xx_ll_usb.c **** 
 1954              		.loc 1 867 5 is_stmt 1 view .LVU618
 867:Drivers/STM32U5xx_HAL_Driver/Src/stm32u5xx_ll_usb.c **** 
 1955              		.loc 1 867 33 is_stmt 0 view .LVU619
 1956 001c 1D69     		ldr	r5, [r3, #16]
 1957 001e 25F0FF55 		bic	r5, r5, #534773760
 1958 0022 25F4C015 		bic	r5, r5, #1572864
 1959 0026 1D61     		str	r5, [r3, #16]
 869:Drivers/STM32U5xx_HAL_Driver/Src/stm32u5xx_ll_usb.c ****     {
 1960              		.loc 1 869 5 is_stmt 1 view .LVU620
 869:Drivers/STM32U5xx_HAL_Driver/Src/stm32u5xx_ll_usb.c ****     {
 1961              		.loc 1 869 8 is_stmt 0 view .LVU621
 1962 0028 002C     		cmp	r4, #0
 1963 002a 40F0CC80 		bne	.L150
 871:Drivers/STM32U5xx_HAL_Driver/Src/stm32u5xx_ll_usb.c ****       {
 1964              		.loc 1 871 7 is_stmt 1 view .LVU622
 871:Drivers/STM32U5xx_HAL_Driver/Src/stm32u5xx_ll_usb.c ****       {
 1965              		.loc 1 871 13 is_stmt 0 view .LVU623
 1966 002e 0C69     		ldr	r4, [r1, #16]
 1967              	.LVL153:
 871:Drivers/STM32U5xx_HAL_Driver/Src/stm32u5xx_ll_usb.c ****       {
 1968              		.loc 1 871 10 view .LVU624
 1969 0030 0CB1     		cbz	r4, .L151
 873:Drivers/STM32U5xx_HAL_Driver/Src/stm32u5xx_ll_usb.c ****       }
 1970              		.loc 1 873 9 is_stmt 1 view .LVU625
 873:Drivers/STM32U5xx_HAL_Driver/Src/stm32u5xx_ll_usb.c ****       }
 1971              		.loc 1 873 26 is_stmt 0 view .LVU626
 1972 0032 8C68     		ldr	r4, [r1, #8]
 873:Drivers/STM32U5xx_HAL_Driver/Src/stm32u5xx_ll_usb.c ****       }
 1973              		.loc 1 873 22 view .LVU627
 1974 0034 0C61     		str	r4, [r1, #16]
 1975              	.L151:
 877:Drivers/STM32U5xx_HAL_Driver/Src/stm32u5xx_ll_usb.c **** 
 1976              		.loc 1 877 7 is_stmt 1 view .LVU628
 877:Drivers/STM32U5xx_HAL_Driver/Src/stm32u5xx_ll_usb.c **** 
 1977              		.loc 1 877 25 is_stmt 0 view .LVU629
 1978 0036 8C68     		ldr	r4, [r1, #8]
 877:Drivers/STM32U5xx_HAL_Driver/Src/stm32u5xx_ll_usb.c **** 
 1979              		.loc 1 877 21 view .LVU630
 1980 0038 0C62     		str	r4, [r1, #32]
 879:Drivers/STM32U5xx_HAL_Driver/Src/stm32u5xx_ll_usb.c ****       USBx_OUTEP(epnum)->DOEPTSIZ |= (USB_OTG_DOEPTSIZ_PKTCNT & (1U << 19));
 1981              		.loc 1 879 7 is_stmt 1 view .LVU631
 879:Drivers/STM32U5xx_HAL_Driver/Src/stm32u5xx_ll_usb.c ****       USBx_OUTEP(epnum)->DOEPTSIZ |= (USB_OTG_DOEPTSIZ_PKTCNT & (1U << 19));
 1982              		.loc 1 879 35 is_stmt 0 view .LVU632
 1983 003a 1D69     		ldr	r5, [r3, #16]
 879:Drivers/STM32U5xx_HAL_Driver/Src/stm32u5xx_ll_usb.c ****       USBx_OUTEP(epnum)->DOEPTSIZ |= (USB_OTG_DOEPTSIZ_PKTCNT & (1U << 19));
 1984              		.loc 1 879 63 view .LVU633
 1985 003c C4F31204 		ubfx	r4, r4, #0, #19
 879:Drivers/STM32U5xx_HAL_Driver/Src/stm32u5xx_ll_usb.c ****       USBx_OUTEP(epnum)->DOEPTSIZ |= (USB_OTG_DOEPTSIZ_PKTCNT & (1U << 19));
ARM GAS  /tmp/cc0vokHo.s 			page 71


 1986              		.loc 1 879 35 view .LVU634
 1987 0040 2C43     		orrs	r4, r4, r5
 1988 0042 1C61     		str	r4, [r3, #16]
 880:Drivers/STM32U5xx_HAL_Driver/Src/stm32u5xx_ll_usb.c ****     }
 1989              		.loc 1 880 7 is_stmt 1 view .LVU635
 880:Drivers/STM32U5xx_HAL_Driver/Src/stm32u5xx_ll_usb.c ****     }
 1990              		.loc 1 880 35 is_stmt 0 view .LVU636
 1991 0044 1C69     		ldr	r4, [r3, #16]
 1992 0046 44F40024 		orr	r4, r4, #524288
 1993 004a 1C61     		str	r4, [r3, #16]
 1994              	.L152:
 899:Drivers/STM32U5xx_HAL_Driver/Src/stm32u5xx_ll_usb.c ****     {
 1995              		.loc 1 899 5 is_stmt 1 view .LVU637
 899:Drivers/STM32U5xx_HAL_Driver/Src/stm32u5xx_ll_usb.c ****     {
 1996              		.loc 1 899 8 is_stmt 0 view .LVU638
 1997 004c 012A     		cmp	r2, #1
 1998 004e 00F0DD80 		beq	.L159
 1999              	.LVL154:
 2000              	.L154:
 907:Drivers/STM32U5xx_HAL_Driver/Src/stm32u5xx_ll_usb.c ****     {
 2001              		.loc 1 907 5 is_stmt 1 view .LVU639
 907:Drivers/STM32U5xx_HAL_Driver/Src/stm32u5xx_ll_usb.c ****     {
 2002              		.loc 1 907 11 is_stmt 0 view .LVU640
 2003 0052 0B79     		ldrb	r3, [r1, #4]	@ zero_extendqisi2
 907:Drivers/STM32U5xx_HAL_Driver/Src/stm32u5xx_ll_usb.c ****     {
 2004              		.loc 1 907 8 view .LVU641
 2005 0054 012B     		cmp	r3, #1
 2006 0056 00F0DF80 		beq	.L160
 2007              	.L155:
 919:Drivers/STM32U5xx_HAL_Driver/Src/stm32u5xx_ll_usb.c ****   }
 2008              		.loc 1 919 5 is_stmt 1 view .LVU642
 919:Drivers/STM32U5xx_HAL_Driver/Src/stm32u5xx_ll_usb.c ****   }
 2009              		.loc 1 919 32 is_stmt 0 view .LVU643
 2010 005a DCF8003B 		ldr	r3, [ip, #2816]
 2011 005e 43F00443 		orr	r3, r3, #-2080374784
 2012 0062 CCF8003B 		str	r3, [ip, #2816]
 2013              	.LVL155:
 2014              	.L146:
 922:Drivers/STM32U5xx_HAL_Driver/Src/stm32u5xx_ll_usb.c **** }
 2015              		.loc 1 922 3 is_stmt 1 view .LVU644
 923:Drivers/STM32U5xx_HAL_Driver/Src/stm32u5xx_ll_usb.c **** 
 2016              		.loc 1 923 1 is_stmt 0 view .LVU645
 2017 0066 0020     		movs	r0, #0
 2018 0068 03B0     		add	sp, sp, #12
 2019              	.LCFI32:
 2020              		.cfi_remember_state
 2021              		.cfi_def_cfa_offset 20
 2022              		@ sp needed
 2023 006a F0BD     		pop	{r4, r5, r6, r7, pc}
 2024              	.LVL156:
 2025              	.L158:
 2026              	.LCFI33:
 2027              		.cfi_restore_state
 770:Drivers/STM32U5xx_HAL_Driver/Src/stm32u5xx_ll_usb.c ****     {
 2028              		.loc 1 770 5 is_stmt 1 view .LVU646
 770:Drivers/STM32U5xx_HAL_Driver/Src/stm32u5xx_ll_usb.c ****     {
 2029              		.loc 1 770 11 is_stmt 0 view .LVU647
ARM GAS  /tmp/cc0vokHo.s 			page 72


 2030 006c 0B69     		ldr	r3, [r1, #16]
 770:Drivers/STM32U5xx_HAL_Driver/Src/stm32u5xx_ll_usb.c ****     {
 2031              		.loc 1 770 8 view .LVU648
 2032 006e 83BB     		cbnz	r3, .L137
 772:Drivers/STM32U5xx_HAL_Driver/Src/stm32u5xx_ll_usb.c ****       USBx_INEP(epnum)->DIEPTSIZ |= (USB_OTG_DIEPTSIZ_PKTCNT & (1U << 19));
 2033              		.loc 1 772 7 is_stmt 1 view .LVU649
 772:Drivers/STM32U5xx_HAL_Driver/Src/stm32u5xx_ll_usb.c ****       USBx_INEP(epnum)->DIEPTSIZ |= (USB_OTG_DIEPTSIZ_PKTCNT & (1U << 19));
 2034              		.loc 1 772 34 is_stmt 0 view .LVU650
 2035 0070 00EB4413 		add	r3, r0, r4, lsl #5
 2036 0074 D3F81059 		ldr	r5, [r3, #2320]
 2037 0078 25F0FF55 		bic	r5, r5, #534773760
 2038 007c 25F4C015 		bic	r5, r5, #1572864
 2039 0080 C3F81059 		str	r5, [r3, #2320]
 773:Drivers/STM32U5xx_HAL_Driver/Src/stm32u5xx_ll_usb.c ****       USBx_INEP(epnum)->DIEPTSIZ &= ~(USB_OTG_DIEPTSIZ_XFRSIZ);
 2040              		.loc 1 773 7 is_stmt 1 view .LVU651
 773:Drivers/STM32U5xx_HAL_Driver/Src/stm32u5xx_ll_usb.c ****       USBx_INEP(epnum)->DIEPTSIZ &= ~(USB_OTG_DIEPTSIZ_XFRSIZ);
 2041              		.loc 1 773 34 is_stmt 0 view .LVU652
 2042 0084 D3F81059 		ldr	r5, [r3, #2320]
 2043 0088 45F40025 		orr	r5, r5, #524288
 2044 008c C3F81059 		str	r5, [r3, #2320]
 774:Drivers/STM32U5xx_HAL_Driver/Src/stm32u5xx_ll_usb.c ****     }
 2045              		.loc 1 774 7 is_stmt 1 view .LVU653
 774:Drivers/STM32U5xx_HAL_Driver/Src/stm32u5xx_ll_usb.c ****     }
 2046              		.loc 1 774 34 is_stmt 0 view .LVU654
 2047 0090 D3F81059 		ldr	r5, [r3, #2320]
 2048 0094 ED0C     		lsrs	r5, r5, #19
 2049 0096 ED04     		lsls	r5, r5, #19
 2050 0098 C3F81059 		str	r5, [r3, #2320]
 2051              	.L138:
 810:Drivers/STM32U5xx_HAL_Driver/Src/stm32u5xx_ll_usb.c ****     {
 2052              		.loc 1 810 5 is_stmt 1 view .LVU655
 810:Drivers/STM32U5xx_HAL_Driver/Src/stm32u5xx_ll_usb.c ****     {
 2053              		.loc 1 810 8 is_stmt 0 view .LVU656
 2054 009c 012A     		cmp	r2, #1
 2055 009e 50D0     		beq	.L161
 835:Drivers/STM32U5xx_HAL_Driver/Src/stm32u5xx_ll_usb.c **** 
 2056              		.loc 1 835 7 is_stmt 1 view .LVU657
 835:Drivers/STM32U5xx_HAL_Driver/Src/stm32u5xx_ll_usb.c **** 
 2057              		.loc 1 835 33 is_stmt 0 view .LVU658
 2058 00a0 00EB4414 		add	r4, r0, r4, lsl #5
 2059              	.LVL157:
 835:Drivers/STM32U5xx_HAL_Driver/Src/stm32u5xx_ll_usb.c **** 
 2060              		.loc 1 835 33 view .LVU659
 2061 00a4 D4F80039 		ldr	r3, [r4, #2304]
 2062 00a8 43F00443 		orr	r3, r3, #-2080374784
 2063 00ac C4F80039 		str	r3, [r4, #2304]
 837:Drivers/STM32U5xx_HAL_Driver/Src/stm32u5xx_ll_usb.c ****       {
 2064              		.loc 1 837 7 is_stmt 1 view .LVU660
 837:Drivers/STM32U5xx_HAL_Driver/Src/stm32u5xx_ll_usb.c ****       {
 2065              		.loc 1 837 13 is_stmt 0 view .LVU661
 2066 00b0 0B79     		ldrb	r3, [r1, #4]	@ zero_extendqisi2
 837:Drivers/STM32U5xx_HAL_Driver/Src/stm32u5xx_ll_usb.c ****       {
 2067              		.loc 1 837 10 view .LVU662
 2068 00b2 012B     		cmp	r3, #1
 2069 00b4 6ED0     		beq	.L147
 840:Drivers/STM32U5xx_HAL_Driver/Src/stm32u5xx_ll_usb.c ****         {
 2070              		.loc 1 840 9 is_stmt 1 view .LVU663
ARM GAS  /tmp/cc0vokHo.s 			page 73


 840:Drivers/STM32U5xx_HAL_Driver/Src/stm32u5xx_ll_usb.c ****         {
 2071              		.loc 1 840 15 is_stmt 0 view .LVU664
 2072 00b6 0B69     		ldr	r3, [r1, #16]
 840:Drivers/STM32U5xx_HAL_Driver/Src/stm32u5xx_ll_usb.c ****         {
 2073              		.loc 1 840 12 view .LVU665
 2074 00b8 002B     		cmp	r3, #0
 2075 00ba D4D0     		beq	.L146
 842:Drivers/STM32U5xx_HAL_Driver/Src/stm32u5xx_ll_usb.c ****         }
 2076              		.loc 1 842 11 is_stmt 1 view .LVU666
 842:Drivers/STM32U5xx_HAL_Driver/Src/stm32u5xx_ll_usb.c ****         }
 2077              		.loc 1 842 35 is_stmt 0 view .LVU667
 2078 00bc D0F83438 		ldr	r3, [r0, #2100]
 842:Drivers/STM32U5xx_HAL_Driver/Src/stm32u5xx_ll_usb.c ****         }
 2079              		.loc 1 842 48 view .LVU668
 2080 00c0 0A78     		ldrb	r2, [r1]	@ zero_extendqisi2
 2081              	.LVL158:
 842:Drivers/STM32U5xx_HAL_Driver/Src/stm32u5xx_ll_usb.c ****         }
 2082              		.loc 1 842 54 view .LVU669
 2083 00c2 02F00F01 		and	r1, r2, #15
 2084              	.LVL159:
 842:Drivers/STM32U5xx_HAL_Driver/Src/stm32u5xx_ll_usb.c ****         }
 2085              		.loc 1 842 42 view .LVU670
 2086 00c6 0122     		movs	r2, #1
 2087 00c8 8A40     		lsls	r2, r2, r1
 842:Drivers/STM32U5xx_HAL_Driver/Src/stm32u5xx_ll_usb.c ****         }
 2088              		.loc 1 842 35 view .LVU671
 2089 00ca 1343     		orrs	r3, r3, r2
 2090 00cc C0F83438 		str	r3, [r0, #2100]
 2091 00d0 C9E7     		b	.L146
 2092              	.LVL160:
 2093              	.L137:
 783:Drivers/STM32U5xx_HAL_Driver/Src/stm32u5xx_ll_usb.c ****       USBx_INEP(epnum)->DIEPTSIZ &= ~(USB_OTG_DIEPTSIZ_PKTCNT);
 2094              		.loc 1 783 7 is_stmt 1 view .LVU672
 783:Drivers/STM32U5xx_HAL_Driver/Src/stm32u5xx_ll_usb.c ****       USBx_INEP(epnum)->DIEPTSIZ &= ~(USB_OTG_DIEPTSIZ_PKTCNT);
 2095              		.loc 1 783 34 is_stmt 0 view .LVU673
 2096 00d2 00EB4413 		add	r3, r0, r4, lsl #5
 2097 00d6 03F51063 		add	r3, r3, #2304
 2098 00da 1D69     		ldr	r5, [r3, #16]
 2099 00dc ED0C     		lsrs	r5, r5, #19
 2100 00de ED04     		lsls	r5, r5, #19
 2101 00e0 1D61     		str	r5, [r3, #16]
 784:Drivers/STM32U5xx_HAL_Driver/Src/stm32u5xx_ll_usb.c **** 
 2102              		.loc 1 784 7 is_stmt 1 view .LVU674
 784:Drivers/STM32U5xx_HAL_Driver/Src/stm32u5xx_ll_usb.c **** 
 2103              		.loc 1 784 34 is_stmt 0 view .LVU675
 2104 00e2 1D69     		ldr	r5, [r3, #16]
 2105 00e4 25F0FF55 		bic	r5, r5, #534773760
 2106 00e8 25F4C015 		bic	r5, r5, #1572864
 2107 00ec 1D61     		str	r5, [r3, #16]
 786:Drivers/STM32U5xx_HAL_Driver/Src/stm32u5xx_ll_usb.c ****       {
 2108              		.loc 1 786 7 is_stmt 1 view .LVU676
 786:Drivers/STM32U5xx_HAL_Driver/Src/stm32u5xx_ll_usb.c ****       {
 2109              		.loc 1 786 10 is_stmt 0 view .LVU677
 2110 00ee DCB9     		cbnz	r4, .L139
 788:Drivers/STM32U5xx_HAL_Driver/Src/stm32u5xx_ll_usb.c ****         {
 2111              		.loc 1 788 9 is_stmt 1 view .LVU678
 788:Drivers/STM32U5xx_HAL_Driver/Src/stm32u5xx_ll_usb.c ****         {
ARM GAS  /tmp/cc0vokHo.s 			page 74


 2112              		.loc 1 788 15 is_stmt 0 view .LVU679
 2113 00f0 0E69     		ldr	r6, [r1, #16]
 788:Drivers/STM32U5xx_HAL_Driver/Src/stm32u5xx_ll_usb.c ****         {
 2114              		.loc 1 788 30 view .LVU680
 2115 00f2 8D68     		ldr	r5, [r1, #8]
 788:Drivers/STM32U5xx_HAL_Driver/Src/stm32u5xx_ll_usb.c ****         {
 2116              		.loc 1 788 12 view .LVU681
 2117 00f4 AE42     		cmp	r6, r5
 2118 00f6 00D9     		bls	.L140
 790:Drivers/STM32U5xx_HAL_Driver/Src/stm32u5xx_ll_usb.c ****         }
 2119              		.loc 1 790 11 is_stmt 1 view .LVU682
 790:Drivers/STM32U5xx_HAL_Driver/Src/stm32u5xx_ll_usb.c ****         }
 2120              		.loc 1 790 24 is_stmt 0 view .LVU683
 2121 00f8 0D61     		str	r5, [r1, #16]
 2122              	.L140:
 793:Drivers/STM32U5xx_HAL_Driver/Src/stm32u5xx_ll_usb.c ****       }
 2123              		.loc 1 793 9 is_stmt 1 view .LVU684
 793:Drivers/STM32U5xx_HAL_Driver/Src/stm32u5xx_ll_usb.c ****       }
 2124              		.loc 1 793 36 is_stmt 0 view .LVU685
 2125 00fa 1D69     		ldr	r5, [r3, #16]
 2126 00fc 45F40025 		orr	r5, r5, #524288
 2127 0100 1D61     		str	r5, [r3, #16]
 2128              	.L141:
 801:Drivers/STM32U5xx_HAL_Driver/Src/stm32u5xx_ll_usb.c **** 
 2129              		.loc 1 801 7 is_stmt 1 view .LVU686
 801:Drivers/STM32U5xx_HAL_Driver/Src/stm32u5xx_ll_usb.c **** 
 2130              		.loc 1 801 34 is_stmt 0 view .LVU687
 2131 0102 1D69     		ldr	r5, [r3, #16]
 801:Drivers/STM32U5xx_HAL_Driver/Src/stm32u5xx_ll_usb.c **** 
 2132              		.loc 1 801 62 view .LVU688
 2133 0104 0E69     		ldr	r6, [r1, #16]
 2134 0106 C6F3120C 		ubfx	ip, r6, #0, #19
 801:Drivers/STM32U5xx_HAL_Driver/Src/stm32u5xx_ll_usb.c **** 
 2135              		.loc 1 801 34 view .LVU689
 2136 010a 45EA0C05 		orr	r5, r5, ip
 2137 010e 1D61     		str	r5, [r3, #16]
 803:Drivers/STM32U5xx_HAL_Driver/Src/stm32u5xx_ll_usb.c ****       {
 2138              		.loc 1 803 7 is_stmt 1 view .LVU690
 803:Drivers/STM32U5xx_HAL_Driver/Src/stm32u5xx_ll_usb.c ****       {
 2139              		.loc 1 803 13 is_stmt 0 view .LVU691
 2140 0110 0D79     		ldrb	r5, [r1, #4]	@ zero_extendqisi2
 803:Drivers/STM32U5xx_HAL_Driver/Src/stm32u5xx_ll_usb.c ****       {
 2141              		.loc 1 803 10 view .LVU692
 2142 0112 012D     		cmp	r5, #1
 2143 0114 C2D1     		bne	.L138
 805:Drivers/STM32U5xx_HAL_Driver/Src/stm32u5xx_ll_usb.c ****         USBx_INEP(epnum)->DIEPTSIZ |= (USB_OTG_DIEPTSIZ_MULCNT & (1U << 29));
 2144              		.loc 1 805 9 is_stmt 1 view .LVU693
 805:Drivers/STM32U5xx_HAL_Driver/Src/stm32u5xx_ll_usb.c ****         USBx_INEP(epnum)->DIEPTSIZ |= (USB_OTG_DIEPTSIZ_MULCNT & (1U << 29));
 2145              		.loc 1 805 36 is_stmt 0 view .LVU694
 2146 0116 1D69     		ldr	r5, [r3, #16]
 2147 0118 25F0C045 		bic	r5, r5, #1610612736
 2148 011c 1D61     		str	r5, [r3, #16]
 806:Drivers/STM32U5xx_HAL_Driver/Src/stm32u5xx_ll_usb.c ****       }
 2149              		.loc 1 806 9 is_stmt 1 view .LVU695
 806:Drivers/STM32U5xx_HAL_Driver/Src/stm32u5xx_ll_usb.c ****       }
 2150              		.loc 1 806 36 is_stmt 0 view .LVU696
 2151 011e 1D69     		ldr	r5, [r3, #16]
ARM GAS  /tmp/cc0vokHo.s 			page 75


 2152 0120 45F00055 		orr	r5, r5, #536870912
 2153 0124 1D61     		str	r5, [r3, #16]
 2154 0126 B9E7     		b	.L138
 2155              	.L139:
 797:Drivers/STM32U5xx_HAL_Driver/Src/stm32u5xx_ll_usb.c ****                                        (((ep->xfer_len + ep->maxpacket - 1U) / ep->maxpacket) << 19
 2156              		.loc 1 797 9 is_stmt 1 view .LVU697
 797:Drivers/STM32U5xx_HAL_Driver/Src/stm32u5xx_ll_usb.c ****                                        (((ep->xfer_len + ep->maxpacket - 1U) / ep->maxpacket) << 19
 2157              		.loc 1 797 36 is_stmt 0 view .LVU698
 2158 0128 1E69     		ldr	r6, [r3, #16]
 798:Drivers/STM32U5xx_HAL_Driver/Src/stm32u5xx_ll_usb.c ****       }
 2159              		.loc 1 798 45 view .LVU699
 2160 012a 0D69     		ldr	r5, [r1, #16]
 798:Drivers/STM32U5xx_HAL_Driver/Src/stm32u5xx_ll_usb.c ****       }
 2161              		.loc 1 798 60 view .LVU700
 2162 012c 8F68     		ldr	r7, [r1, #8]
 798:Drivers/STM32U5xx_HAL_Driver/Src/stm32u5xx_ll_usb.c ****       }
 2163              		.loc 1 798 56 view .LVU701
 2164 012e 3D44     		add	r5, r5, r7
 798:Drivers/STM32U5xx_HAL_Driver/Src/stm32u5xx_ll_usb.c ****       }
 2165              		.loc 1 798 72 view .LVU702
 2166 0130 013D     		subs	r5, r5, #1
 798:Drivers/STM32U5xx_HAL_Driver/Src/stm32u5xx_ll_usb.c ****       }
 2167              		.loc 1 798 78 view .LVU703
 2168 0132 B5FBF7F5 		udiv	r5, r5, r7
 797:Drivers/STM32U5xx_HAL_Driver/Src/stm32u5xx_ll_usb.c ****                                        (((ep->xfer_len + ep->maxpacket - 1U) / ep->maxpacket) << 19
 2169              		.loc 1 797 64 view .LVU704
 2170 0136 424F     		ldr	r7, .L163
 2171 0138 07EAC545 		and	r5, r7, r5, lsl #19
 797:Drivers/STM32U5xx_HAL_Driver/Src/stm32u5xx_ll_usb.c ****                                        (((ep->xfer_len + ep->maxpacket - 1U) / ep->maxpacket) << 19
 2172              		.loc 1 797 36 view .LVU705
 2173 013c 3543     		orrs	r5, r5, r6
 2174 013e 1D61     		str	r5, [r3, #16]
 2175 0140 DFE7     		b	.L141
 2176              	.L161:
 812:Drivers/STM32U5xx_HAL_Driver/Src/stm32u5xx_ll_usb.c ****       {
 2177              		.loc 1 812 7 is_stmt 1 view .LVU706
 812:Drivers/STM32U5xx_HAL_Driver/Src/stm32u5xx_ll_usb.c ****       {
 2178              		.loc 1 812 23 is_stmt 0 view .LVU707
 2179 0142 CB69     		ldr	r3, [r1, #28]
 812:Drivers/STM32U5xx_HAL_Driver/Src/stm32u5xx_ll_usb.c ****       {
 2180              		.loc 1 812 10 view .LVU708
 2181 0144 1BB1     		cbz	r3, .L143
 814:Drivers/STM32U5xx_HAL_Driver/Src/stm32u5xx_ll_usb.c ****       }
 2182              		.loc 1 814 9 is_stmt 1 view .LVU709
 2183 0146 00EB4412 		add	r2, r0, r4, lsl #5
 2184              	.LVL161:
 814:Drivers/STM32U5xx_HAL_Driver/Src/stm32u5xx_ll_usb.c ****       }
 2185              		.loc 1 814 35 is_stmt 0 view .LVU710
 2186 014a C2F81439 		str	r3, [r2, #2324]
 2187              	.L143:
 817:Drivers/STM32U5xx_HAL_Driver/Src/stm32u5xx_ll_usb.c ****       {
 2188              		.loc 1 817 7 is_stmt 1 view .LVU711
 817:Drivers/STM32U5xx_HAL_Driver/Src/stm32u5xx_ll_usb.c ****       {
 2189              		.loc 1 817 13 is_stmt 0 view .LVU712
 2190 014e 0B79     		ldrb	r3, [r1, #4]	@ zero_extendqisi2
 817:Drivers/STM32U5xx_HAL_Driver/Src/stm32u5xx_ll_usb.c ****       {
 2191              		.loc 1 817 10 view .LVU713
ARM GAS  /tmp/cc0vokHo.s 			page 76


 2192 0150 012B     		cmp	r3, #1
 2193 0152 08D0     		beq	.L162
 2194              	.L144:
 830:Drivers/STM32U5xx_HAL_Driver/Src/stm32u5xx_ll_usb.c ****     }
 2195              		.loc 1 830 7 is_stmt 1 view .LVU714
 830:Drivers/STM32U5xx_HAL_Driver/Src/stm32u5xx_ll_usb.c ****     }
 2196              		.loc 1 830 33 is_stmt 0 view .LVU715
 2197 0154 00EB4410 		add	r0, r0, r4, lsl #5
 2198              	.LVL162:
 830:Drivers/STM32U5xx_HAL_Driver/Src/stm32u5xx_ll_usb.c ****     }
 2199              		.loc 1 830 33 view .LVU716
 2200 0158 D0F80039 		ldr	r3, [r0, #2304]
 2201 015c 43F00443 		orr	r3, r3, #-2080374784
 2202 0160 C0F80039 		str	r3, [r0, #2304]
 2203 0164 7FE7     		b	.L146
 2204              	.LVL163:
 2205              	.L162:
 819:Drivers/STM32U5xx_HAL_Driver/Src/stm32u5xx_ll_usb.c ****         {
 2206              		.loc 1 819 9 is_stmt 1 view .LVU717
 819:Drivers/STM32U5xx_HAL_Driver/Src/stm32u5xx_ll_usb.c ****         {
 2207              		.loc 1 819 25 is_stmt 0 view .LVU718
 2208 0166 D0F80838 		ldr	r3, [r0, #2056]
 819:Drivers/STM32U5xx_HAL_Driver/Src/stm32u5xx_ll_usb.c ****         {
 2209              		.loc 1 819 12 view .LVU719
 2210 016a 13F4807F 		tst	r3, #256
 2211 016e 08D1     		bne	.L145
 821:Drivers/STM32U5xx_HAL_Driver/Src/stm32u5xx_ll_usb.c ****         }
 2212              		.loc 1 821 11 is_stmt 1 view .LVU720
 821:Drivers/STM32U5xx_HAL_Driver/Src/stm32u5xx_ll_usb.c ****         }
 2213              		.loc 1 821 37 is_stmt 0 view .LVU721
 2214 0170 00EB4412 		add	r2, r0, r4, lsl #5
 2215 0174 D2F80039 		ldr	r3, [r2, #2304]
 2216 0178 43F00053 		orr	r3, r3, #536870912
 2217 017c C2F80039 		str	r3, [r2, #2304]
 2218 0180 E8E7     		b	.L144
 2219              	.L145:
 825:Drivers/STM32U5xx_HAL_Driver/Src/stm32u5xx_ll_usb.c ****         }
 2220              		.loc 1 825 11 is_stmt 1 view .LVU722
 825:Drivers/STM32U5xx_HAL_Driver/Src/stm32u5xx_ll_usb.c ****         }
 2221              		.loc 1 825 37 is_stmt 0 view .LVU723
 2222 0182 00EB4412 		add	r2, r0, r4, lsl #5
 2223 0186 D2F80039 		ldr	r3, [r2, #2304]
 2224 018a 43F08053 		orr	r3, r3, #268435456
 2225 018e C2F80039 		str	r3, [r2, #2304]
 2226 0192 DFE7     		b	.L144
 2227              	.LVL164:
 2228              	.L147:
 847:Drivers/STM32U5xx_HAL_Driver/Src/stm32u5xx_ll_usb.c ****         {
 2229              		.loc 1 847 9 is_stmt 1 view .LVU724
 847:Drivers/STM32U5xx_HAL_Driver/Src/stm32u5xx_ll_usb.c ****         {
 2230              		.loc 1 847 25 is_stmt 0 view .LVU725
 2231 0194 D0F80838 		ldr	r3, [r0, #2056]
 847:Drivers/STM32U5xx_HAL_Driver/Src/stm32u5xx_ll_usb.c ****         {
 2232              		.loc 1 847 12 view .LVU726
 2233 0198 13F4807F 		tst	r3, #256
 2234 019c 0CD1     		bne	.L148
 849:Drivers/STM32U5xx_HAL_Driver/Src/stm32u5xx_ll_usb.c ****         }
ARM GAS  /tmp/cc0vokHo.s 			page 77


 2235              		.loc 1 849 11 is_stmt 1 view .LVU727
 849:Drivers/STM32U5xx_HAL_Driver/Src/stm32u5xx_ll_usb.c ****         }
 2236              		.loc 1 849 37 is_stmt 0 view .LVU728
 2237 019e D4F80039 		ldr	r3, [r4, #2304]
 2238 01a2 43F00053 		orr	r3, r3, #536870912
 2239 01a6 C4F80039 		str	r3, [r4, #2304]
 2240              	.L149:
 856:Drivers/STM32U5xx_HAL_Driver/Src/stm32u5xx_ll_usb.c ****       }
 2241              		.loc 1 856 9 is_stmt 1 view .LVU729
 856:Drivers/STM32U5xx_HAL_Driver/Src/stm32u5xx_ll_usb.c ****       }
 2242              		.loc 1 856 15 is_stmt 0 view .LVU730
 2243 01aa 0092     		str	r2, [sp]
 2244 01ac 0B8A     		ldrh	r3, [r1, #16]
 2245 01ae 0A78     		ldrb	r2, [r1]	@ zero_extendqisi2
 2246              	.LVL165:
 856:Drivers/STM32U5xx_HAL_Driver/Src/stm32u5xx_ll_usb.c ****       }
 2247              		.loc 1 856 15 view .LVU731
 2248 01b0 C968     		ldr	r1, [r1, #12]
 2249              	.LVL166:
 856:Drivers/STM32U5xx_HAL_Driver/Src/stm32u5xx_ll_usb.c ****       }
 2250              		.loc 1 856 15 view .LVU732
 2251 01b2 FFF7FEFF 		bl	USB_WritePacket
 2252              	.LVL167:
 856:Drivers/STM32U5xx_HAL_Driver/Src/stm32u5xx_ll_usb.c ****       }
 2253              		.loc 1 856 15 view .LVU733
 2254 01b6 56E7     		b	.L146
 2255              	.LVL168:
 2256              	.L148:
 853:Drivers/STM32U5xx_HAL_Driver/Src/stm32u5xx_ll_usb.c ****         }
 2257              		.loc 1 853 11 is_stmt 1 view .LVU734
 853:Drivers/STM32U5xx_HAL_Driver/Src/stm32u5xx_ll_usb.c ****         }
 2258              		.loc 1 853 37 is_stmt 0 view .LVU735
 2259 01b8 D4F80039 		ldr	r3, [r4, #2304]
 2260 01bc 43F08053 		orr	r3, r3, #268435456
 2261 01c0 C4F80039 		str	r3, [r4, #2304]
 2262 01c4 F1E7     		b	.L149
 2263              	.LVL169:
 2264              	.L150:
 884:Drivers/STM32U5xx_HAL_Driver/Src/stm32u5xx_ll_usb.c ****       {
 2265              		.loc 1 884 7 is_stmt 1 view .LVU736
 884:Drivers/STM32U5xx_HAL_Driver/Src/stm32u5xx_ll_usb.c ****       {
 2266              		.loc 1 884 13 is_stmt 0 view .LVU737
 2267 01c6 0C69     		ldr	r4, [r1, #16]
 2268              	.LVL170:
 884:Drivers/STM32U5xx_HAL_Driver/Src/stm32u5xx_ll_usb.c ****       {
 2269              		.loc 1 884 10 view .LVU738
 2270 01c8 54B9     		cbnz	r4, .L153
 886:Drivers/STM32U5xx_HAL_Driver/Src/stm32u5xx_ll_usb.c ****         USBx_OUTEP(epnum)->DOEPTSIZ |= (USB_OTG_DOEPTSIZ_PKTCNT & (1U << 19));
 2271              		.loc 1 886 9 is_stmt 1 view .LVU739
 886:Drivers/STM32U5xx_HAL_Driver/Src/stm32u5xx_ll_usb.c ****         USBx_OUTEP(epnum)->DOEPTSIZ |= (USB_OTG_DOEPTSIZ_PKTCNT & (1U << 19));
 2272              		.loc 1 886 37 is_stmt 0 view .LVU740
 2273 01ca 1C69     		ldr	r4, [r3, #16]
 886:Drivers/STM32U5xx_HAL_Driver/Src/stm32u5xx_ll_usb.c ****         USBx_OUTEP(epnum)->DOEPTSIZ |= (USB_OTG_DOEPTSIZ_PKTCNT & (1U << 19));
 2274              		.loc 1 886 69 view .LVU741
 2275 01cc 8D68     		ldr	r5, [r1, #8]
 886:Drivers/STM32U5xx_HAL_Driver/Src/stm32u5xx_ll_usb.c ****         USBx_OUTEP(epnum)->DOEPTSIZ |= (USB_OTG_DOEPTSIZ_PKTCNT & (1U << 19));
 2276              		.loc 1 886 65 view .LVU742
ARM GAS  /tmp/cc0vokHo.s 			page 78


 2277 01ce C5F31205 		ubfx	r5, r5, #0, #19
 886:Drivers/STM32U5xx_HAL_Driver/Src/stm32u5xx_ll_usb.c ****         USBx_OUTEP(epnum)->DOEPTSIZ |= (USB_OTG_DOEPTSIZ_PKTCNT & (1U << 19));
 2278              		.loc 1 886 37 view .LVU743
 2279 01d2 2C43     		orrs	r4, r4, r5
 2280 01d4 1C61     		str	r4, [r3, #16]
 887:Drivers/STM32U5xx_HAL_Driver/Src/stm32u5xx_ll_usb.c ****       }
 2281              		.loc 1 887 9 is_stmt 1 view .LVU744
 887:Drivers/STM32U5xx_HAL_Driver/Src/stm32u5xx_ll_usb.c ****       }
 2282              		.loc 1 887 37 is_stmt 0 view .LVU745
 2283 01d6 1C69     		ldr	r4, [r3, #16]
 2284 01d8 44F40024 		orr	r4, r4, #524288
 2285 01dc 1C61     		str	r4, [r3, #16]
 2286 01de 35E7     		b	.L152
 2287              	.L153:
 891:Drivers/STM32U5xx_HAL_Driver/Src/stm32u5xx_ll_usb.c ****         ep->xfer_size = ep->maxpacket * pktcnt;
 2288              		.loc 1 891 9 is_stmt 1 view .LVU746
 891:Drivers/STM32U5xx_HAL_Driver/Src/stm32u5xx_ll_usb.c ****         ep->xfer_size = ep->maxpacket * pktcnt;
 2289              		.loc 1 891 47 is_stmt 0 view .LVU747
 2290 01e0 8D68     		ldr	r5, [r1, #8]
 891:Drivers/STM32U5xx_HAL_Driver/Src/stm32u5xx_ll_usb.c ****         ep->xfer_size = ep->maxpacket * pktcnt;
 2291              		.loc 1 891 43 view .LVU748
 2292 01e2 2C44     		add	r4, r4, r5
 891:Drivers/STM32U5xx_HAL_Driver/Src/stm32u5xx_ll_usb.c ****         ep->xfer_size = ep->maxpacket * pktcnt;
 2293              		.loc 1 891 59 view .LVU749
 2294 01e4 013C     		subs	r4, r4, #1
 891:Drivers/STM32U5xx_HAL_Driver/Src/stm32u5xx_ll_usb.c ****         ep->xfer_size = ep->maxpacket * pktcnt;
 2295              		.loc 1 891 65 view .LVU750
 2296 01e6 B4FBF5F4 		udiv	r4, r4, r5
 2297              	.LVL171:
 892:Drivers/STM32U5xx_HAL_Driver/Src/stm32u5xx_ll_usb.c **** 
 2298              		.loc 1 892 9 is_stmt 1 view .LVU751
 2299 01ea A4B2     		uxth	r4, r4
 892:Drivers/STM32U5xx_HAL_Driver/Src/stm32u5xx_ll_usb.c **** 
 2300              		.loc 1 892 39 is_stmt 0 view .LVU752
 2301 01ec 04FB05F5 		mul	r5, r4, r5
 892:Drivers/STM32U5xx_HAL_Driver/Src/stm32u5xx_ll_usb.c **** 
 2302              		.loc 1 892 23 view .LVU753
 2303 01f0 0D62     		str	r5, [r1, #32]
 894:Drivers/STM32U5xx_HAL_Driver/Src/stm32u5xx_ll_usb.c ****         USBx_OUTEP(epnum)->DOEPTSIZ |= USB_OTG_DOEPTSIZ_XFRSIZ & ep->xfer_size;
 2304              		.loc 1 894 9 is_stmt 1 view .LVU754
 894:Drivers/STM32U5xx_HAL_Driver/Src/stm32u5xx_ll_usb.c ****         USBx_OUTEP(epnum)->DOEPTSIZ |= USB_OTG_DOEPTSIZ_XFRSIZ & ep->xfer_size;
 2305              		.loc 1 894 37 is_stmt 0 view .LVU755
 2306 01f2 1D69     		ldr	r5, [r3, #16]
 894:Drivers/STM32U5xx_HAL_Driver/Src/stm32u5xx_ll_usb.c ****         USBx_OUTEP(epnum)->DOEPTSIZ |= USB_OTG_DOEPTSIZ_XFRSIZ & ep->xfer_size;
 2307              		.loc 1 894 64 view .LVU756
 2308 01f4 124E     		ldr	r6, .L163
 2309 01f6 06EAC444 		and	r4, r6, r4, lsl #19
 2310              	.LVL172:
 894:Drivers/STM32U5xx_HAL_Driver/Src/stm32u5xx_ll_usb.c ****         USBx_OUTEP(epnum)->DOEPTSIZ |= USB_OTG_DOEPTSIZ_XFRSIZ & ep->xfer_size;
 2311              		.loc 1 894 37 view .LVU757
 2312 01fa 2C43     		orrs	r4, r4, r5
 2313 01fc 1C61     		str	r4, [r3, #16]
 2314              	.LVL173:
 895:Drivers/STM32U5xx_HAL_Driver/Src/stm32u5xx_ll_usb.c ****       }
 2315              		.loc 1 895 9 is_stmt 1 view .LVU758
 895:Drivers/STM32U5xx_HAL_Driver/Src/stm32u5xx_ll_usb.c ****       }
 2316              		.loc 1 895 37 is_stmt 0 view .LVU759
ARM GAS  /tmp/cc0vokHo.s 			page 79


 2317 01fe 1C69     		ldr	r4, [r3, #16]
 895:Drivers/STM32U5xx_HAL_Driver/Src/stm32u5xx_ll_usb.c ****       }
 2318              		.loc 1 895 68 view .LVU760
 2319 0200 0D6A     		ldr	r5, [r1, #32]
 895:Drivers/STM32U5xx_HAL_Driver/Src/stm32u5xx_ll_usb.c ****       }
 2320              		.loc 1 895 64 view .LVU761
 2321 0202 C5F31205 		ubfx	r5, r5, #0, #19
 895:Drivers/STM32U5xx_HAL_Driver/Src/stm32u5xx_ll_usb.c ****       }
 2322              		.loc 1 895 37 view .LVU762
 2323 0206 2C43     		orrs	r4, r4, r5
 2324 0208 1C61     		str	r4, [r3, #16]
 2325 020a 1FE7     		b	.L152
 2326              	.L159:
 901:Drivers/STM32U5xx_HAL_Driver/Src/stm32u5xx_ll_usb.c ****       {
 2327              		.loc 1 901 7 is_stmt 1 view .LVU763
 901:Drivers/STM32U5xx_HAL_Driver/Src/stm32u5xx_ll_usb.c ****       {
 2328              		.loc 1 901 23 is_stmt 0 view .LVU764
 2329 020c CA68     		ldr	r2, [r1, #12]
 2330              	.LVL174:
 901:Drivers/STM32U5xx_HAL_Driver/Src/stm32u5xx_ll_usb.c ****       {
 2331              		.loc 1 901 10 view .LVU765
 2332 020e 002A     		cmp	r2, #0
 2333 0210 3FF41FAF 		beq	.L154
 903:Drivers/STM32U5xx_HAL_Driver/Src/stm32u5xx_ll_usb.c ****       }
 2334              		.loc 1 903 9 is_stmt 1 view .LVU766
 903:Drivers/STM32U5xx_HAL_Driver/Src/stm32u5xx_ll_usb.c ****       }
 2335              		.loc 1 903 36 is_stmt 0 view .LVU767
 2336 0214 5A61     		str	r2, [r3, #20]
 2337 0216 1CE7     		b	.L154
 2338              	.L160:
 909:Drivers/STM32U5xx_HAL_Driver/Src/stm32u5xx_ll_usb.c ****       {
 2339              		.loc 1 909 7 is_stmt 1 view .LVU768
 909:Drivers/STM32U5xx_HAL_Driver/Src/stm32u5xx_ll_usb.c ****       {
 2340              		.loc 1 909 23 is_stmt 0 view .LVU769
 2341 0218 D0F80838 		ldr	r3, [r0, #2056]
 909:Drivers/STM32U5xx_HAL_Driver/Src/stm32u5xx_ll_usb.c ****       {
 2342              		.loc 1 909 10 view .LVU770
 2343 021c 13F4807F 		tst	r3, #256
 2344 0220 06D1     		bne	.L156
 911:Drivers/STM32U5xx_HAL_Driver/Src/stm32u5xx_ll_usb.c ****       }
 2345              		.loc 1 911 9 is_stmt 1 view .LVU771
 911:Drivers/STM32U5xx_HAL_Driver/Src/stm32u5xx_ll_usb.c ****       }
 2346              		.loc 1 911 36 is_stmt 0 view .LVU772
 2347 0222 DCF8003B 		ldr	r3, [ip, #2816]
 2348 0226 43F00053 		orr	r3, r3, #536870912
 2349 022a CCF8003B 		str	r3, [ip, #2816]
 2350 022e 14E7     		b	.L155
 2351              	.L156:
 915:Drivers/STM32U5xx_HAL_Driver/Src/stm32u5xx_ll_usb.c ****       }
 2352              		.loc 1 915 9 is_stmt 1 view .LVU773
 915:Drivers/STM32U5xx_HAL_Driver/Src/stm32u5xx_ll_usb.c ****       }
 2353              		.loc 1 915 36 is_stmt 0 view .LVU774
 2354 0230 DCF8003B 		ldr	r3, [ip, #2816]
 2355 0234 43F08053 		orr	r3, r3, #268435456
 2356 0238 CCF8003B 		str	r3, [ip, #2816]
 2357 023c 0DE7     		b	.L155
 2358              	.L164:
ARM GAS  /tmp/cc0vokHo.s 			page 80


 2359 023e 00BF     		.align	2
 2360              	.L163:
 2361 0240 0000F81F 		.word	536346624
 2362              		.cfi_endproc
 2363              	.LFE359:
 2365              		.section	.text.USB_ReadPacket,"ax",%progbits
 2366              		.align	1
 2367              		.global	USB_ReadPacket
 2368              		.syntax unified
 2369              		.thumb
 2370              		.thumb_func
 2372              	USB_ReadPacket:
 2373              	.LVL175:
 2374              	.LFB362:
1028:Drivers/STM32U5xx_HAL_Driver/Src/stm32u5xx_ll_usb.c ****   uint32_t USBx_BASE = (uint32_t)USBx;
 2375              		.loc 1 1028 1 is_stmt 1 view -0
 2376              		.cfi_startproc
 2377              		@ args = 0, pretend = 0, frame = 8
 2378              		@ frame_needed = 0, uses_anonymous_args = 0
1028:Drivers/STM32U5xx_HAL_Driver/Src/stm32u5xx_ll_usb.c ****   uint32_t USBx_BASE = (uint32_t)USBx;
 2379              		.loc 1 1028 1 is_stmt 0 view .LVU776
 2380 0000 00B5     		push	{lr}
 2381              	.LCFI34:
 2382              		.cfi_def_cfa_offset 4
 2383              		.cfi_offset 14, -4
 2384 0002 83B0     		sub	sp, sp, #12
 2385              	.LCFI35:
 2386              		.cfi_def_cfa_offset 16
 2387 0004 8446     		mov	ip, r0
 2388 0006 0846     		mov	r0, r1
 2389              	.LVL176:
1029:Drivers/STM32U5xx_HAL_Driver/Src/stm32u5xx_ll_usb.c ****   uint8_t *pDest = dest;
 2390              		.loc 1 1029 3 is_stmt 1 view .LVU777
1030:Drivers/STM32U5xx_HAL_Driver/Src/stm32u5xx_ll_usb.c ****   uint32_t pData;
 2391              		.loc 1 1030 3 view .LVU778
1031:Drivers/STM32U5xx_HAL_Driver/Src/stm32u5xx_ll_usb.c ****   uint32_t i;
 2392              		.loc 1 1031 3 view .LVU779
1032:Drivers/STM32U5xx_HAL_Driver/Src/stm32u5xx_ll_usb.c ****   uint32_t count32b = (uint32_t)len >> 2U;
 2393              		.loc 1 1032 3 view .LVU780
1033:Drivers/STM32U5xx_HAL_Driver/Src/stm32u5xx_ll_usb.c ****   uint16_t remaining_bytes = len % 4U;
 2394              		.loc 1 1033 3 view .LVU781
1033:Drivers/STM32U5xx_HAL_Driver/Src/stm32u5xx_ll_usb.c ****   uint16_t remaining_bytes = len % 4U;
 2395              		.loc 1 1033 37 is_stmt 0 view .LVU782
 2396 0008 4FEA920E 		lsr	lr, r2, #2
 2397              	.LVL177:
1034:Drivers/STM32U5xx_HAL_Driver/Src/stm32u5xx_ll_usb.c **** 
 2398              		.loc 1 1034 3 is_stmt 1 view .LVU783
1034:Drivers/STM32U5xx_HAL_Driver/Src/stm32u5xx_ll_usb.c **** 
 2399              		.loc 1 1034 12 is_stmt 0 view .LVU784
 2400 000c 02F00302 		and	r2, r2, #3
 2401              	.LVL178:
1036:Drivers/STM32U5xx_HAL_Driver/Src/stm32u5xx_ll_usb.c ****   {
 2402              		.loc 1 1036 3 is_stmt 1 view .LVU785
1036:Drivers/STM32U5xx_HAL_Driver/Src/stm32u5xx_ll_usb.c ****   {
 2403              		.loc 1 1036 10 is_stmt 0 view .LVU786
 2404 0010 0023     		movs	r3, #0
1036:Drivers/STM32U5xx_HAL_Driver/Src/stm32u5xx_ll_usb.c ****   {
ARM GAS  /tmp/cc0vokHo.s 			page 81


 2405              		.loc 1 1036 3 view .LVU787
 2406 0012 05E0     		b	.L166
 2407              	.LVL179:
 2408              	.L167:
1038:Drivers/STM32U5xx_HAL_Driver/Src/stm32u5xx_ll_usb.c ****     pDest++;
 2409              		.loc 1 1038 5 is_stmt 1 discriminator 3 view .LVU788
 2410 0014 0CF58051 		add	r1, ip, #4096
 2411 0018 0968     		ldr	r1, [r1]
 2412 001a 40F8041B 		str	r1, [r0], #4	@ unaligned
 2413              	.LVL180:
1039:Drivers/STM32U5xx_HAL_Driver/Src/stm32u5xx_ll_usb.c ****     pDest++;
 2414              		.loc 1 1039 5 discriminator 3 view .LVU789
1040:Drivers/STM32U5xx_HAL_Driver/Src/stm32u5xx_ll_usb.c ****     pDest++;
 2415              		.loc 1 1040 5 discriminator 3 view .LVU790
1041:Drivers/STM32U5xx_HAL_Driver/Src/stm32u5xx_ll_usb.c ****     pDest++;
 2416              		.loc 1 1041 5 discriminator 3 view .LVU791
1042:Drivers/STM32U5xx_HAL_Driver/Src/stm32u5xx_ll_usb.c ****   }
 2417              		.loc 1 1042 5 discriminator 3 view .LVU792
1036:Drivers/STM32U5xx_HAL_Driver/Src/stm32u5xx_ll_usb.c ****   {
 2418              		.loc 1 1036 30 discriminator 3 view .LVU793
1036:Drivers/STM32U5xx_HAL_Driver/Src/stm32u5xx_ll_usb.c ****   {
 2419              		.loc 1 1036 31 is_stmt 0 discriminator 3 view .LVU794
 2420 001e 0133     		adds	r3, r3, #1
 2421              	.LVL181:
 2422              	.L166:
1036:Drivers/STM32U5xx_HAL_Driver/Src/stm32u5xx_ll_usb.c ****   {
 2423              		.loc 1 1036 16 is_stmt 1 discriminator 1 view .LVU795
1036:Drivers/STM32U5xx_HAL_Driver/Src/stm32u5xx_ll_usb.c ****   {
 2424              		.loc 1 1036 3 is_stmt 0 discriminator 1 view .LVU796
 2425 0020 7345     		cmp	r3, lr
 2426 0022 F7D3     		bcc	.L167
1046:Drivers/STM32U5xx_HAL_Driver/Src/stm32u5xx_ll_usb.c ****   {
 2427              		.loc 1 1046 3 is_stmt 1 view .LVU797
1046:Drivers/STM32U5xx_HAL_Driver/Src/stm32u5xx_ll_usb.c ****   {
 2428              		.loc 1 1046 6 is_stmt 0 view .LVU798
 2429 0024 9AB1     		cbz	r2, .L168
1048:Drivers/STM32U5xx_HAL_Driver/Src/stm32u5xx_ll_usb.c ****     __UNALIGNED_UINT32_WRITE(&pData, USBx_DFIFO(0U));
 2430              		.loc 1 1048 5 is_stmt 1 view .LVU799
 2431              	.LVL182:
1049:Drivers/STM32U5xx_HAL_Driver/Src/stm32u5xx_ll_usb.c **** 
 2432              		.loc 1 1049 5 view .LVU800
 2433 0026 0CF5805C 		add	ip, ip, #4096
 2434              	.LVL183:
1049:Drivers/STM32U5xx_HAL_Driver/Src/stm32u5xx_ll_usb.c **** 
 2435              		.loc 1 1049 5 is_stmt 0 view .LVU801
 2436 002a DCF80030 		ldr	r3, [ip]
 2437 002e 0193     		str	r3, [sp, #4]
1048:Drivers/STM32U5xx_HAL_Driver/Src/stm32u5xx_ll_usb.c ****     __UNALIGNED_UINT32_WRITE(&pData, USBx_DFIFO(0U));
 2438              		.loc 1 1048 7 view .LVU802
 2439 0030 4FF0000C 		mov	ip, #0
 2440              	.LVL184:
 2441              	.L169:
1051:Drivers/STM32U5xx_HAL_Driver/Src/stm32u5xx_ll_usb.c ****     {
 2442              		.loc 1 1051 5 is_stmt 1 discriminator 1 view .LVU803
1053:Drivers/STM32U5xx_HAL_Driver/Src/stm32u5xx_ll_usb.c ****       i++;
 2443              		.loc 1 1053 7 discriminator 1 view .LVU804
1053:Drivers/STM32U5xx_HAL_Driver/Src/stm32u5xx_ll_usb.c ****       i++;
ARM GAS  /tmp/cc0vokHo.s 			page 82


 2444              		.loc 1 1053 50 is_stmt 0 discriminator 1 view .LVU805
 2445 0034 5FFA8CF3 		uxtb	r3, ip
 2446 0038 D900     		lsls	r1, r3, #3
1053:Drivers/STM32U5xx_HAL_Driver/Src/stm32u5xx_ll_usb.c ****       i++;
 2447              		.loc 1 1053 43 discriminator 1 view .LVU806
 2448 003a 019B     		ldr	r3, [sp, #4]
 2449 003c CB40     		lsrs	r3, r3, r1
1053:Drivers/STM32U5xx_HAL_Driver/Src/stm32u5xx_ll_usb.c ****       i++;
 2450              		.loc 1 1053 25 discriminator 1 view .LVU807
 2451 003e 00F8013B 		strb	r3, [r0], #1
 2452              	.LVL185:
1054:Drivers/STM32U5xx_HAL_Driver/Src/stm32u5xx_ll_usb.c ****       pDest++;
 2453              		.loc 1 1054 7 is_stmt 1 discriminator 1 view .LVU808
1054:Drivers/STM32U5xx_HAL_Driver/Src/stm32u5xx_ll_usb.c ****       pDest++;
 2454              		.loc 1 1054 8 is_stmt 0 discriminator 1 view .LVU809
 2455 0042 0CF1010C 		add	ip, ip, #1
 2456              	.LVL186:
1055:Drivers/STM32U5xx_HAL_Driver/Src/stm32u5xx_ll_usb.c ****       remaining_bytes--;
 2457              		.loc 1 1055 7 is_stmt 1 discriminator 1 view .LVU810
1056:Drivers/STM32U5xx_HAL_Driver/Src/stm32u5xx_ll_usb.c ****     } while (remaining_bytes != 0U);
 2458              		.loc 1 1056 7 discriminator 1 view .LVU811
1056:Drivers/STM32U5xx_HAL_Driver/Src/stm32u5xx_ll_usb.c ****     } while (remaining_bytes != 0U);
 2459              		.loc 1 1056 22 is_stmt 0 discriminator 1 view .LVU812
 2460 0046 013A     		subs	r2, r2, #1
 2461              	.LVL187:
1056:Drivers/STM32U5xx_HAL_Driver/Src/stm32u5xx_ll_usb.c ****     } while (remaining_bytes != 0U);
 2462              		.loc 1 1056 22 discriminator 1 view .LVU813
 2463 0048 92B2     		uxth	r2, r2
 2464              	.LVL188:
1057:Drivers/STM32U5xx_HAL_Driver/Src/stm32u5xx_ll_usb.c ****   }
 2465              		.loc 1 1057 13 is_stmt 1 discriminator 1 view .LVU814
1057:Drivers/STM32U5xx_HAL_Driver/Src/stm32u5xx_ll_usb.c ****   }
 2466              		.loc 1 1057 5 is_stmt 0 discriminator 1 view .LVU815
 2467 004a 002A     		cmp	r2, #0
 2468 004c F2D1     		bne	.L169
 2469              	.LVL189:
 2470              	.L168:
1060:Drivers/STM32U5xx_HAL_Driver/Src/stm32u5xx_ll_usb.c **** }
 2471              		.loc 1 1060 3 is_stmt 1 view .LVU816
1061:Drivers/STM32U5xx_HAL_Driver/Src/stm32u5xx_ll_usb.c **** 
 2472              		.loc 1 1061 1 is_stmt 0 view .LVU817
 2473 004e 03B0     		add	sp, sp, #12
 2474              	.LCFI36:
 2475              		.cfi_def_cfa_offset 4
 2476              		@ sp needed
 2477 0050 5DF804FB 		ldr	pc, [sp], #4
 2478              		.cfi_endproc
 2479              	.LFE362:
 2481              		.section	.text.USB_EPSetStall,"ax",%progbits
 2482              		.align	1
 2483              		.global	USB_EPSetStall
 2484              		.syntax unified
 2485              		.thumb
 2486              		.thumb_func
 2488              	USB_EPSetStall:
 2489              	.LVL190:
 2490              	.LFB363:
ARM GAS  /tmp/cc0vokHo.s 			page 83


1070:Drivers/STM32U5xx_HAL_Driver/Src/stm32u5xx_ll_usb.c ****   uint32_t USBx_BASE = (uint32_t)USBx;
 2491              		.loc 1 1070 1 is_stmt 1 view -0
 2492              		.cfi_startproc
 2493              		@ args = 0, pretend = 0, frame = 0
 2494              		@ frame_needed = 0, uses_anonymous_args = 0
 2495              		@ link register save eliminated.
1071:Drivers/STM32U5xx_HAL_Driver/Src/stm32u5xx_ll_usb.c ****   uint32_t epnum = (uint32_t)ep->num;
 2496              		.loc 1 1071 3 view .LVU819
1072:Drivers/STM32U5xx_HAL_Driver/Src/stm32u5xx_ll_usb.c **** 
 2497              		.loc 1 1072 3 view .LVU820
1072:Drivers/STM32U5xx_HAL_Driver/Src/stm32u5xx_ll_usb.c **** 
 2498              		.loc 1 1072 32 is_stmt 0 view .LVU821
 2499 0000 0B78     		ldrb	r3, [r1]	@ zero_extendqisi2
 2500              	.LVL191:
1074:Drivers/STM32U5xx_HAL_Driver/Src/stm32u5xx_ll_usb.c ****   {
 2501              		.loc 1 1074 3 is_stmt 1 view .LVU822
1074:Drivers/STM32U5xx_HAL_Driver/Src/stm32u5xx_ll_usb.c ****   {
 2502              		.loc 1 1074 9 is_stmt 0 view .LVU823
 2503 0002 4A78     		ldrb	r2, [r1, #1]	@ zero_extendqisi2
1074:Drivers/STM32U5xx_HAL_Driver/Src/stm32u5xx_ll_usb.c ****   {
 2504              		.loc 1 1074 6 view .LVU824
 2505 0004 012A     		cmp	r2, #1
 2506 0006 14D0     		beq	.L176
1084:Drivers/STM32U5xx_HAL_Driver/Src/stm32u5xx_ll_usb.c ****     {
 2507              		.loc 1 1084 5 is_stmt 1 view .LVU825
1084:Drivers/STM32U5xx_HAL_Driver/Src/stm32u5xx_ll_usb.c ****     {
 2508              		.loc 1 1084 11 is_stmt 0 view .LVU826
 2509 0008 00EB4310 		add	r0, r0, r3, lsl #5
 2510              	.LVL192:
1084:Drivers/STM32U5xx_HAL_Driver/Src/stm32u5xx_ll_usb.c ****     {
 2511              		.loc 1 1084 28 view .LVU827
 2512 000c D0F8002B 		ldr	r2, [r0, #2816]
1084:Drivers/STM32U5xx_HAL_Driver/Src/stm32u5xx_ll_usb.c ****     {
 2513              		.loc 1 1084 8 view .LVU828
 2514 0010 002A     		cmp	r2, #0
 2515 0012 06DB     		blt	.L175
1084:Drivers/STM32U5xx_HAL_Driver/Src/stm32u5xx_ll_usb.c ****     {
 2516              		.loc 1 1084 70 discriminator 1 view .LVU829
 2517 0014 2BB1     		cbz	r3, .L175
1086:Drivers/STM32U5xx_HAL_Driver/Src/stm32u5xx_ll_usb.c ****     }
 2518              		.loc 1 1086 7 is_stmt 1 view .LVU830
1086:Drivers/STM32U5xx_HAL_Driver/Src/stm32u5xx_ll_usb.c ****     }
 2519              		.loc 1 1086 34 is_stmt 0 view .LVU831
 2520 0016 D0F8003B 		ldr	r3, [r0, #2816]
 2521              	.LVL193:
1086:Drivers/STM32U5xx_HAL_Driver/Src/stm32u5xx_ll_usb.c ****     }
 2522              		.loc 1 1086 34 view .LVU832
 2523 001a 23F08043 		bic	r3, r3, #1073741824
 2524 001e C0F8003B 		str	r3, [r0, #2816]
 2525              	.LVL194:
 2526              	.L175:
1088:Drivers/STM32U5xx_HAL_Driver/Src/stm32u5xx_ll_usb.c ****   }
 2527              		.loc 1 1088 5 is_stmt 1 view .LVU833
1088:Drivers/STM32U5xx_HAL_Driver/Src/stm32u5xx_ll_usb.c ****   }
 2528              		.loc 1 1088 32 is_stmt 0 view .LVU834
 2529 0022 D0F8003B 		ldr	r3, [r0, #2816]
 2530 0026 43F40013 		orr	r3, r3, #2097152
ARM GAS  /tmp/cc0vokHo.s 			page 84


 2531 002a C0F8003B 		str	r3, [r0, #2816]
 2532              	.L174:
1091:Drivers/STM32U5xx_HAL_Driver/Src/stm32u5xx_ll_usb.c **** }
 2533              		.loc 1 1091 3 is_stmt 1 view .LVU835
1092:Drivers/STM32U5xx_HAL_Driver/Src/stm32u5xx_ll_usb.c **** 
 2534              		.loc 1 1092 1 is_stmt 0 view .LVU836
 2535 002e 0020     		movs	r0, #0
 2536 0030 7047     		bx	lr
 2537              	.LVL195:
 2538              	.L176:
1076:Drivers/STM32U5xx_HAL_Driver/Src/stm32u5xx_ll_usb.c ****     {
 2539              		.loc 1 1076 5 is_stmt 1 view .LVU837
1076:Drivers/STM32U5xx_HAL_Driver/Src/stm32u5xx_ll_usb.c ****     {
 2540              		.loc 1 1076 11 is_stmt 0 view .LVU838
 2541 0032 00EB4310 		add	r0, r0, r3, lsl #5
 2542              	.LVL196:
1076:Drivers/STM32U5xx_HAL_Driver/Src/stm32u5xx_ll_usb.c ****     {
 2543              		.loc 1 1076 27 view .LVU839
 2544 0036 D0F80029 		ldr	r2, [r0, #2304]
1076:Drivers/STM32U5xx_HAL_Driver/Src/stm32u5xx_ll_usb.c ****     {
 2545              		.loc 1 1076 8 view .LVU840
 2546 003a 002A     		cmp	r2, #0
 2547 003c 06DB     		blt	.L173
1076:Drivers/STM32U5xx_HAL_Driver/Src/stm32u5xx_ll_usb.c ****     {
 2548              		.loc 1 1076 69 discriminator 1 view .LVU841
 2549 003e 2BB1     		cbz	r3, .L173
1078:Drivers/STM32U5xx_HAL_Driver/Src/stm32u5xx_ll_usb.c ****     }
 2550              		.loc 1 1078 7 is_stmt 1 view .LVU842
1078:Drivers/STM32U5xx_HAL_Driver/Src/stm32u5xx_ll_usb.c ****     }
 2551              		.loc 1 1078 33 is_stmt 0 view .LVU843
 2552 0040 D0F80039 		ldr	r3, [r0, #2304]
 2553              	.LVL197:
1078:Drivers/STM32U5xx_HAL_Driver/Src/stm32u5xx_ll_usb.c ****     }
 2554              		.loc 1 1078 33 view .LVU844
 2555 0044 23F08043 		bic	r3, r3, #1073741824
 2556 0048 C0F80039 		str	r3, [r0, #2304]
 2557              	.LVL198:
 2558              	.L173:
1080:Drivers/STM32U5xx_HAL_Driver/Src/stm32u5xx_ll_usb.c ****   }
 2559              		.loc 1 1080 5 is_stmt 1 view .LVU845
1080:Drivers/STM32U5xx_HAL_Driver/Src/stm32u5xx_ll_usb.c ****   }
 2560              		.loc 1 1080 31 is_stmt 0 view .LVU846
 2561 004c D0F80039 		ldr	r3, [r0, #2304]
 2562 0050 43F40013 		orr	r3, r3, #2097152
 2563 0054 C0F80039 		str	r3, [r0, #2304]
 2564 0058 E9E7     		b	.L174
 2565              		.cfi_endproc
 2566              	.LFE363:
 2568              		.section	.text.USB_EPClearStall,"ax",%progbits
 2569              		.align	1
 2570              		.global	USB_EPClearStall
 2571              		.syntax unified
 2572              		.thumb
 2573              		.thumb_func
 2575              	USB_EPClearStall:
 2576              	.LVL199:
 2577              	.LFB364:
ARM GAS  /tmp/cc0vokHo.s 			page 85


1101:Drivers/STM32U5xx_HAL_Driver/Src/stm32u5xx_ll_usb.c ****   uint32_t USBx_BASE = (uint32_t)USBx;
 2578              		.loc 1 1101 1 is_stmt 1 view -0
 2579              		.cfi_startproc
 2580              		@ args = 0, pretend = 0, frame = 0
 2581              		@ frame_needed = 0, uses_anonymous_args = 0
 2582              		@ link register save eliminated.
1102:Drivers/STM32U5xx_HAL_Driver/Src/stm32u5xx_ll_usb.c ****   uint32_t epnum = (uint32_t)ep->num;
 2583              		.loc 1 1102 3 view .LVU848
1103:Drivers/STM32U5xx_HAL_Driver/Src/stm32u5xx_ll_usb.c **** 
 2584              		.loc 1 1103 3 view .LVU849
1103:Drivers/STM32U5xx_HAL_Driver/Src/stm32u5xx_ll_usb.c **** 
 2585              		.loc 1 1103 32 is_stmt 0 view .LVU850
 2586 0000 0B78     		ldrb	r3, [r1]	@ zero_extendqisi2
 2587              	.LVL200:
1105:Drivers/STM32U5xx_HAL_Driver/Src/stm32u5xx_ll_usb.c ****   {
 2588              		.loc 1 1105 3 is_stmt 1 view .LVU851
1105:Drivers/STM32U5xx_HAL_Driver/Src/stm32u5xx_ll_usb.c ****   {
 2589              		.loc 1 1105 9 is_stmt 0 view .LVU852
 2590 0002 4A78     		ldrb	r2, [r1, #1]	@ zero_extendqisi2
1105:Drivers/STM32U5xx_HAL_Driver/Src/stm32u5xx_ll_usb.c ****   {
 2591              		.loc 1 1105 6 view .LVU853
 2592 0004 012A     		cmp	r2, #1
 2593 0006 0ED0     		beq	.L180
1115:Drivers/STM32U5xx_HAL_Driver/Src/stm32u5xx_ll_usb.c ****     if ((ep->type == EP_TYPE_INTR) || (ep->type == EP_TYPE_BULK))
 2594              		.loc 1 1115 5 is_stmt 1 view .LVU854
1115:Drivers/STM32U5xx_HAL_Driver/Src/stm32u5xx_ll_usb.c ****     if ((ep->type == EP_TYPE_INTR) || (ep->type == EP_TYPE_BULK))
 2595              		.loc 1 1115 32 is_stmt 0 view .LVU855
 2596 0008 00EB4310 		add	r0, r0, r3, lsl #5
 2597              	.LVL201:
1115:Drivers/STM32U5xx_HAL_Driver/Src/stm32u5xx_ll_usb.c ****     if ((ep->type == EP_TYPE_INTR) || (ep->type == EP_TYPE_BULK))
 2598              		.loc 1 1115 32 view .LVU856
 2599 000c D0F8003B 		ldr	r3, [r0, #2816]
 2600              	.LVL202:
1115:Drivers/STM32U5xx_HAL_Driver/Src/stm32u5xx_ll_usb.c ****     if ((ep->type == EP_TYPE_INTR) || (ep->type == EP_TYPE_BULK))
 2601              		.loc 1 1115 32 view .LVU857
 2602 0010 23F40013 		bic	r3, r3, #2097152
 2603 0014 C0F8003B 		str	r3, [r0, #2816]
 2604              	.LVL203:
1116:Drivers/STM32U5xx_HAL_Driver/Src/stm32u5xx_ll_usb.c ****     {
 2605              		.loc 1 1116 5 is_stmt 1 view .LVU858
1116:Drivers/STM32U5xx_HAL_Driver/Src/stm32u5xx_ll_usb.c ****     {
 2606              		.loc 1 1116 12 is_stmt 0 view .LVU859
 2607 0018 0B79     		ldrb	r3, [r1, #4]	@ zero_extendqisi2
1116:Drivers/STM32U5xx_HAL_Driver/Src/stm32u5xx_ll_usb.c ****     {
 2608              		.loc 1 1116 36 view .LVU860
 2609 001a 023B     		subs	r3, r3, #2
 2610 001c DBB2     		uxtb	r3, r3
1116:Drivers/STM32U5xx_HAL_Driver/Src/stm32u5xx_ll_usb.c ****     {
 2611              		.loc 1 1116 8 view .LVU861
 2612 001e 012B     		cmp	r3, #1
 2613 0020 15D9     		bls	.L181
 2614              	.L179:
1121:Drivers/STM32U5xx_HAL_Driver/Src/stm32u5xx_ll_usb.c **** }
 2615              		.loc 1 1121 3 is_stmt 1 view .LVU862
1122:Drivers/STM32U5xx_HAL_Driver/Src/stm32u5xx_ll_usb.c **** 
 2616              		.loc 1 1122 1 is_stmt 0 view .LVU863
 2617 0022 0020     		movs	r0, #0
ARM GAS  /tmp/cc0vokHo.s 			page 86


 2618 0024 7047     		bx	lr
 2619              	.LVL204:
 2620              	.L180:
1107:Drivers/STM32U5xx_HAL_Driver/Src/stm32u5xx_ll_usb.c ****     if ((ep->type == EP_TYPE_INTR) || (ep->type == EP_TYPE_BULK))
 2621              		.loc 1 1107 5 is_stmt 1 view .LVU864
1107:Drivers/STM32U5xx_HAL_Driver/Src/stm32u5xx_ll_usb.c ****     if ((ep->type == EP_TYPE_INTR) || (ep->type == EP_TYPE_BULK))
 2622              		.loc 1 1107 31 is_stmt 0 view .LVU865
 2623 0026 00EB4310 		add	r0, r0, r3, lsl #5
 2624              	.LVL205:
1107:Drivers/STM32U5xx_HAL_Driver/Src/stm32u5xx_ll_usb.c ****     if ((ep->type == EP_TYPE_INTR) || (ep->type == EP_TYPE_BULK))
 2625              		.loc 1 1107 31 view .LVU866
 2626 002a D0F80039 		ldr	r3, [r0, #2304]
 2627              	.LVL206:
1107:Drivers/STM32U5xx_HAL_Driver/Src/stm32u5xx_ll_usb.c ****     if ((ep->type == EP_TYPE_INTR) || (ep->type == EP_TYPE_BULK))
 2628              		.loc 1 1107 31 view .LVU867
 2629 002e 23F40013 		bic	r3, r3, #2097152
 2630 0032 C0F80039 		str	r3, [r0, #2304]
 2631              	.LVL207:
1108:Drivers/STM32U5xx_HAL_Driver/Src/stm32u5xx_ll_usb.c ****     {
 2632              		.loc 1 1108 5 is_stmt 1 view .LVU868
1108:Drivers/STM32U5xx_HAL_Driver/Src/stm32u5xx_ll_usb.c ****     {
 2633              		.loc 1 1108 12 is_stmt 0 view .LVU869
 2634 0036 0B79     		ldrb	r3, [r1, #4]	@ zero_extendqisi2
1108:Drivers/STM32U5xx_HAL_Driver/Src/stm32u5xx_ll_usb.c ****     {
 2635              		.loc 1 1108 36 view .LVU870
 2636 0038 023B     		subs	r3, r3, #2
 2637 003a DBB2     		uxtb	r3, r3
1108:Drivers/STM32U5xx_HAL_Driver/Src/stm32u5xx_ll_usb.c ****     {
 2638              		.loc 1 1108 8 view .LVU871
 2639 003c 012B     		cmp	r3, #1
 2640 003e F0D8     		bhi	.L179
1110:Drivers/STM32U5xx_HAL_Driver/Src/stm32u5xx_ll_usb.c ****     }
 2641              		.loc 1 1110 7 is_stmt 1 view .LVU872
1110:Drivers/STM32U5xx_HAL_Driver/Src/stm32u5xx_ll_usb.c ****     }
 2642              		.loc 1 1110 33 is_stmt 0 view .LVU873
 2643 0040 D0F80039 		ldr	r3, [r0, #2304]
 2644 0044 43F08053 		orr	r3, r3, #268435456
 2645 0048 C0F80039 		str	r3, [r0, #2304]
 2646 004c E9E7     		b	.L179
 2647              	.L181:
1118:Drivers/STM32U5xx_HAL_Driver/Src/stm32u5xx_ll_usb.c ****     }
 2648              		.loc 1 1118 7 is_stmt 1 view .LVU874
1118:Drivers/STM32U5xx_HAL_Driver/Src/stm32u5xx_ll_usb.c ****     }
 2649              		.loc 1 1118 34 is_stmt 0 view .LVU875
 2650 004e D0F8003B 		ldr	r3, [r0, #2816]
 2651 0052 43F08053 		orr	r3, r3, #268435456
 2652 0056 C0F8003B 		str	r3, [r0, #2816]
 2653 005a E2E7     		b	.L179
 2654              		.cfi_endproc
 2655              	.LFE364:
 2657              		.section	.text.USB_StopDevice,"ax",%progbits
 2658              		.align	1
 2659              		.global	USB_StopDevice
 2660              		.syntax unified
 2661              		.thumb
 2662              		.thumb_func
 2664              	USB_StopDevice:
ARM GAS  /tmp/cc0vokHo.s 			page 87


 2665              	.LVL208:
 2666              	.LFB365:
1130:Drivers/STM32U5xx_HAL_Driver/Src/stm32u5xx_ll_usb.c ****   HAL_StatusTypeDef ret;
 2667              		.loc 1 1130 1 is_stmt 1 view -0
 2668              		.cfi_startproc
 2669              		@ args = 0, pretend = 0, frame = 0
 2670              		@ frame_needed = 0, uses_anonymous_args = 0
1130:Drivers/STM32U5xx_HAL_Driver/Src/stm32u5xx_ll_usb.c ****   HAL_StatusTypeDef ret;
 2671              		.loc 1 1130 1 is_stmt 0 view .LVU877
 2672 0000 10B5     		push	{r4, lr}
 2673              	.LCFI37:
 2674              		.cfi_def_cfa_offset 8
 2675              		.cfi_offset 4, -8
 2676              		.cfi_offset 14, -4
 2677 0002 0446     		mov	r4, r0
1131:Drivers/STM32U5xx_HAL_Driver/Src/stm32u5xx_ll_usb.c ****   uint32_t USBx_BASE = (uint32_t)USBx;
 2678              		.loc 1 1131 3 is_stmt 1 view .LVU878
1132:Drivers/STM32U5xx_HAL_Driver/Src/stm32u5xx_ll_usb.c ****   uint32_t i;
 2679              		.loc 1 1132 3 view .LVU879
 2680              	.LVL209:
1133:Drivers/STM32U5xx_HAL_Driver/Src/stm32u5xx_ll_usb.c **** 
 2681              		.loc 1 1133 3 view .LVU880
1136:Drivers/STM32U5xx_HAL_Driver/Src/stm32u5xx_ll_usb.c ****   {
 2682              		.loc 1 1136 3 view .LVU881
1136:Drivers/STM32U5xx_HAL_Driver/Src/stm32u5xx_ll_usb.c ****   {
 2683              		.loc 1 1136 10 is_stmt 0 view .LVU882
 2684 0004 0022     		movs	r2, #0
1136:Drivers/STM32U5xx_HAL_Driver/Src/stm32u5xx_ll_usb.c ****   {
 2685              		.loc 1 1136 3 view .LVU883
 2686 0006 08E0     		b	.L183
 2687              	.LVL210:
 2688              	.L184:
1138:Drivers/STM32U5xx_HAL_Driver/Src/stm32u5xx_ll_usb.c ****     USBx_OUTEP(i)->DOEPINT = 0xFB7FU;
 2689              		.loc 1 1138 5 is_stmt 1 discriminator 3 view .LVU884
 2690 0008 04EB4213 		add	r3, r4, r2, lsl #5
1138:Drivers/STM32U5xx_HAL_Driver/Src/stm32u5xx_ll_usb.c ****     USBx_OUTEP(i)->DOEPINT = 0xFB7FU;
 2691              		.loc 1 1138 27 is_stmt 0 discriminator 3 view .LVU885
 2692 000c 4FF67F31 		movw	r1, #64383
 2693 0010 C3F80819 		str	r1, [r3, #2312]
1139:Drivers/STM32U5xx_HAL_Driver/Src/stm32u5xx_ll_usb.c ****   }
 2694              		.loc 1 1139 5 is_stmt 1 discriminator 3 view .LVU886
1139:Drivers/STM32U5xx_HAL_Driver/Src/stm32u5xx_ll_usb.c ****   }
 2695              		.loc 1 1139 28 is_stmt 0 discriminator 3 view .LVU887
 2696 0014 C3F8081B 		str	r1, [r3, #2824]
1136:Drivers/STM32U5xx_HAL_Driver/Src/stm32u5xx_ll_usb.c ****   {
 2697              		.loc 1 1136 25 is_stmt 1 discriminator 3 view .LVU888
1136:Drivers/STM32U5xx_HAL_Driver/Src/stm32u5xx_ll_usb.c ****   {
 2698              		.loc 1 1136 26 is_stmt 0 discriminator 3 view .LVU889
 2699 0018 0132     		adds	r2, r2, #1
 2700              	.LVL211:
 2701              	.L183:
1136:Drivers/STM32U5xx_HAL_Driver/Src/stm32u5xx_ll_usb.c ****   {
 2702              		.loc 1 1136 16 is_stmt 1 discriminator 1 view .LVU890
1136:Drivers/STM32U5xx_HAL_Driver/Src/stm32u5xx_ll_usb.c ****   {
 2703              		.loc 1 1136 3 is_stmt 0 discriminator 1 view .LVU891
 2704 001a 0E2A     		cmp	r2, #14
 2705 001c F4D9     		bls	.L184
ARM GAS  /tmp/cc0vokHo.s 			page 88


1143:Drivers/STM32U5xx_HAL_Driver/Src/stm32u5xx_ll_usb.c ****   USBx_DEVICE->DOEPMSK  = 0U;
 2706              		.loc 1 1143 3 is_stmt 1 view .LVU892
1143:Drivers/STM32U5xx_HAL_Driver/Src/stm32u5xx_ll_usb.c ****   USBx_DEVICE->DOEPMSK  = 0U;
 2707              		.loc 1 1143 25 is_stmt 0 view .LVU893
 2708 001e 0022     		movs	r2, #0
 2709              	.LVL212:
1143:Drivers/STM32U5xx_HAL_Driver/Src/stm32u5xx_ll_usb.c ****   USBx_DEVICE->DOEPMSK  = 0U;
 2710              		.loc 1 1143 25 view .LVU894
 2711 0020 C4F81028 		str	r2, [r4, #2064]
1144:Drivers/STM32U5xx_HAL_Driver/Src/stm32u5xx_ll_usb.c ****   USBx_DEVICE->DAINTMSK = 0U;
 2712              		.loc 1 1144 3 is_stmt 1 view .LVU895
1144:Drivers/STM32U5xx_HAL_Driver/Src/stm32u5xx_ll_usb.c ****   USBx_DEVICE->DAINTMSK = 0U;
 2713              		.loc 1 1144 25 is_stmt 0 view .LVU896
 2714 0024 C4F81428 		str	r2, [r4, #2068]
1145:Drivers/STM32U5xx_HAL_Driver/Src/stm32u5xx_ll_usb.c **** 
 2715              		.loc 1 1145 3 is_stmt 1 view .LVU897
1145:Drivers/STM32U5xx_HAL_Driver/Src/stm32u5xx_ll_usb.c **** 
 2716              		.loc 1 1145 25 is_stmt 0 view .LVU898
 2717 0028 C4F81C28 		str	r2, [r4, #2076]
1148:Drivers/STM32U5xx_HAL_Driver/Src/stm32u5xx_ll_usb.c ****   if (ret != HAL_OK)
 2718              		.loc 1 1148 3 is_stmt 1 view .LVU899
1148:Drivers/STM32U5xx_HAL_Driver/Src/stm32u5xx_ll_usb.c ****   if (ret != HAL_OK)
 2719              		.loc 1 1148 9 is_stmt 0 view .LVU900
 2720 002c 2046     		mov	r0, r4
 2721              	.LVL213:
1148:Drivers/STM32U5xx_HAL_Driver/Src/stm32u5xx_ll_usb.c ****   if (ret != HAL_OK)
 2722              		.loc 1 1148 9 view .LVU901
 2723 002e FFF7FEFF 		bl	USB_FlushRxFifo
 2724              	.LVL214:
1149:Drivers/STM32U5xx_HAL_Driver/Src/stm32u5xx_ll_usb.c ****   {
 2725              		.loc 1 1149 3 is_stmt 1 view .LVU902
1149:Drivers/STM32U5xx_HAL_Driver/Src/stm32u5xx_ll_usb.c ****   {
 2726              		.loc 1 1149 6 is_stmt 0 view .LVU903
 2727 0032 00B1     		cbz	r0, .L187
 2728              	.L185:
1161:Drivers/STM32U5xx_HAL_Driver/Src/stm32u5xx_ll_usb.c **** 
 2729              		.loc 1 1161 1 view .LVU904
 2730 0034 10BD     		pop	{r4, pc}
 2731              	.LVL215:
 2732              	.L187:
1154:Drivers/STM32U5xx_HAL_Driver/Src/stm32u5xx_ll_usb.c ****   if (ret != HAL_OK)
 2733              		.loc 1 1154 3 is_stmt 1 view .LVU905
1154:Drivers/STM32U5xx_HAL_Driver/Src/stm32u5xx_ll_usb.c ****   if (ret != HAL_OK)
 2734              		.loc 1 1154 9 is_stmt 0 view .LVU906
 2735 0036 1021     		movs	r1, #16
 2736 0038 2046     		mov	r0, r4
 2737              	.LVL216:
1154:Drivers/STM32U5xx_HAL_Driver/Src/stm32u5xx_ll_usb.c ****   if (ret != HAL_OK)
 2738              		.loc 1 1154 9 view .LVU907
 2739 003a FFF7FEFF 		bl	USB_FlushTxFifo
 2740              	.LVL217:
1155:Drivers/STM32U5xx_HAL_Driver/Src/stm32u5xx_ll_usb.c ****   {
 2741              		.loc 1 1155 3 is_stmt 1 view .LVU908
 2742 003e F9E7     		b	.L185
 2743              		.cfi_endproc
 2744              	.LFE365:
 2746              		.section	.text.USB_SetDevAddress,"ax",%progbits
ARM GAS  /tmp/cc0vokHo.s 			page 89


 2747              		.align	1
 2748              		.global	USB_SetDevAddress
 2749              		.syntax unified
 2750              		.thumb
 2751              		.thumb_func
 2753              	USB_SetDevAddress:
 2754              	.LVL218:
 2755              	.LFB366:
1171:Drivers/STM32U5xx_HAL_Driver/Src/stm32u5xx_ll_usb.c ****   uint32_t USBx_BASE = (uint32_t)USBx;
 2756              		.loc 1 1171 1 view -0
 2757              		.cfi_startproc
 2758              		@ args = 0, pretend = 0, frame = 0
 2759              		@ frame_needed = 0, uses_anonymous_args = 0
 2760              		@ link register save eliminated.
1172:Drivers/STM32U5xx_HAL_Driver/Src/stm32u5xx_ll_usb.c **** 
 2761              		.loc 1 1172 3 view .LVU910
1174:Drivers/STM32U5xx_HAL_Driver/Src/stm32u5xx_ll_usb.c ****   USBx_DEVICE->DCFG |= ((uint32_t)address << 4) & USB_OTG_DCFG_DAD;
 2762              		.loc 1 1174 3 view .LVU911
1174:Drivers/STM32U5xx_HAL_Driver/Src/stm32u5xx_ll_usb.c ****   USBx_DEVICE->DCFG |= ((uint32_t)address << 4) & USB_OTG_DCFG_DAD;
 2763              		.loc 1 1174 21 is_stmt 0 view .LVU912
 2764 0000 D0F80038 		ldr	r3, [r0, #2048]
 2765 0004 23F4FE63 		bic	r3, r3, #2032
 2766 0008 C0F80038 		str	r3, [r0, #2048]
1175:Drivers/STM32U5xx_HAL_Driver/Src/stm32u5xx_ll_usb.c **** 
 2767              		.loc 1 1175 3 is_stmt 1 view .LVU913
1175:Drivers/STM32U5xx_HAL_Driver/Src/stm32u5xx_ll_usb.c **** 
 2768              		.loc 1 1175 21 is_stmt 0 view .LVU914
 2769 000c D0F80038 		ldr	r3, [r0, #2048]
1175:Drivers/STM32U5xx_HAL_Driver/Src/stm32u5xx_ll_usb.c **** 
 2770              		.loc 1 1175 43 view .LVU915
 2771 0010 0901     		lsls	r1, r1, #4
 2772              	.LVL219:
1175:Drivers/STM32U5xx_HAL_Driver/Src/stm32u5xx_ll_usb.c **** 
 2773              		.loc 1 1175 49 view .LVU916
 2774 0012 01F4FE61 		and	r1, r1, #2032
1175:Drivers/STM32U5xx_HAL_Driver/Src/stm32u5xx_ll_usb.c **** 
 2775              		.loc 1 1175 21 view .LVU917
 2776 0016 1943     		orrs	r1, r1, r3
 2777 0018 C0F80018 		str	r1, [r0, #2048]
1177:Drivers/STM32U5xx_HAL_Driver/Src/stm32u5xx_ll_usb.c **** }
 2778              		.loc 1 1177 3 is_stmt 1 view .LVU918
1178:Drivers/STM32U5xx_HAL_Driver/Src/stm32u5xx_ll_usb.c **** 
 2779              		.loc 1 1178 1 is_stmt 0 view .LVU919
 2780 001c 0020     		movs	r0, #0
 2781              	.LVL220:
1178:Drivers/STM32U5xx_HAL_Driver/Src/stm32u5xx_ll_usb.c **** 
 2782              		.loc 1 1178 1 view .LVU920
 2783 001e 7047     		bx	lr
 2784              		.cfi_endproc
 2785              	.LFE366:
 2787              		.section	.text.USB_DevConnect,"ax",%progbits
 2788              		.align	1
 2789              		.global	USB_DevConnect
 2790              		.syntax unified
 2791              		.thumb
 2792              		.thumb_func
 2794              	USB_DevConnect:
ARM GAS  /tmp/cc0vokHo.s 			page 90


 2795              	.LVL221:
 2796              	.LFB367:
1186:Drivers/STM32U5xx_HAL_Driver/Src/stm32u5xx_ll_usb.c ****   uint32_t USBx_BASE = (uint32_t)USBx;
 2797              		.loc 1 1186 1 is_stmt 1 view -0
 2798              		.cfi_startproc
 2799              		@ args = 0, pretend = 0, frame = 0
 2800              		@ frame_needed = 0, uses_anonymous_args = 0
 2801              		@ link register save eliminated.
1187:Drivers/STM32U5xx_HAL_Driver/Src/stm32u5xx_ll_usb.c **** 
 2802              		.loc 1 1187 3 view .LVU922
1190:Drivers/STM32U5xx_HAL_Driver/Src/stm32u5xx_ll_usb.c **** 
 2803              		.loc 1 1190 3 view .LVU923
1190:Drivers/STM32U5xx_HAL_Driver/Src/stm32u5xx_ll_usb.c **** 
 2804              		.loc 1 1190 16 is_stmt 0 view .LVU924
 2805 0000 D0F8003E 		ldr	r3, [r0, #3584]
 2806 0004 23F00303 		bic	r3, r3, #3
 2807 0008 C0F8003E 		str	r3, [r0, #3584]
1192:Drivers/STM32U5xx_HAL_Driver/Src/stm32u5xx_ll_usb.c **** 
 2808              		.loc 1 1192 3 is_stmt 1 view .LVU925
1192:Drivers/STM32U5xx_HAL_Driver/Src/stm32u5xx_ll_usb.c **** 
 2809              		.loc 1 1192 21 is_stmt 0 view .LVU926
 2810 000c D0F80438 		ldr	r3, [r0, #2052]
 2811 0010 23F00203 		bic	r3, r3, #2
 2812 0014 C0F80438 		str	r3, [r0, #2052]
1194:Drivers/STM32U5xx_HAL_Driver/Src/stm32u5xx_ll_usb.c **** }
 2813              		.loc 1 1194 3 is_stmt 1 view .LVU927
1195:Drivers/STM32U5xx_HAL_Driver/Src/stm32u5xx_ll_usb.c **** 
 2814              		.loc 1 1195 1 is_stmt 0 view .LVU928
 2815 0018 0020     		movs	r0, #0
 2816              	.LVL222:
1195:Drivers/STM32U5xx_HAL_Driver/Src/stm32u5xx_ll_usb.c **** 
 2817              		.loc 1 1195 1 view .LVU929
 2818 001a 7047     		bx	lr
 2819              		.cfi_endproc
 2820              	.LFE367:
 2822              		.section	.text.USB_DevDisconnect,"ax",%progbits
 2823              		.align	1
 2824              		.global	USB_DevDisconnect
 2825              		.syntax unified
 2826              		.thumb
 2827              		.thumb_func
 2829              	USB_DevDisconnect:
 2830              	.LVL223:
 2831              	.LFB368:
1203:Drivers/STM32U5xx_HAL_Driver/Src/stm32u5xx_ll_usb.c ****   uint32_t USBx_BASE = (uint32_t)USBx;
 2832              		.loc 1 1203 1 is_stmt 1 view -0
 2833              		.cfi_startproc
 2834              		@ args = 0, pretend = 0, frame = 0
 2835              		@ frame_needed = 0, uses_anonymous_args = 0
 2836              		@ link register save eliminated.
1204:Drivers/STM32U5xx_HAL_Driver/Src/stm32u5xx_ll_usb.c **** 
 2837              		.loc 1 1204 3 view .LVU931
1207:Drivers/STM32U5xx_HAL_Driver/Src/stm32u5xx_ll_usb.c **** 
 2838              		.loc 1 1207 3 view .LVU932
1207:Drivers/STM32U5xx_HAL_Driver/Src/stm32u5xx_ll_usb.c **** 
 2839              		.loc 1 1207 16 is_stmt 0 view .LVU933
 2840 0000 D0F8003E 		ldr	r3, [r0, #3584]
ARM GAS  /tmp/cc0vokHo.s 			page 91


 2841 0004 23F00303 		bic	r3, r3, #3
 2842 0008 C0F8003E 		str	r3, [r0, #3584]
1209:Drivers/STM32U5xx_HAL_Driver/Src/stm32u5xx_ll_usb.c **** 
 2843              		.loc 1 1209 3 is_stmt 1 view .LVU934
1209:Drivers/STM32U5xx_HAL_Driver/Src/stm32u5xx_ll_usb.c **** 
 2844              		.loc 1 1209 21 is_stmt 0 view .LVU935
 2845 000c D0F80438 		ldr	r3, [r0, #2052]
 2846 0010 43F00203 		orr	r3, r3, #2
 2847 0014 C0F80438 		str	r3, [r0, #2052]
1211:Drivers/STM32U5xx_HAL_Driver/Src/stm32u5xx_ll_usb.c **** }
 2848              		.loc 1 1211 3 is_stmt 1 view .LVU936
1212:Drivers/STM32U5xx_HAL_Driver/Src/stm32u5xx_ll_usb.c **** 
 2849              		.loc 1 1212 1 is_stmt 0 view .LVU937
 2850 0018 0020     		movs	r0, #0
 2851              	.LVL224:
1212:Drivers/STM32U5xx_HAL_Driver/Src/stm32u5xx_ll_usb.c **** 
 2852              		.loc 1 1212 1 view .LVU938
 2853 001a 7047     		bx	lr
 2854              		.cfi_endproc
 2855              	.LFE368:
 2857              		.section	.text.USB_ReadInterrupts,"ax",%progbits
 2858              		.align	1
 2859              		.global	USB_ReadInterrupts
 2860              		.syntax unified
 2861              		.thumb
 2862              		.thumb_func
 2864              	USB_ReadInterrupts:
 2865              	.LVL225:
 2866              	.LFB369:
1220:Drivers/STM32U5xx_HAL_Driver/Src/stm32u5xx_ll_usb.c ****   uint32_t tmpreg;
 2867              		.loc 1 1220 1 is_stmt 1 view -0
 2868              		.cfi_startproc
 2869              		@ args = 0, pretend = 0, frame = 0
 2870              		@ frame_needed = 0, uses_anonymous_args = 0
 2871              		@ link register save eliminated.
1221:Drivers/STM32U5xx_HAL_Driver/Src/stm32u5xx_ll_usb.c **** 
 2872              		.loc 1 1221 3 view .LVU940
1223:Drivers/STM32U5xx_HAL_Driver/Src/stm32u5xx_ll_usb.c ****   tmpreg &= USBx->GINTMSK;
 2873              		.loc 1 1223 3 view .LVU941
1223:Drivers/STM32U5xx_HAL_Driver/Src/stm32u5xx_ll_usb.c ****   tmpreg &= USBx->GINTMSK;
 2874              		.loc 1 1223 10 is_stmt 0 view .LVU942
 2875 0000 4269     		ldr	r2, [r0, #20]
 2876              	.LVL226:
1224:Drivers/STM32U5xx_HAL_Driver/Src/stm32u5xx_ll_usb.c **** 
 2877              		.loc 1 1224 3 is_stmt 1 view .LVU943
1224:Drivers/STM32U5xx_HAL_Driver/Src/stm32u5xx_ll_usb.c **** 
 2878              		.loc 1 1224 17 is_stmt 0 view .LVU944
 2879 0002 8069     		ldr	r0, [r0, #24]
 2880              	.LVL227:
1226:Drivers/STM32U5xx_HAL_Driver/Src/stm32u5xx_ll_usb.c **** }
 2881              		.loc 1 1226 3 is_stmt 1 view .LVU945
1227:Drivers/STM32U5xx_HAL_Driver/Src/stm32u5xx_ll_usb.c **** 
 2882              		.loc 1 1227 1 is_stmt 0 view .LVU946
 2883 0004 1040     		ands	r0, r0, r2
 2884              	.LVL228:
1227:Drivers/STM32U5xx_HAL_Driver/Src/stm32u5xx_ll_usb.c **** 
 2885              		.loc 1 1227 1 view .LVU947
ARM GAS  /tmp/cc0vokHo.s 			page 92


 2886 0006 7047     		bx	lr
 2887              		.cfi_endproc
 2888              	.LFE369:
 2890              		.section	.text.USB_ReadChInterrupts,"ax",%progbits
 2891              		.align	1
 2892              		.global	USB_ReadChInterrupts
 2893              		.syntax unified
 2894              		.thumb
 2895              		.thumb_func
 2897              	USB_ReadChInterrupts:
 2898              	.LVL229:
 2899              	.LFB370:
1236:Drivers/STM32U5xx_HAL_Driver/Src/stm32u5xx_ll_usb.c ****   uint32_t USBx_BASE = (uint32_t)USBx;
 2900              		.loc 1 1236 1 is_stmt 1 view -0
 2901              		.cfi_startproc
 2902              		@ args = 0, pretend = 0, frame = 0
 2903              		@ frame_needed = 0, uses_anonymous_args = 0
 2904              		@ link register save eliminated.
1237:Drivers/STM32U5xx_HAL_Driver/Src/stm32u5xx_ll_usb.c ****   uint32_t tmpreg;
 2905              		.loc 1 1237 3 view .LVU949
1238:Drivers/STM32U5xx_HAL_Driver/Src/stm32u5xx_ll_usb.c **** 
 2906              		.loc 1 1238 3 view .LVU950
1240:Drivers/STM32U5xx_HAL_Driver/Src/stm32u5xx_ll_usb.c ****   tmpreg &= USBx_HC(chnum)->HCINTMSK;
 2907              		.loc 1 1240 3 view .LVU951
1240:Drivers/STM32U5xx_HAL_Driver/Src/stm32u5xx_ll_usb.c ****   tmpreg &= USBx_HC(chnum)->HCINTMSK;
 2908              		.loc 1 1240 12 is_stmt 0 view .LVU952
 2909 0000 00EB4111 		add	r1, r0, r1, lsl #5
 2910              	.LVL230:
1240:Drivers/STM32U5xx_HAL_Driver/Src/stm32u5xx_ll_usb.c ****   tmpreg &= USBx_HC(chnum)->HCINTMSK;
 2911              		.loc 1 1240 10 view .LVU953
 2912 0004 D1F80805 		ldr	r0, [r1, #1288]
 2913              	.LVL231:
1241:Drivers/STM32U5xx_HAL_Driver/Src/stm32u5xx_ll_usb.c **** 
 2914              		.loc 1 1241 3 is_stmt 1 view .LVU954
1241:Drivers/STM32U5xx_HAL_Driver/Src/stm32u5xx_ll_usb.c **** 
 2915              		.loc 1 1241 27 is_stmt 0 view .LVU955
 2916 0008 D1F80C35 		ldr	r3, [r1, #1292]
 2917              	.LVL232:
1243:Drivers/STM32U5xx_HAL_Driver/Src/stm32u5xx_ll_usb.c **** }
 2918              		.loc 1 1243 3 is_stmt 1 view .LVU956
1244:Drivers/STM32U5xx_HAL_Driver/Src/stm32u5xx_ll_usb.c **** 
 2919              		.loc 1 1244 1 is_stmt 0 view .LVU957
 2920 000c 1840     		ands	r0, r0, r3
 2921              	.LVL233:
1244:Drivers/STM32U5xx_HAL_Driver/Src/stm32u5xx_ll_usb.c **** 
 2922              		.loc 1 1244 1 view .LVU958
 2923 000e 7047     		bx	lr
 2924              		.cfi_endproc
 2925              	.LFE370:
 2927              		.section	.text.USB_ReadDevAllOutEpInterrupt,"ax",%progbits
 2928              		.align	1
 2929              		.global	USB_ReadDevAllOutEpInterrupt
 2930              		.syntax unified
 2931              		.thumb
 2932              		.thumb_func
 2934              	USB_ReadDevAllOutEpInterrupt:
 2935              	.LVL234:
ARM GAS  /tmp/cc0vokHo.s 			page 93


 2936              	.LFB371:
1252:Drivers/STM32U5xx_HAL_Driver/Src/stm32u5xx_ll_usb.c ****   uint32_t USBx_BASE = (uint32_t)USBx;
 2937              		.loc 1 1252 1 is_stmt 1 view -0
 2938              		.cfi_startproc
 2939              		@ args = 0, pretend = 0, frame = 0
 2940              		@ frame_needed = 0, uses_anonymous_args = 0
 2941              		@ link register save eliminated.
1253:Drivers/STM32U5xx_HAL_Driver/Src/stm32u5xx_ll_usb.c ****   uint32_t tmpreg;
 2942              		.loc 1 1253 3 view .LVU960
1254:Drivers/STM32U5xx_HAL_Driver/Src/stm32u5xx_ll_usb.c **** 
 2943              		.loc 1 1254 3 view .LVU961
1256:Drivers/STM32U5xx_HAL_Driver/Src/stm32u5xx_ll_usb.c ****   tmpreg &= USBx_DEVICE->DAINTMSK;
 2944              		.loc 1 1256 3 view .LVU962
1256:Drivers/STM32U5xx_HAL_Driver/Src/stm32u5xx_ll_usb.c ****   tmpreg &= USBx_DEVICE->DAINTMSK;
 2945              		.loc 1 1256 11 is_stmt 0 view .LVU963
 2946 0000 D0F81838 		ldr	r3, [r0, #2072]
1256:Drivers/STM32U5xx_HAL_Driver/Src/stm32u5xx_ll_usb.c ****   tmpreg &= USBx_DEVICE->DAINTMSK;
 2947              		.loc 1 1256 13 view .LVU964
 2948 0004 00F50060 		add	r0, r0, #2048
 2949              	.LVL235:
1257:Drivers/STM32U5xx_HAL_Driver/Src/stm32u5xx_ll_usb.c **** 
 2950              		.loc 1 1257 3 is_stmt 1 view .LVU965
1257:Drivers/STM32U5xx_HAL_Driver/Src/stm32u5xx_ll_usb.c **** 
 2951              		.loc 1 1257 24 is_stmt 0 view .LVU966
 2952 0008 C069     		ldr	r0, [r0, #28]
 2953              	.LVL236:
1257:Drivers/STM32U5xx_HAL_Driver/Src/stm32u5xx_ll_usb.c **** 
 2954              		.loc 1 1257 10 view .LVU967
 2955 000a 1840     		ands	r0, r0, r3
 2956              	.LVL237:
1259:Drivers/STM32U5xx_HAL_Driver/Src/stm32u5xx_ll_usb.c **** }
 2957              		.loc 1 1259 3 is_stmt 1 view .LVU968
1260:Drivers/STM32U5xx_HAL_Driver/Src/stm32u5xx_ll_usb.c **** 
 2958              		.loc 1 1260 1 is_stmt 0 view .LVU969
 2959 000c 000C     		lsrs	r0, r0, #16
 2960              	.LVL238:
1260:Drivers/STM32U5xx_HAL_Driver/Src/stm32u5xx_ll_usb.c **** 
 2961              		.loc 1 1260 1 view .LVU970
 2962 000e 7047     		bx	lr
 2963              		.cfi_endproc
 2964              	.LFE371:
 2966              		.section	.text.USB_ReadDevAllInEpInterrupt,"ax",%progbits
 2967              		.align	1
 2968              		.global	USB_ReadDevAllInEpInterrupt
 2969              		.syntax unified
 2970              		.thumb
 2971              		.thumb_func
 2973              	USB_ReadDevAllInEpInterrupt:
 2974              	.LVL239:
 2975              	.LFB372:
1268:Drivers/STM32U5xx_HAL_Driver/Src/stm32u5xx_ll_usb.c ****   uint32_t USBx_BASE = (uint32_t)USBx;
 2976              		.loc 1 1268 1 is_stmt 1 view -0
 2977              		.cfi_startproc
 2978              		@ args = 0, pretend = 0, frame = 0
 2979              		@ frame_needed = 0, uses_anonymous_args = 0
 2980              		@ link register save eliminated.
1269:Drivers/STM32U5xx_HAL_Driver/Src/stm32u5xx_ll_usb.c ****   uint32_t tmpreg;
ARM GAS  /tmp/cc0vokHo.s 			page 94


 2981              		.loc 1 1269 3 view .LVU972
1270:Drivers/STM32U5xx_HAL_Driver/Src/stm32u5xx_ll_usb.c **** 
 2982              		.loc 1 1270 3 view .LVU973
1272:Drivers/STM32U5xx_HAL_Driver/Src/stm32u5xx_ll_usb.c ****   tmpreg &= USBx_DEVICE->DAINTMSK;
 2983              		.loc 1 1272 3 view .LVU974
1272:Drivers/STM32U5xx_HAL_Driver/Src/stm32u5xx_ll_usb.c ****   tmpreg &= USBx_DEVICE->DAINTMSK;
 2984              		.loc 1 1272 11 is_stmt 0 view .LVU975
 2985 0000 D0F81838 		ldr	r3, [r0, #2072]
1272:Drivers/STM32U5xx_HAL_Driver/Src/stm32u5xx_ll_usb.c ****   tmpreg &= USBx_DEVICE->DAINTMSK;
 2986              		.loc 1 1272 13 view .LVU976
 2987 0004 00F50060 		add	r0, r0, #2048
 2988              	.LVL240:
1273:Drivers/STM32U5xx_HAL_Driver/Src/stm32u5xx_ll_usb.c **** 
 2989              		.loc 1 1273 3 is_stmt 1 view .LVU977
1273:Drivers/STM32U5xx_HAL_Driver/Src/stm32u5xx_ll_usb.c **** 
 2990              		.loc 1 1273 24 is_stmt 0 view .LVU978
 2991 0008 C069     		ldr	r0, [r0, #28]
 2992              	.LVL241:
1273:Drivers/STM32U5xx_HAL_Driver/Src/stm32u5xx_ll_usb.c **** 
 2993              		.loc 1 1273 10 view .LVU979
 2994 000a 1840     		ands	r0, r0, r3
 2995              	.LVL242:
1275:Drivers/STM32U5xx_HAL_Driver/Src/stm32u5xx_ll_usb.c **** }
 2996              		.loc 1 1275 3 is_stmt 1 view .LVU980
1276:Drivers/STM32U5xx_HAL_Driver/Src/stm32u5xx_ll_usb.c **** 
 2997              		.loc 1 1276 1 is_stmt 0 view .LVU981
 2998 000c 80B2     		uxth	r0, r0
 2999              	.LVL243:
1276:Drivers/STM32U5xx_HAL_Driver/Src/stm32u5xx_ll_usb.c **** 
 3000              		.loc 1 1276 1 view .LVU982
 3001 000e 7047     		bx	lr
 3002              		.cfi_endproc
 3003              	.LFE372:
 3005              		.section	.text.USB_ReadDevOutEPInterrupt,"ax",%progbits
 3006              		.align	1
 3007              		.global	USB_ReadDevOutEPInterrupt
 3008              		.syntax unified
 3009              		.thumb
 3010              		.thumb_func
 3012              	USB_ReadDevOutEPInterrupt:
 3013              	.LVL244:
 3014              	.LFB373:
1286:Drivers/STM32U5xx_HAL_Driver/Src/stm32u5xx_ll_usb.c ****   uint32_t USBx_BASE = (uint32_t)USBx;
 3015              		.loc 1 1286 1 is_stmt 1 view -0
 3016              		.cfi_startproc
 3017              		@ args = 0, pretend = 0, frame = 0
 3018              		@ frame_needed = 0, uses_anonymous_args = 0
 3019              		@ link register save eliminated.
1287:Drivers/STM32U5xx_HAL_Driver/Src/stm32u5xx_ll_usb.c ****   uint32_t tmpreg;
 3020              		.loc 1 1287 3 view .LVU984
1288:Drivers/STM32U5xx_HAL_Driver/Src/stm32u5xx_ll_usb.c **** 
 3021              		.loc 1 1288 3 view .LVU985
1290:Drivers/STM32U5xx_HAL_Driver/Src/stm32u5xx_ll_usb.c ****   tmpreg &= USBx_DEVICE->DOEPMSK;
 3022              		.loc 1 1290 3 view .LVU986
1290:Drivers/STM32U5xx_HAL_Driver/Src/stm32u5xx_ll_usb.c ****   tmpreg &= USBx_DEVICE->DOEPMSK;
 3023              		.loc 1 1290 13 is_stmt 0 view .LVU987
 3024 0000 00EB4111 		add	r1, r0, r1, lsl #5
ARM GAS  /tmp/cc0vokHo.s 			page 95


 3025              	.LVL245:
1290:Drivers/STM32U5xx_HAL_Driver/Src/stm32u5xx_ll_usb.c ****   tmpreg &= USBx_DEVICE->DOEPMSK;
 3026              		.loc 1 1290 11 view .LVU988
 3027 0004 D1F8082B 		ldr	r2, [r1, #2824]
 3028              	.LVL246:
1291:Drivers/STM32U5xx_HAL_Driver/Src/stm32u5xx_ll_usb.c **** 
 3029              		.loc 1 1291 3 is_stmt 1 view .LVU989
1291:Drivers/STM32U5xx_HAL_Driver/Src/stm32u5xx_ll_usb.c **** 
 3030              		.loc 1 1291 13 is_stmt 0 view .LVU990
 3031 0008 00F50060 		add	r0, r0, #2048
 3032              	.LVL247:
1291:Drivers/STM32U5xx_HAL_Driver/Src/stm32u5xx_ll_usb.c **** 
 3033              		.loc 1 1291 24 view .LVU991
 3034 000c 4069     		ldr	r0, [r0, #20]
 3035              	.LVL248:
1293:Drivers/STM32U5xx_HAL_Driver/Src/stm32u5xx_ll_usb.c **** }
 3036              		.loc 1 1293 3 is_stmt 1 view .LVU992
1294:Drivers/STM32U5xx_HAL_Driver/Src/stm32u5xx_ll_usb.c **** 
 3037              		.loc 1 1294 1 is_stmt 0 view .LVU993
 3038 000e 1040     		ands	r0, r0, r2
 3039              	.LVL249:
1294:Drivers/STM32U5xx_HAL_Driver/Src/stm32u5xx_ll_usb.c **** 
 3040              		.loc 1 1294 1 view .LVU994
 3041 0010 7047     		bx	lr
 3042              		.cfi_endproc
 3043              	.LFE373:
 3045              		.section	.text.USB_ReadDevInEPInterrupt,"ax",%progbits
 3046              		.align	1
 3047              		.global	USB_ReadDevInEPInterrupt
 3048              		.syntax unified
 3049              		.thumb
 3050              		.thumb_func
 3052              	USB_ReadDevInEPInterrupt:
 3053              	.LVL250:
 3054              	.LFB374:
1304:Drivers/STM32U5xx_HAL_Driver/Src/stm32u5xx_ll_usb.c ****   uint32_t USBx_BASE = (uint32_t)USBx;
 3055              		.loc 1 1304 1 is_stmt 1 view -0
 3056              		.cfi_startproc
 3057              		@ args = 0, pretend = 0, frame = 0
 3058              		@ frame_needed = 0, uses_anonymous_args = 0
 3059              		@ link register save eliminated.
1304:Drivers/STM32U5xx_HAL_Driver/Src/stm32u5xx_ll_usb.c ****   uint32_t USBx_BASE = (uint32_t)USBx;
 3060              		.loc 1 1304 1 is_stmt 0 view .LVU996
 3061 0000 10B4     		push	{r4}
 3062              	.LCFI38:
 3063              		.cfi_def_cfa_offset 4
 3064              		.cfi_offset 4, -4
1305:Drivers/STM32U5xx_HAL_Driver/Src/stm32u5xx_ll_usb.c ****   uint32_t tmpreg;
 3065              		.loc 1 1305 3 is_stmt 1 view .LVU997
 3066              	.LVL251:
1306:Drivers/STM32U5xx_HAL_Driver/Src/stm32u5xx_ll_usb.c ****   uint32_t msk;
 3067              		.loc 1 1306 3 view .LVU998
1307:Drivers/STM32U5xx_HAL_Driver/Src/stm32u5xx_ll_usb.c ****   uint32_t emp;
 3068              		.loc 1 1307 3 view .LVU999
1308:Drivers/STM32U5xx_HAL_Driver/Src/stm32u5xx_ll_usb.c **** 
 3069              		.loc 1 1308 3 view .LVU1000
1310:Drivers/STM32U5xx_HAL_Driver/Src/stm32u5xx_ll_usb.c ****   emp = USBx_DEVICE->DIEPEMPMSK;
ARM GAS  /tmp/cc0vokHo.s 			page 96


 3070              		.loc 1 1310 3 view .LVU1001
1310:Drivers/STM32U5xx_HAL_Driver/Src/stm32u5xx_ll_usb.c ****   emp = USBx_DEVICE->DIEPEMPMSK;
 3071              		.loc 1 1310 7 is_stmt 0 view .LVU1002
 3072 0002 D0F81048 		ldr	r4, [r0, #2064]
 3073              	.LVL252:
1311:Drivers/STM32U5xx_HAL_Driver/Src/stm32u5xx_ll_usb.c ****   msk |= ((emp >> (epnum & EP_ADDR_MSK)) & 0x1U) << 7;
 3074              		.loc 1 1311 3 is_stmt 1 view .LVU1003
1311:Drivers/STM32U5xx_HAL_Driver/Src/stm32u5xx_ll_usb.c ****   msk |= ((emp >> (epnum & EP_ADDR_MSK)) & 0x1U) << 7;
 3075              		.loc 1 1311 7 is_stmt 0 view .LVU1004
 3076 0006 D0F83438 		ldr	r3, [r0, #2100]
 3077              	.LVL253:
1312:Drivers/STM32U5xx_HAL_Driver/Src/stm32u5xx_ll_usb.c ****   tmpreg = USBx_INEP((uint32_t)epnum)->DIEPINT & msk;
 3078              		.loc 1 1312 3 is_stmt 1 view .LVU1005
1312:Drivers/STM32U5xx_HAL_Driver/Src/stm32u5xx_ll_usb.c ****   tmpreg = USBx_INEP((uint32_t)epnum)->DIEPINT & msk;
 3079              		.loc 1 1312 26 is_stmt 0 view .LVU1006
 3080 000a 01F00F02 		and	r2, r1, #15
1312:Drivers/STM32U5xx_HAL_Driver/Src/stm32u5xx_ll_usb.c ****   tmpreg = USBx_INEP((uint32_t)epnum)->DIEPINT & msk;
 3081              		.loc 1 1312 16 view .LVU1007
 3082 000e D340     		lsrs	r3, r3, r2
 3083              	.LVL254:
1312:Drivers/STM32U5xx_HAL_Driver/Src/stm32u5xx_ll_usb.c ****   tmpreg = USBx_INEP((uint32_t)epnum)->DIEPINT & msk;
 3084              		.loc 1 1312 50 view .LVU1008
 3085 0010 DB01     		lsls	r3, r3, #7
 3086 0012 DBB2     		uxtb	r3, r3
1312:Drivers/STM32U5xx_HAL_Driver/Src/stm32u5xx_ll_usb.c ****   tmpreg = USBx_INEP((uint32_t)epnum)->DIEPINT & msk;
 3087              		.loc 1 1312 7 view .LVU1009
 3088 0014 2343     		orrs	r3, r3, r4
 3089              	.LVL255:
1313:Drivers/STM32U5xx_HAL_Driver/Src/stm32u5xx_ll_usb.c **** 
 3090              		.loc 1 1313 3 is_stmt 1 view .LVU1010
1313:Drivers/STM32U5xx_HAL_Driver/Src/stm32u5xx_ll_usb.c **** 
 3091              		.loc 1 1313 12 is_stmt 0 view .LVU1011
 3092 0016 00EB4110 		add	r0, r0, r1, lsl #5
 3093              	.LVL256:
1313:Drivers/STM32U5xx_HAL_Driver/Src/stm32u5xx_ll_usb.c **** 
 3094              		.loc 1 1313 12 view .LVU1012
 3095 001a 00F51060 		add	r0, r0, #2304
1313:Drivers/STM32U5xx_HAL_Driver/Src/stm32u5xx_ll_usb.c **** 
 3096              		.loc 1 1313 38 view .LVU1013
 3097 001e 8068     		ldr	r0, [r0, #8]
 3098              	.LVL257:
1315:Drivers/STM32U5xx_HAL_Driver/Src/stm32u5xx_ll_usb.c **** }
 3099              		.loc 1 1315 3 is_stmt 1 view .LVU1014
1316:Drivers/STM32U5xx_HAL_Driver/Src/stm32u5xx_ll_usb.c **** 
 3100              		.loc 1 1316 1 is_stmt 0 view .LVU1015
 3101 0020 1840     		ands	r0, r0, r3
 3102              	.LVL258:
1316:Drivers/STM32U5xx_HAL_Driver/Src/stm32u5xx_ll_usb.c **** 
 3103              		.loc 1 1316 1 view .LVU1016
 3104 0022 5DF8044B 		ldr	r4, [sp], #4
 3105              	.LCFI39:
 3106              		.cfi_restore 4
 3107              		.cfi_def_cfa_offset 0
 3108 0026 7047     		bx	lr
 3109              		.cfi_endproc
 3110              	.LFE374:
 3112              		.section	.text.USB_ClearInterrupts,"ax",%progbits
ARM GAS  /tmp/cc0vokHo.s 			page 97


 3113              		.align	1
 3114              		.global	USB_ClearInterrupts
 3115              		.syntax unified
 3116              		.thumb
 3117              		.thumb_func
 3119              	USB_ClearInterrupts:
 3120              	.LVL259:
 3121              	.LFB375:
1325:Drivers/STM32U5xx_HAL_Driver/Src/stm32u5xx_ll_usb.c ****   USBx->GINTSTS &= interrupt;
 3122              		.loc 1 1325 1 is_stmt 1 view -0
 3123              		.cfi_startproc
 3124              		@ args = 0, pretend = 0, frame = 0
 3125              		@ frame_needed = 0, uses_anonymous_args = 0
 3126              		@ link register save eliminated.
1326:Drivers/STM32U5xx_HAL_Driver/Src/stm32u5xx_ll_usb.c **** }
 3127              		.loc 1 1326 3 view .LVU1018
1326:Drivers/STM32U5xx_HAL_Driver/Src/stm32u5xx_ll_usb.c **** }
 3128              		.loc 1 1326 17 is_stmt 0 view .LVU1019
 3129 0000 4369     		ldr	r3, [r0, #20]
 3130 0002 0B40     		ands	r3, r3, r1
 3131 0004 4361     		str	r3, [r0, #20]
1327:Drivers/STM32U5xx_HAL_Driver/Src/stm32u5xx_ll_usb.c **** 
 3132              		.loc 1 1327 1 view .LVU1020
 3133 0006 7047     		bx	lr
 3134              		.cfi_endproc
 3135              	.LFE375:
 3137              		.section	.text.USB_GetMode,"ax",%progbits
 3138              		.align	1
 3139              		.global	USB_GetMode
 3140              		.syntax unified
 3141              		.thumb
 3142              		.thumb_func
 3144              	USB_GetMode:
 3145              	.LVL260:
 3146              	.LFB376:
1338:Drivers/STM32U5xx_HAL_Driver/Src/stm32u5xx_ll_usb.c ****   return ((USBx->GINTSTS) & 0x1U);
 3147              		.loc 1 1338 1 is_stmt 1 view -0
 3148              		.cfi_startproc
 3149              		@ args = 0, pretend = 0, frame = 0
 3150              		@ frame_needed = 0, uses_anonymous_args = 0
 3151              		@ link register save eliminated.
1339:Drivers/STM32U5xx_HAL_Driver/Src/stm32u5xx_ll_usb.c **** }
 3152              		.loc 1 1339 3 view .LVU1022
1339:Drivers/STM32U5xx_HAL_Driver/Src/stm32u5xx_ll_usb.c **** }
 3153              		.loc 1 1339 16 is_stmt 0 view .LVU1023
 3154 0000 4069     		ldr	r0, [r0, #20]
 3155              	.LVL261:
1340:Drivers/STM32U5xx_HAL_Driver/Src/stm32u5xx_ll_usb.c **** 
 3156              		.loc 1 1340 1 view .LVU1024
 3157 0002 00F00100 		and	r0, r0, #1
 3158 0006 7047     		bx	lr
 3159              		.cfi_endproc
 3160              	.LFE376:
 3162              		.section	.text.USB_SetCurrentMode,"ax",%progbits
 3163              		.align	1
 3164              		.global	USB_SetCurrentMode
 3165              		.syntax unified
ARM GAS  /tmp/cc0vokHo.s 			page 98


 3166              		.thumb
 3167              		.thumb_func
 3169              	USB_SetCurrentMode:
 3170              	.LVL262:
 3171              	.LFB349:
 245:Drivers/STM32U5xx_HAL_Driver/Src/stm32u5xx_ll_usb.c ****   uint32_t ms = 0U;
 3172              		.loc 1 245 1 is_stmt 1 view -0
 3173              		.cfi_startproc
 3174              		@ args = 0, pretend = 0, frame = 0
 3175              		@ frame_needed = 0, uses_anonymous_args = 0
 245:Drivers/STM32U5xx_HAL_Driver/Src/stm32u5xx_ll_usb.c ****   uint32_t ms = 0U;
 3176              		.loc 1 245 1 is_stmt 0 view .LVU1026
 3177 0000 38B5     		push	{r3, r4, r5, lr}
 3178              	.LCFI40:
 3179              		.cfi_def_cfa_offset 16
 3180              		.cfi_offset 3, -16
 3181              		.cfi_offset 4, -12
 3182              		.cfi_offset 5, -8
 3183              		.cfi_offset 14, -4
 3184 0002 0546     		mov	r5, r0
 246:Drivers/STM32U5xx_HAL_Driver/Src/stm32u5xx_ll_usb.c **** 
 3185              		.loc 1 246 3 is_stmt 1 view .LVU1027
 3186              	.LVL263:
 248:Drivers/STM32U5xx_HAL_Driver/Src/stm32u5xx_ll_usb.c **** 
 3187              		.loc 1 248 3 view .LVU1028
 248:Drivers/STM32U5xx_HAL_Driver/Src/stm32u5xx_ll_usb.c **** 
 3188              		.loc 1 248 17 is_stmt 0 view .LVU1029
 3189 0004 C368     		ldr	r3, [r0, #12]
 3190 0006 23F0C043 		bic	r3, r3, #1610612736
 3191 000a C360     		str	r3, [r0, #12]
 250:Drivers/STM32U5xx_HAL_Driver/Src/stm32u5xx_ll_usb.c ****   {
 3192              		.loc 1 250 3 is_stmt 1 view .LVU1030
 250:Drivers/STM32U5xx_HAL_Driver/Src/stm32u5xx_ll_usb.c ****   {
 3193              		.loc 1 250 6 is_stmt 0 view .LVU1031
 3194 000c 0129     		cmp	r1, #1
 3195 000e 13D0     		beq	.L209
 260:Drivers/STM32U5xx_HAL_Driver/Src/stm32u5xx_ll_usb.c ****   {
 3196              		.loc 1 260 8 is_stmt 1 view .LVU1032
 260:Drivers/STM32U5xx_HAL_Driver/Src/stm32u5xx_ll_usb.c ****   {
 3197              		.loc 1 260 11 is_stmt 0 view .LVU1033
 3198 0010 19BB     		cbnz	r1, .L206
 262:Drivers/STM32U5xx_HAL_Driver/Src/stm32u5xx_ll_usb.c **** 
 3199              		.loc 1 262 5 is_stmt 1 view .LVU1034
 262:Drivers/STM32U5xx_HAL_Driver/Src/stm32u5xx_ll_usb.c **** 
 3200              		.loc 1 262 19 is_stmt 0 view .LVU1035
 3201 0012 C368     		ldr	r3, [r0, #12]
 3202 0014 43F08043 		orr	r3, r3, #1073741824
 3203 0018 C360     		str	r3, [r0, #12]
 246:Drivers/STM32U5xx_HAL_Driver/Src/stm32u5xx_ll_usb.c **** 
 3204              		.loc 1 246 12 view .LVU1036
 3205 001a 0024     		movs	r4, #0
 3206              	.LVL264:
 3207              	.L205:
 264:Drivers/STM32U5xx_HAL_Driver/Src/stm32u5xx_ll_usb.c ****     {
 3208              		.loc 1 264 5 is_stmt 1 discriminator 2 view .LVU1037
 266:Drivers/STM32U5xx_HAL_Driver/Src/stm32u5xx_ll_usb.c ****       ms++;
 3209              		.loc 1 266 7 discriminator 2 view .LVU1038
ARM GAS  /tmp/cc0vokHo.s 			page 99


 3210 001c 0120     		movs	r0, #1
 3211 001e FFF7FEFF 		bl	HAL_Delay
 3212              	.LVL265:
 267:Drivers/STM32U5xx_HAL_Driver/Src/stm32u5xx_ll_usb.c ****     } while ((USB_GetMode(USBx) != (uint32_t)USB_DEVICE_MODE) && (ms < 50U));
 3213              		.loc 1 267 7 discriminator 2 view .LVU1039
 267:Drivers/STM32U5xx_HAL_Driver/Src/stm32u5xx_ll_usb.c ****     } while ((USB_GetMode(USBx) != (uint32_t)USB_DEVICE_MODE) && (ms < 50U));
 3214              		.loc 1 267 9 is_stmt 0 discriminator 2 view .LVU1040
 3215 0022 0134     		adds	r4, r4, #1
 3216              	.LVL266:
 268:Drivers/STM32U5xx_HAL_Driver/Src/stm32u5xx_ll_usb.c ****   }
 3217              		.loc 1 268 13 is_stmt 1 discriminator 2 view .LVU1041
 268:Drivers/STM32U5xx_HAL_Driver/Src/stm32u5xx_ll_usb.c ****   }
 3218              		.loc 1 268 15 is_stmt 0 discriminator 2 view .LVU1042
 3219 0024 2846     		mov	r0, r5
 3220 0026 FFF7FEFF 		bl	USB_GetMode
 3221              	.LVL267:
 268:Drivers/STM32U5xx_HAL_Driver/Src/stm32u5xx_ll_usb.c ****   }
 3222              		.loc 1 268 5 discriminator 2 view .LVU1043
 3223 002a 08B1     		cbz	r0, .L202
 268:Drivers/STM32U5xx_HAL_Driver/Src/stm32u5xx_ll_usb.c ****   }
 3224              		.loc 1 268 63 discriminator 1 view .LVU1044
 3225 002c 312C     		cmp	r4, #49
 3226 002e F5D9     		bls	.L205
 3227              	.L202:
 275:Drivers/STM32U5xx_HAL_Driver/Src/stm32u5xx_ll_usb.c ****   {
 3228              		.loc 1 275 3 is_stmt 1 view .LVU1045
 275:Drivers/STM32U5xx_HAL_Driver/Src/stm32u5xx_ll_usb.c ****   {
 3229              		.loc 1 275 6 is_stmt 0 view .LVU1046
 3230 0030 322C     		cmp	r4, #50
 3231 0032 14D0     		beq	.L207
 280:Drivers/STM32U5xx_HAL_Driver/Src/stm32u5xx_ll_usb.c **** }
 3232              		.loc 1 280 10 view .LVU1047
 3233 0034 0020     		movs	r0, #0
 3234              	.LVL268:
 3235              	.L204:
 281:Drivers/STM32U5xx_HAL_Driver/Src/stm32u5xx_ll_usb.c **** 
 3236              		.loc 1 281 1 view .LVU1048
 3237 0036 38BD     		pop	{r3, r4, r5, pc}
 3238              	.LVL269:
 3239              	.L209:
 252:Drivers/STM32U5xx_HAL_Driver/Src/stm32u5xx_ll_usb.c **** 
 3240              		.loc 1 252 5 is_stmt 1 view .LVU1049
 252:Drivers/STM32U5xx_HAL_Driver/Src/stm32u5xx_ll_usb.c **** 
 3241              		.loc 1 252 19 is_stmt 0 view .LVU1050
 3242 0038 C368     		ldr	r3, [r0, #12]
 3243 003a 43F00053 		orr	r3, r3, #536870912
 3244 003e C360     		str	r3, [r0, #12]
 246:Drivers/STM32U5xx_HAL_Driver/Src/stm32u5xx_ll_usb.c **** 
 3245              		.loc 1 246 12 view .LVU1051
 3246 0040 0024     		movs	r4, #0
 3247              	.LVL270:
 3248              	.L203:
 254:Drivers/STM32U5xx_HAL_Driver/Src/stm32u5xx_ll_usb.c ****     {
 3249              		.loc 1 254 5 is_stmt 1 discriminator 2 view .LVU1052
 256:Drivers/STM32U5xx_HAL_Driver/Src/stm32u5xx_ll_usb.c ****       ms++;
 3250              		.loc 1 256 7 discriminator 2 view .LVU1053
 3251 0042 0120     		movs	r0, #1
ARM GAS  /tmp/cc0vokHo.s 			page 100


 3252 0044 FFF7FEFF 		bl	HAL_Delay
 3253              	.LVL271:
 257:Drivers/STM32U5xx_HAL_Driver/Src/stm32u5xx_ll_usb.c ****     } while ((USB_GetMode(USBx) != (uint32_t)USB_HOST_MODE) && (ms < 50U));
 3254              		.loc 1 257 7 discriminator 2 view .LVU1054
 257:Drivers/STM32U5xx_HAL_Driver/Src/stm32u5xx_ll_usb.c ****     } while ((USB_GetMode(USBx) != (uint32_t)USB_HOST_MODE) && (ms < 50U));
 3255              		.loc 1 257 9 is_stmt 0 discriminator 2 view .LVU1055
 3256 0048 0134     		adds	r4, r4, #1
 3257              	.LVL272:
 258:Drivers/STM32U5xx_HAL_Driver/Src/stm32u5xx_ll_usb.c ****   }
 3258              		.loc 1 258 13 is_stmt 1 discriminator 2 view .LVU1056
 258:Drivers/STM32U5xx_HAL_Driver/Src/stm32u5xx_ll_usb.c ****   }
 3259              		.loc 1 258 15 is_stmt 0 discriminator 2 view .LVU1057
 3260 004a 2846     		mov	r0, r5
 3261 004c FFF7FEFF 		bl	USB_GetMode
 3262              	.LVL273:
 258:Drivers/STM32U5xx_HAL_Driver/Src/stm32u5xx_ll_usb.c ****   }
 3263              		.loc 1 258 5 discriminator 2 view .LVU1058
 3264 0050 0128     		cmp	r0, #1
 3265 0052 EDD0     		beq	.L202
 258:Drivers/STM32U5xx_HAL_Driver/Src/stm32u5xx_ll_usb.c ****   }
 3266              		.loc 1 258 61 discriminator 1 view .LVU1059
 3267 0054 312C     		cmp	r4, #49
 3268 0056 F4D9     		bls	.L203
 3269 0058 EAE7     		b	.L202
 3270              	.LVL274:
 3271              	.L206:
 272:Drivers/STM32U5xx_HAL_Driver/Src/stm32u5xx_ll_usb.c ****   }
 3272              		.loc 1 272 12 view .LVU1060
 3273 005a 0120     		movs	r0, #1
 3274              	.LVL275:
 272:Drivers/STM32U5xx_HAL_Driver/Src/stm32u5xx_ll_usb.c ****   }
 3275              		.loc 1 272 12 view .LVU1061
 3276 005c EBE7     		b	.L204
 3277              	.LVL276:
 3278              	.L207:
 277:Drivers/STM32U5xx_HAL_Driver/Src/stm32u5xx_ll_usb.c ****   }
 3279              		.loc 1 277 12 view .LVU1062
 3280 005e 0120     		movs	r0, #1
 3281 0060 E9E7     		b	.L204
 3282              		.cfi_endproc
 3283              	.LFE349:
 3285              		.section	.text.USB_ActivateSetup,"ax",%progbits
 3286              		.align	1
 3287              		.global	USB_ActivateSetup
 3288              		.syntax unified
 3289              		.thumb
 3290              		.thumb_func
 3292              	USB_ActivateSetup:
 3293              	.LVL277:
 3294              	.LFB377:
1348:Drivers/STM32U5xx_HAL_Driver/Src/stm32u5xx_ll_usb.c ****   uint32_t USBx_BASE = (uint32_t)USBx;
 3295              		.loc 1 1348 1 is_stmt 1 view -0
 3296              		.cfi_startproc
 3297              		@ args = 0, pretend = 0, frame = 0
 3298              		@ frame_needed = 0, uses_anonymous_args = 0
 3299              		@ link register save eliminated.
1349:Drivers/STM32U5xx_HAL_Driver/Src/stm32u5xx_ll_usb.c **** 
ARM GAS  /tmp/cc0vokHo.s 			page 101


 3300              		.loc 1 1349 3 view .LVU1064
1352:Drivers/STM32U5xx_HAL_Driver/Src/stm32u5xx_ll_usb.c **** 
 3301              		.loc 1 1352 3 view .LVU1065
1352:Drivers/STM32U5xx_HAL_Driver/Src/stm32u5xx_ll_usb.c **** 
 3302              		.loc 1 1352 26 is_stmt 0 view .LVU1066
 3303 0000 D0F80039 		ldr	r3, [r0, #2304]
 3304 0004 23F4FF63 		bic	r3, r3, #2040
 3305 0008 23F00703 		bic	r3, r3, #7
 3306 000c C0F80039 		str	r3, [r0, #2304]
1354:Drivers/STM32U5xx_HAL_Driver/Src/stm32u5xx_ll_usb.c **** 
 3307              		.loc 1 1354 3 is_stmt 1 view .LVU1067
1354:Drivers/STM32U5xx_HAL_Driver/Src/stm32u5xx_ll_usb.c **** 
 3308              		.loc 1 1354 21 is_stmt 0 view .LVU1068
 3309 0010 D0F80438 		ldr	r3, [r0, #2052]
 3310 0014 43F48073 		orr	r3, r3, #256
 3311 0018 C0F80438 		str	r3, [r0, #2052]
1356:Drivers/STM32U5xx_HAL_Driver/Src/stm32u5xx_ll_usb.c **** }
 3312              		.loc 1 1356 3 is_stmt 1 view .LVU1069
1357:Drivers/STM32U5xx_HAL_Driver/Src/stm32u5xx_ll_usb.c **** 
 3313              		.loc 1 1357 1 is_stmt 0 view .LVU1070
 3314 001c 0020     		movs	r0, #0
 3315              	.LVL278:
1357:Drivers/STM32U5xx_HAL_Driver/Src/stm32u5xx_ll_usb.c **** 
 3316              		.loc 1 1357 1 view .LVU1071
 3317 001e 7047     		bx	lr
 3318              		.cfi_endproc
 3319              	.LFE377:
 3321              		.section	.text.USB_EP0_OutStart,"ax",%progbits
 3322              		.align	1
 3323              		.global	USB_EP0_OutStart
 3324              		.syntax unified
 3325              		.thumb
 3326              		.thumb_func
 3328              	USB_EP0_OutStart:
 3329              	.LVL279:
 3330              	.LFB378:
1370:Drivers/STM32U5xx_HAL_Driver/Src/stm32u5xx_ll_usb.c ****   uint32_t USBx_BASE = (uint32_t)USBx;
 3331              		.loc 1 1370 1 is_stmt 1 view -0
 3332              		.cfi_startproc
 3333              		@ args = 0, pretend = 0, frame = 0
 3334              		@ frame_needed = 0, uses_anonymous_args = 0
 3335              		@ link register save eliminated.
1370:Drivers/STM32U5xx_HAL_Driver/Src/stm32u5xx_ll_usb.c ****   uint32_t USBx_BASE = (uint32_t)USBx;
 3336              		.loc 1 1370 1 is_stmt 0 view .LVU1073
 3337 0000 10B4     		push	{r4}
 3338              	.LCFI41:
 3339              		.cfi_def_cfa_offset 4
 3340              		.cfi_offset 4, -4
1371:Drivers/STM32U5xx_HAL_Driver/Src/stm32u5xx_ll_usb.c ****   uint32_t gSNPSiD = *(__IO uint32_t *)(&USBx->CID + 0x1U);
 3341              		.loc 1 1371 3 is_stmt 1 view .LVU1074
 3342              	.LVL280:
1372:Drivers/STM32U5xx_HAL_Driver/Src/stm32u5xx_ll_usb.c **** 
 3343              		.loc 1 1372 3 view .LVU1075
1372:Drivers/STM32U5xx_HAL_Driver/Src/stm32u5xx_ll_usb.c **** 
 3344              		.loc 1 1372 12 is_stmt 0 view .LVU1076
 3345 0002 046C     		ldr	r4, [r0, #64]
 3346              	.LVL281:
ARM GAS  /tmp/cc0vokHo.s 			page 102


1374:Drivers/STM32U5xx_HAL_Driver/Src/stm32u5xx_ll_usb.c ****   {
 3347              		.loc 1 1374 3 is_stmt 1 view .LVU1077
1374:Drivers/STM32U5xx_HAL_Driver/Src/stm32u5xx_ll_usb.c ****   {
 3348              		.loc 1 1374 6 is_stmt 0 view .LVU1078
 3349 0004 154B     		ldr	r3, .L216
 3350 0006 9C42     		cmp	r4, r3
 3351 0008 03D9     		bls	.L212
1376:Drivers/STM32U5xx_HAL_Driver/Src/stm32u5xx_ll_usb.c ****     {
 3352              		.loc 1 1376 5 is_stmt 1 view .LVU1079
1376:Drivers/STM32U5xx_HAL_Driver/Src/stm32u5xx_ll_usb.c ****     {
 3353              		.loc 1 1376 24 is_stmt 0 view .LVU1080
 3354 000a D0F8003B 		ldr	r3, [r0, #2816]
1376:Drivers/STM32U5xx_HAL_Driver/Src/stm32u5xx_ll_usb.c ****     {
 3355              		.loc 1 1376 8 view .LVU1081
 3356 000e 002B     		cmp	r3, #0
 3357 0010 16DB     		blt	.L213
 3358              	.L212:
1382:Drivers/STM32U5xx_HAL_Driver/Src/stm32u5xx_ll_usb.c ****   USBx_OUTEP(0U)->DOEPTSIZ |= (USB_OTG_DOEPTSIZ_PKTCNT & (1U << 19));
 3359              		.loc 1 1382 3 is_stmt 1 view .LVU1082
1382:Drivers/STM32U5xx_HAL_Driver/Src/stm32u5xx_ll_usb.c ****   USBx_OUTEP(0U)->DOEPTSIZ |= (USB_OTG_DOEPTSIZ_PKTCNT & (1U << 19));
 3360              		.loc 1 1382 28 is_stmt 0 view .LVU1083
 3361 0012 0024     		movs	r4, #0
 3362              	.LVL282:
1382:Drivers/STM32U5xx_HAL_Driver/Src/stm32u5xx_ll_usb.c ****   USBx_OUTEP(0U)->DOEPTSIZ |= (USB_OTG_DOEPTSIZ_PKTCNT & (1U << 19));
 3363              		.loc 1 1382 28 view .LVU1084
 3364 0014 C0F8104B 		str	r4, [r0, #2832]
1383:Drivers/STM32U5xx_HAL_Driver/Src/stm32u5xx_ll_usb.c ****   USBx_OUTEP(0U)->DOEPTSIZ |= (3U * 8U);
 3365              		.loc 1 1383 3 is_stmt 1 view .LVU1085
1383:Drivers/STM32U5xx_HAL_Driver/Src/stm32u5xx_ll_usb.c ****   USBx_OUTEP(0U)->DOEPTSIZ |= (3U * 8U);
 3366              		.loc 1 1383 28 is_stmt 0 view .LVU1086
 3367 0018 D0F8104B 		ldr	r4, [r0, #2832]
 3368 001c 44F40024 		orr	r4, r4, #524288
 3369 0020 C0F8104B 		str	r4, [r0, #2832]
1384:Drivers/STM32U5xx_HAL_Driver/Src/stm32u5xx_ll_usb.c ****   USBx_OUTEP(0U)->DOEPTSIZ |=  USB_OTG_DOEPTSIZ_STUPCNT;
 3370              		.loc 1 1384 3 is_stmt 1 view .LVU1087
1384:Drivers/STM32U5xx_HAL_Driver/Src/stm32u5xx_ll_usb.c ****   USBx_OUTEP(0U)->DOEPTSIZ |=  USB_OTG_DOEPTSIZ_STUPCNT;
 3371              		.loc 1 1384 28 is_stmt 0 view .LVU1088
 3372 0024 D0F8104B 		ldr	r4, [r0, #2832]
 3373 0028 44F01804 		orr	r4, r4, #24
 3374 002c C0F8104B 		str	r4, [r0, #2832]
1385:Drivers/STM32U5xx_HAL_Driver/Src/stm32u5xx_ll_usb.c **** 
 3375              		.loc 1 1385 3 is_stmt 1 view .LVU1089
1385:Drivers/STM32U5xx_HAL_Driver/Src/stm32u5xx_ll_usb.c **** 
 3376              		.loc 1 1385 28 is_stmt 0 view .LVU1090
 3377 0030 D0F8104B 		ldr	r4, [r0, #2832]
 3378 0034 44F0C044 		orr	r4, r4, #1610612736
 3379 0038 C0F8104B 		str	r4, [r0, #2832]
1387:Drivers/STM32U5xx_HAL_Driver/Src/stm32u5xx_ll_usb.c ****   {
 3380              		.loc 1 1387 3 is_stmt 1 view .LVU1091
1387:Drivers/STM32U5xx_HAL_Driver/Src/stm32u5xx_ll_usb.c ****   {
 3381              		.loc 1 1387 6 is_stmt 0 view .LVU1092
 3382 003c 0129     		cmp	r1, #1
 3383 003e 03D0     		beq	.L215
 3384              	.L213:
1395:Drivers/STM32U5xx_HAL_Driver/Src/stm32u5xx_ll_usb.c **** 
 3385              		.loc 1 1395 1 view .LVU1093
 3386 0040 0020     		movs	r0, #0
ARM GAS  /tmp/cc0vokHo.s 			page 103


 3387              	.LVL283:
1395:Drivers/STM32U5xx_HAL_Driver/Src/stm32u5xx_ll_usb.c **** 
 3388              		.loc 1 1395 1 view .LVU1094
 3389 0042 5DF8044B 		ldr	r4, [sp], #4
 3390              	.LCFI42:
 3391              		.cfi_remember_state
 3392              		.cfi_restore 4
 3393              		.cfi_def_cfa_offset 0
 3394 0046 7047     		bx	lr
 3395              	.LVL284:
 3396              	.L215:
 3397              	.LCFI43:
 3398              		.cfi_restore_state
1389:Drivers/STM32U5xx_HAL_Driver/Src/stm32u5xx_ll_usb.c ****     /* EP enable */
 3399              		.loc 1 1389 5 is_stmt 1 view .LVU1095
1389:Drivers/STM32U5xx_HAL_Driver/Src/stm32u5xx_ll_usb.c ****     /* EP enable */
 3400              		.loc 1 1389 29 is_stmt 0 view .LVU1096
 3401 0048 C0F8142B 		str	r2, [r0, #2836]
1391:Drivers/STM32U5xx_HAL_Driver/Src/stm32u5xx_ll_usb.c ****   }
 3402              		.loc 1 1391 5 is_stmt 1 view .LVU1097
1391:Drivers/STM32U5xx_HAL_Driver/Src/stm32u5xx_ll_usb.c ****   }
 3403              		.loc 1 1391 29 is_stmt 0 view .LVU1098
 3404 004c D0F8003B 		ldr	r3, [r0, #2816]
 3405 0050 43F08023 		orr	r3, r3, #-2147450880
 3406 0054 C0F8003B 		str	r3, [r0, #2816]
 3407 0058 F2E7     		b	.L213
 3408              	.L217:
 3409 005a 00BF     		.align	2
 3410              	.L216:
 3411 005c 0A30544F 		.word	1330917386
 3412              		.cfi_endproc
 3413              	.LFE378:
 3415              		.section	.text.USB_HostInit,"ax",%progbits
 3416              		.align	1
 3417              		.global	USB_HostInit
 3418              		.syntax unified
 3419              		.thumb
 3420              		.thumb_func
 3422              	USB_HostInit:
 3423              	.LVL285:
 3424              	.LFB380:
1433:Drivers/STM32U5xx_HAL_Driver/Src/stm32u5xx_ll_usb.c **** 
1434:Drivers/STM32U5xx_HAL_Driver/Src/stm32u5xx_ll_usb.c **** /**
1435:Drivers/STM32U5xx_HAL_Driver/Src/stm32u5xx_ll_usb.c ****   * @brief  USB_HostInit : Initializes the USB OTG controller registers
1436:Drivers/STM32U5xx_HAL_Driver/Src/stm32u5xx_ll_usb.c ****   *         for Host mode
1437:Drivers/STM32U5xx_HAL_Driver/Src/stm32u5xx_ll_usb.c ****   * @param  USBx  Selected device
1438:Drivers/STM32U5xx_HAL_Driver/Src/stm32u5xx_ll_usb.c ****   * @param  cfg   pointer to a USB_OTG_CfgTypeDef structure that contains
1439:Drivers/STM32U5xx_HAL_Driver/Src/stm32u5xx_ll_usb.c ****   *         the configuration information for the specified USBx peripheral.
1440:Drivers/STM32U5xx_HAL_Driver/Src/stm32u5xx_ll_usb.c ****   * @retval HAL status
1441:Drivers/STM32U5xx_HAL_Driver/Src/stm32u5xx_ll_usb.c ****   */
1442:Drivers/STM32U5xx_HAL_Driver/Src/stm32u5xx_ll_usb.c **** HAL_StatusTypeDef USB_HostInit(USB_OTG_GlobalTypeDef *USBx, USB_OTG_CfgTypeDef cfg)
1443:Drivers/STM32U5xx_HAL_Driver/Src/stm32u5xx_ll_usb.c **** {
 3425              		.loc 1 1443 1 is_stmt 1 view -0
 3426              		.cfi_startproc
 3427              		@ args = 56, pretend = 16, frame = 0
 3428              		@ frame_needed = 0, uses_anonymous_args = 0
 3429              		.loc 1 1443 1 is_stmt 0 view .LVU1100
ARM GAS  /tmp/cc0vokHo.s 			page 104


 3430 0000 84B0     		sub	sp, sp, #16
 3431              	.LCFI44:
 3432              		.cfi_def_cfa_offset 16
 3433 0002 38B5     		push	{r3, r4, r5, lr}
 3434              	.LCFI45:
 3435              		.cfi_def_cfa_offset 32
 3436              		.cfi_offset 3, -32
 3437              		.cfi_offset 4, -28
 3438              		.cfi_offset 5, -24
 3439              		.cfi_offset 14, -20
 3440 0004 0446     		mov	r4, r0
 3441 0006 05A8     		add	r0, sp, #20
 3442 0008 80E80E00 		stm	r0, {r1, r2, r3}
1444:Drivers/STM32U5xx_HAL_Driver/Src/stm32u5xx_ll_usb.c ****   HAL_StatusTypeDef ret = HAL_OK;
 3443              		.loc 1 1444 3 is_stmt 1 view .LVU1101
 3444              	.LVL286:
1445:Drivers/STM32U5xx_HAL_Driver/Src/stm32u5xx_ll_usb.c ****   uint32_t USBx_BASE = (uint32_t)USBx;
 3445              		.loc 1 1445 3 view .LVU1102
1446:Drivers/STM32U5xx_HAL_Driver/Src/stm32u5xx_ll_usb.c ****   uint32_t i;
 3446              		.loc 1 1446 3 view .LVU1103
1447:Drivers/STM32U5xx_HAL_Driver/Src/stm32u5xx_ll_usb.c **** 
1448:Drivers/STM32U5xx_HAL_Driver/Src/stm32u5xx_ll_usb.c **** #if defined (STM32U595xx) || defined (STM32U5A5xx) || defined (STM32U599xx) || defined (STM32U5A9xx
1449:Drivers/STM32U5xx_HAL_Driver/Src/stm32u5xx_ll_usb.c ****  || defined (STM32U5F7xx) || defined (STM32U5G7xx) || defined (STM32U5F9xx) || defined (STM32U5G9xx
1450:Drivers/STM32U5xx_HAL_Driver/Src/stm32u5xx_ll_usb.c ****   /* Enable USB PHY pulldown resistors */
1451:Drivers/STM32U5xx_HAL_Driver/Src/stm32u5xx_ll_usb.c ****   USBx->GCCFG |= USB_OTG_GCCFG_PULLDOWNEN;
1452:Drivers/STM32U5xx_HAL_Driver/Src/stm32u5xx_ll_usb.c **** #endif /* defined (STM32U595xx) || defined (STM32U5A5xx) || defined (STM32U599xx) || defined (STM32
1453:Drivers/STM32U5xx_HAL_Driver/Src/stm32u5xx_ll_usb.c ****           defined (STM32U5F7xx) || defined (STM32U5G7xx) || defined (STM32U5F9xx) || defined (STM32
1454:Drivers/STM32U5xx_HAL_Driver/Src/stm32u5xx_ll_usb.c **** 
1455:Drivers/STM32U5xx_HAL_Driver/Src/stm32u5xx_ll_usb.c ****   /* Restart the Phy Clock */
1456:Drivers/STM32U5xx_HAL_Driver/Src/stm32u5xx_ll_usb.c ****   USBx_PCGCCTL = 0U;
 3447              		.loc 1 1456 3 view .LVU1104
 3448              		.loc 1 1456 16 is_stmt 0 view .LVU1105
 3449 000c 0023     		movs	r3, #0
 3450 000e C4F8003E 		str	r3, [r4, #3584]
1457:Drivers/STM32U5xx_HAL_Driver/Src/stm32u5xx_ll_usb.c **** 
1458:Drivers/STM32U5xx_HAL_Driver/Src/stm32u5xx_ll_usb.c **** #if defined (STM32U595xx) || defined (STM32U5A5xx) || defined (STM32U599xx) || defined (STM32U5A9xx
1459:Drivers/STM32U5xx_HAL_Driver/Src/stm32u5xx_ll_usb.c ****  || defined (STM32U5F7xx) || defined (STM32U5G7xx) || defined (STM32U5F9xx) || defined (STM32U5G9xx
1460:Drivers/STM32U5xx_HAL_Driver/Src/stm32u5xx_ll_usb.c ****   /* Disable VBUS override */
1461:Drivers/STM32U5xx_HAL_Driver/Src/stm32u5xx_ll_usb.c ****   USBx->GCCFG &= ~(USB_OTG_GCCFG_VBVALOVAL | USB_OTG_GCCFG_VBVALEXTOEN);
1462:Drivers/STM32U5xx_HAL_Driver/Src/stm32u5xx_ll_usb.c **** #endif /* defined (STM32U595xx) || defined (STM32U5A5xx) || defined (STM32U599xx) || defined (STM32
1463:Drivers/STM32U5xx_HAL_Driver/Src/stm32u5xx_ll_usb.c ****           defined (STM32U5F7xx) || defined (STM32U5G7xx) || defined (STM32U5F9xx) || defined (STM32
1464:Drivers/STM32U5xx_HAL_Driver/Src/stm32u5xx_ll_usb.c **** 
1465:Drivers/STM32U5xx_HAL_Driver/Src/stm32u5xx_ll_usb.c ****   /* Disable VBUS sensing */
1466:Drivers/STM32U5xx_HAL_Driver/Src/stm32u5xx_ll_usb.c ****   USBx->GCCFG &= ~(USB_OTG_GCCFG_VBDEN);
 3451              		.loc 1 1466 3 is_stmt 1 view .LVU1106
 3452              		.loc 1 1466 15 is_stmt 0 view .LVU1107
 3453 0012 A36B     		ldr	r3, [r4, #56]
 3454 0014 23F40013 		bic	r3, r3, #2097152
 3455 0018 A363     		str	r3, [r4, #56]
1467:Drivers/STM32U5xx_HAL_Driver/Src/stm32u5xx_ll_usb.c **** #if defined (STM32U575xx) || defined (STM32U585xx)
1468:Drivers/STM32U5xx_HAL_Driver/Src/stm32u5xx_ll_usb.c ****   /* Disable Battery chargin detector */
1469:Drivers/STM32U5xx_HAL_Driver/Src/stm32u5xx_ll_usb.c ****   USBx->GCCFG &= ~(USB_OTG_GCCFG_BCDEN);
 3456              		.loc 1 1469 3 is_stmt 1 view .LVU1108
 3457              		.loc 1 1469 15 is_stmt 0 view .LVU1109
 3458 001a A36B     		ldr	r3, [r4, #56]
 3459 001c 23F40033 		bic	r3, r3, #131072
 3460 0020 A363     		str	r3, [r4, #56]
ARM GAS  /tmp/cc0vokHo.s 			page 105


1470:Drivers/STM32U5xx_HAL_Driver/Src/stm32u5xx_ll_usb.c **** #else
1471:Drivers/STM32U5xx_HAL_Driver/Src/stm32u5xx_ll_usb.c ****   /* Disable Battery chargin detector */
1472:Drivers/STM32U5xx_HAL_Driver/Src/stm32u5xx_ll_usb.c ****   USBx->GCCFG &= ~(USB_OTG_GCCFG_PDEN);
1473:Drivers/STM32U5xx_HAL_Driver/Src/stm32u5xx_ll_usb.c ****   USBx->GCCFG &= ~(USB_OTG_GCCFG_SDEN);
1474:Drivers/STM32U5xx_HAL_Driver/Src/stm32u5xx_ll_usb.c **** #endif /* defined (STM32U575xx) || defined (STM32U585xx) */
1475:Drivers/STM32U5xx_HAL_Driver/Src/stm32u5xx_ll_usb.c **** 
1476:Drivers/STM32U5xx_HAL_Driver/Src/stm32u5xx_ll_usb.c ****   if ((USBx->CID & (0x1U << 14)) != 0U)
 3461              		.loc 1 1476 3 is_stmt 1 view .LVU1110
 3462              		.loc 1 1476 12 is_stmt 0 view .LVU1111
 3463 0022 E36B     		ldr	r3, [r4, #60]
 3464              		.loc 1 1476 6 view .LVU1112
 3465 0024 13F4804F 		tst	r3, #16384
 3466 0028 10D0     		beq	.L219
1477:Drivers/STM32U5xx_HAL_Driver/Src/stm32u5xx_ll_usb.c ****   {
1478:Drivers/STM32U5xx_HAL_Driver/Src/stm32u5xx_ll_usb.c ****     if (cfg.speed == USBH_FSLS_SPEED)
 3467              		.loc 1 1478 5 is_stmt 1 view .LVU1113
 3468              		.loc 1 1478 12 is_stmt 0 view .LVU1114
 3469 002a 089B     		ldr	r3, [sp, #32]
 3470              		.loc 1 1478 8 view .LVU1115
 3471 002c 012B     		cmp	r3, #1
 3472 002e 06D0     		beq	.L232
1479:Drivers/STM32U5xx_HAL_Driver/Src/stm32u5xx_ll_usb.c ****     {
1480:Drivers/STM32U5xx_HAL_Driver/Src/stm32u5xx_ll_usb.c ****       /* Force Device Enumeration to FS/LS mode only */
1481:Drivers/STM32U5xx_HAL_Driver/Src/stm32u5xx_ll_usb.c ****       USBx_HOST->HCFG |= USB_OTG_HCFG_FSLSS;
1482:Drivers/STM32U5xx_HAL_Driver/Src/stm32u5xx_ll_usb.c ****     }
1483:Drivers/STM32U5xx_HAL_Driver/Src/stm32u5xx_ll_usb.c ****     else
1484:Drivers/STM32U5xx_HAL_Driver/Src/stm32u5xx_ll_usb.c ****     {
1485:Drivers/STM32U5xx_HAL_Driver/Src/stm32u5xx_ll_usb.c ****       /* Set default Max speed support */
1486:Drivers/STM32U5xx_HAL_Driver/Src/stm32u5xx_ll_usb.c ****       USBx_HOST->HCFG &= ~(USB_OTG_HCFG_FSLSS);
 3473              		.loc 1 1486 7 is_stmt 1 view .LVU1116
 3474              		.loc 1 1486 23 is_stmt 0 view .LVU1117
 3475 0030 D4F80034 		ldr	r3, [r4, #1024]
 3476 0034 23F00403 		bic	r3, r3, #4
 3477 0038 C4F80034 		str	r3, [r4, #1024]
 3478 003c 0CE0     		b	.L221
 3479              	.L232:
1481:Drivers/STM32U5xx_HAL_Driver/Src/stm32u5xx_ll_usb.c ****     }
 3480              		.loc 1 1481 7 is_stmt 1 view .LVU1118
1481:Drivers/STM32U5xx_HAL_Driver/Src/stm32u5xx_ll_usb.c ****     }
 3481              		.loc 1 1481 23 is_stmt 0 view .LVU1119
 3482 003e D4F80034 		ldr	r3, [r4, #1024]
 3483 0042 43F00403 		orr	r3, r3, #4
 3484 0046 C4F80034 		str	r3, [r4, #1024]
 3485 004a 05E0     		b	.L221
 3486              	.L219:
1487:Drivers/STM32U5xx_HAL_Driver/Src/stm32u5xx_ll_usb.c ****     }
1488:Drivers/STM32U5xx_HAL_Driver/Src/stm32u5xx_ll_usb.c ****   }
1489:Drivers/STM32U5xx_HAL_Driver/Src/stm32u5xx_ll_usb.c ****   else
1490:Drivers/STM32U5xx_HAL_Driver/Src/stm32u5xx_ll_usb.c ****   {
1491:Drivers/STM32U5xx_HAL_Driver/Src/stm32u5xx_ll_usb.c ****     /* Set default Max speed support */
1492:Drivers/STM32U5xx_HAL_Driver/Src/stm32u5xx_ll_usb.c ****     USBx_HOST->HCFG &= ~(USB_OTG_HCFG_FSLSS);
 3487              		.loc 1 1492 5 is_stmt 1 view .LVU1120
 3488              		.loc 1 1492 21 is_stmt 0 view .LVU1121
 3489 004c D4F80034 		ldr	r3, [r4, #1024]
 3490 0050 23F00403 		bic	r3, r3, #4
 3491 0054 C4F80034 		str	r3, [r4, #1024]
 3492              	.L221:
ARM GAS  /tmp/cc0vokHo.s 			page 106


1493:Drivers/STM32U5xx_HAL_Driver/Src/stm32u5xx_ll_usb.c ****   }
1494:Drivers/STM32U5xx_HAL_Driver/Src/stm32u5xx_ll_usb.c **** 
1495:Drivers/STM32U5xx_HAL_Driver/Src/stm32u5xx_ll_usb.c ****   /* Make sure the FIFOs are flushed. */
1496:Drivers/STM32U5xx_HAL_Driver/Src/stm32u5xx_ll_usb.c ****   if (USB_FlushTxFifo(USBx, 0x10U) != HAL_OK) /* all Tx FIFOs */
 3493              		.loc 1 1496 3 is_stmt 1 view .LVU1122
 3494              		.loc 1 1496 7 is_stmt 0 view .LVU1123
 3495 0058 1021     		movs	r1, #16
 3496 005a 2046     		mov	r0, r4
 3497              	.LVL287:
 3498              		.loc 1 1496 7 view .LVU1124
 3499 005c FFF7FEFF 		bl	USB_FlushTxFifo
 3500              	.LVL288:
 3501              		.loc 1 1496 6 view .LVU1125
 3502 0060 0546     		mov	r5, r0
 3503 0062 00B1     		cbz	r0, .L222
1497:Drivers/STM32U5xx_HAL_Driver/Src/stm32u5xx_ll_usb.c ****   {
1498:Drivers/STM32U5xx_HAL_Driver/Src/stm32u5xx_ll_usb.c ****     ret = HAL_ERROR;
 3504              		.loc 1 1498 9 view .LVU1126
 3505 0064 0125     		movs	r5, #1
 3506              	.L222:
 3507              	.LVL289:
1499:Drivers/STM32U5xx_HAL_Driver/Src/stm32u5xx_ll_usb.c ****   }
1500:Drivers/STM32U5xx_HAL_Driver/Src/stm32u5xx_ll_usb.c **** 
1501:Drivers/STM32U5xx_HAL_Driver/Src/stm32u5xx_ll_usb.c ****   if (USB_FlushRxFifo(USBx) != HAL_OK)
 3508              		.loc 1 1501 3 is_stmt 1 view .LVU1127
 3509              		.loc 1 1501 7 is_stmt 0 view .LVU1128
 3510 0066 2046     		mov	r0, r4
 3511 0068 FFF7FEFF 		bl	USB_FlushRxFifo
 3512              	.LVL290:
 3513              		.loc 1 1501 6 view .LVU1129
 3514 006c 00B1     		cbz	r0, .L223
1502:Drivers/STM32U5xx_HAL_Driver/Src/stm32u5xx_ll_usb.c ****   {
1503:Drivers/STM32U5xx_HAL_Driver/Src/stm32u5xx_ll_usb.c ****     ret = HAL_ERROR;
 3515              		.loc 1 1503 9 view .LVU1130
 3516 006e 0125     		movs	r5, #1
 3517              	.LVL291:
 3518              	.L223:
1504:Drivers/STM32U5xx_HAL_Driver/Src/stm32u5xx_ll_usb.c ****   }
1505:Drivers/STM32U5xx_HAL_Driver/Src/stm32u5xx_ll_usb.c **** 
1506:Drivers/STM32U5xx_HAL_Driver/Src/stm32u5xx_ll_usb.c ****   /* Clear all pending HC Interrupts */
1507:Drivers/STM32U5xx_HAL_Driver/Src/stm32u5xx_ll_usb.c ****   for (i = 0U; i < cfg.Host_channels; i++)
 3519              		.loc 1 1507 3 is_stmt 1 view .LVU1131
 3520              		.loc 1 1507 10 is_stmt 0 view .LVU1132
 3521 0070 0022     		movs	r2, #0
 3522              		.loc 1 1507 3 view .LVU1133
 3523 0072 09E0     		b	.L224
 3524              	.LVL292:
 3525              	.L225:
1508:Drivers/STM32U5xx_HAL_Driver/Src/stm32u5xx_ll_usb.c ****   {
1509:Drivers/STM32U5xx_HAL_Driver/Src/stm32u5xx_ll_usb.c ****     USBx_HC(i)->HCINT = CLEAR_INTERRUPT_MASK;
 3526              		.loc 1 1509 5 is_stmt 1 discriminator 3 view .LVU1134
 3527 0074 04EB4213 		add	r3, r4, r2, lsl #5
 3528              		.loc 1 1509 23 is_stmt 0 discriminator 3 view .LVU1135
 3529 0078 4FF0FF31 		mov	r1, #-1
 3530 007c C3F80815 		str	r1, [r3, #1288]
1510:Drivers/STM32U5xx_HAL_Driver/Src/stm32u5xx_ll_usb.c ****     USBx_HC(i)->HCINTMSK = 0U;
 3531              		.loc 1 1510 5 is_stmt 1 discriminator 3 view .LVU1136
ARM GAS  /tmp/cc0vokHo.s 			page 107


 3532              		.loc 1 1510 26 is_stmt 0 discriminator 3 view .LVU1137
 3533 0080 0021     		movs	r1, #0
 3534 0082 C3F80C15 		str	r1, [r3, #1292]
1507:Drivers/STM32U5xx_HAL_Driver/Src/stm32u5xx_ll_usb.c ****   {
 3535              		.loc 1 1507 39 is_stmt 1 discriminator 3 view .LVU1138
1507:Drivers/STM32U5xx_HAL_Driver/Src/stm32u5xx_ll_usb.c ****   {
 3536              		.loc 1 1507 40 is_stmt 0 discriminator 3 view .LVU1139
 3537 0086 0132     		adds	r2, r2, #1
 3538              	.LVL293:
 3539              	.L224:
1507:Drivers/STM32U5xx_HAL_Driver/Src/stm32u5xx_ll_usb.c ****   {
 3540              		.loc 1 1507 16 is_stmt 1 discriminator 1 view .LVU1140
1507:Drivers/STM32U5xx_HAL_Driver/Src/stm32u5xx_ll_usb.c ****   {
 3541              		.loc 1 1507 23 is_stmt 0 discriminator 1 view .LVU1141
 3542 0088 069B     		ldr	r3, [sp, #24]
1507:Drivers/STM32U5xx_HAL_Driver/Src/stm32u5xx_ll_usb.c ****   {
 3543              		.loc 1 1507 3 discriminator 1 view .LVU1142
 3544 008a 9342     		cmp	r3, r2
 3545 008c F2D8     		bhi	.L225
1511:Drivers/STM32U5xx_HAL_Driver/Src/stm32u5xx_ll_usb.c ****   }
1512:Drivers/STM32U5xx_HAL_Driver/Src/stm32u5xx_ll_usb.c **** 
1513:Drivers/STM32U5xx_HAL_Driver/Src/stm32u5xx_ll_usb.c ****   /* Disable all interrupts. */
1514:Drivers/STM32U5xx_HAL_Driver/Src/stm32u5xx_ll_usb.c ****   USBx->GINTMSK = 0U;
 3546              		.loc 1 1514 3 is_stmt 1 view .LVU1143
 3547              		.loc 1 1514 17 is_stmt 0 view .LVU1144
 3548 008e 0023     		movs	r3, #0
 3549 0090 A361     		str	r3, [r4, #24]
1515:Drivers/STM32U5xx_HAL_Driver/Src/stm32u5xx_ll_usb.c **** 
1516:Drivers/STM32U5xx_HAL_Driver/Src/stm32u5xx_ll_usb.c ****   /* Clear any pending interrupts */
1517:Drivers/STM32U5xx_HAL_Driver/Src/stm32u5xx_ll_usb.c ****   USBx->GINTSTS = CLEAR_INTERRUPT_MASK;
 3550              		.loc 1 1517 3 is_stmt 1 view .LVU1145
 3551              		.loc 1 1517 17 is_stmt 0 view .LVU1146
 3552 0092 4FF0FF33 		mov	r3, #-1
 3553 0096 6361     		str	r3, [r4, #20]
1518:Drivers/STM32U5xx_HAL_Driver/Src/stm32u5xx_ll_usb.c **** 
1519:Drivers/STM32U5xx_HAL_Driver/Src/stm32u5xx_ll_usb.c ****   if ((USBx->CID & (0x1U << 14)) != 0U)
 3554              		.loc 1 1519 3 is_stmt 1 view .LVU1147
 3555              		.loc 1 1519 12 is_stmt 0 view .LVU1148
 3556 0098 E36B     		ldr	r3, [r4, #60]
 3557              		.loc 1 1519 6 view .LVU1149
 3558 009a 13F4804F 		tst	r3, #16384
 3559 009e 17D0     		beq	.L226
1520:Drivers/STM32U5xx_HAL_Driver/Src/stm32u5xx_ll_usb.c ****   {
1521:Drivers/STM32U5xx_HAL_Driver/Src/stm32u5xx_ll_usb.c ****     /* set Rx FIFO size */
1522:Drivers/STM32U5xx_HAL_Driver/Src/stm32u5xx_ll_usb.c ****     USBx->GRXFSIZ  = 0x200U;
 3560              		.loc 1 1522 5 is_stmt 1 view .LVU1150
 3561              		.loc 1 1522 20 is_stmt 0 view .LVU1151
 3562 00a0 4FF40073 		mov	r3, #512
 3563 00a4 6362     		str	r3, [r4, #36]
1523:Drivers/STM32U5xx_HAL_Driver/Src/stm32u5xx_ll_usb.c ****     USBx->DIEPTXF0_HNPTXFSIZ = (uint32_t)(((0x100U << 16) & USB_OTG_NPTXFD) | 0x200U);
 3564              		.loc 1 1523 5 is_stmt 1 view .LVU1152
 3565              		.loc 1 1523 30 is_stmt 0 view .LVU1153
 3566 00a6 03F18073 		add	r3, r3, #16777216
 3567 00aa A362     		str	r3, [r4, #40]
1524:Drivers/STM32U5xx_HAL_Driver/Src/stm32u5xx_ll_usb.c ****     USBx->HPTXFSIZ = (uint32_t)(((0xE0U << 16) & USB_OTG_HPTXFSIZ_PTXFD) | 0x300U);
 3568              		.loc 1 1524 5 is_stmt 1 view .LVU1154
 3569              		.loc 1 1524 20 is_stmt 0 view .LVU1155
ARM GAS  /tmp/cc0vokHo.s 			page 108


 3570 00ac 0D4B     		ldr	r3, .L233
 3571 00ae C4F80031 		str	r3, [r4, #256]
 3572              	.L227:
1525:Drivers/STM32U5xx_HAL_Driver/Src/stm32u5xx_ll_usb.c ****   }
1526:Drivers/STM32U5xx_HAL_Driver/Src/stm32u5xx_ll_usb.c ****   else
1527:Drivers/STM32U5xx_HAL_Driver/Src/stm32u5xx_ll_usb.c ****   {
1528:Drivers/STM32U5xx_HAL_Driver/Src/stm32u5xx_ll_usb.c ****     /* set Rx FIFO size */
1529:Drivers/STM32U5xx_HAL_Driver/Src/stm32u5xx_ll_usb.c ****     USBx->GRXFSIZ  = 0x80U;
1530:Drivers/STM32U5xx_HAL_Driver/Src/stm32u5xx_ll_usb.c ****     USBx->DIEPTXF0_HNPTXFSIZ = (uint32_t)(((0x60U << 16) & USB_OTG_NPTXFD) | 0x80U);
1531:Drivers/STM32U5xx_HAL_Driver/Src/stm32u5xx_ll_usb.c ****     USBx->HPTXFSIZ = (uint32_t)(((0x40U << 16)& USB_OTG_HPTXFSIZ_PTXFD) | 0xE0U);
1532:Drivers/STM32U5xx_HAL_Driver/Src/stm32u5xx_ll_usb.c ****   }
1533:Drivers/STM32U5xx_HAL_Driver/Src/stm32u5xx_ll_usb.c **** 
1534:Drivers/STM32U5xx_HAL_Driver/Src/stm32u5xx_ll_usb.c ****   /* Enable the common interrupts */
1535:Drivers/STM32U5xx_HAL_Driver/Src/stm32u5xx_ll_usb.c ****   if (cfg.dma_enable == 0U)
 3573              		.loc 1 1535 3 is_stmt 1 view .LVU1156
 3574              		.loc 1 1535 10 is_stmt 0 view .LVU1157
 3575 00b2 079B     		ldr	r3, [sp, #28]
 3576              		.loc 1 1535 6 view .LVU1158
 3577 00b4 1BB9     		cbnz	r3, .L228
1536:Drivers/STM32U5xx_HAL_Driver/Src/stm32u5xx_ll_usb.c ****   {
1537:Drivers/STM32U5xx_HAL_Driver/Src/stm32u5xx_ll_usb.c ****     USBx->GINTMSK |= USB_OTG_GINTMSK_RXFLVLM;
 3578              		.loc 1 1537 5 is_stmt 1 view .LVU1159
 3579              		.loc 1 1537 19 is_stmt 0 view .LVU1160
 3580 00b6 A369     		ldr	r3, [r4, #24]
 3581 00b8 43F01003 		orr	r3, r3, #16
 3582 00bc A361     		str	r3, [r4, #24]
 3583              	.L228:
1538:Drivers/STM32U5xx_HAL_Driver/Src/stm32u5xx_ll_usb.c ****   }
1539:Drivers/STM32U5xx_HAL_Driver/Src/stm32u5xx_ll_usb.c **** 
1540:Drivers/STM32U5xx_HAL_Driver/Src/stm32u5xx_ll_usb.c ****   /* Enable interrupts matching to the Host mode ONLY */
1541:Drivers/STM32U5xx_HAL_Driver/Src/stm32u5xx_ll_usb.c ****   USBx->GINTMSK |= (USB_OTG_GINTMSK_PRTIM            | USB_OTG_GINTMSK_HCIM | \
 3584              		.loc 1 1541 3 is_stmt 1 view .LVU1161
 3585              		.loc 1 1541 17 is_stmt 0 view .LVU1162
 3586 00be A269     		ldr	r2, [r4, #24]
 3587              	.LVL294:
 3588              		.loc 1 1541 17 view .LVU1163
 3589 00c0 094B     		ldr	r3, .L233+4
 3590 00c2 1343     		orrs	r3, r3, r2
 3591 00c4 A361     		str	r3, [r4, #24]
1542:Drivers/STM32U5xx_HAL_Driver/Src/stm32u5xx_ll_usb.c ****                     USB_OTG_GINTMSK_SOFM             | USB_OTG_GINTSTS_DISCINT | \
1543:Drivers/STM32U5xx_HAL_Driver/Src/stm32u5xx_ll_usb.c ****                     USB_OTG_GINTMSK_PXFRM_IISOOXFRM  | USB_OTG_GINTMSK_WUIM);
1544:Drivers/STM32U5xx_HAL_Driver/Src/stm32u5xx_ll_usb.c **** 
1545:Drivers/STM32U5xx_HAL_Driver/Src/stm32u5xx_ll_usb.c ****   return ret;
 3592              		.loc 1 1545 3 is_stmt 1 view .LVU1164
1546:Drivers/STM32U5xx_HAL_Driver/Src/stm32u5xx_ll_usb.c **** }
 3593              		.loc 1 1546 1 is_stmt 0 view .LVU1165
 3594 00c6 2846     		mov	r0, r5
 3595 00c8 BDE83840 		pop	{r3, r4, r5, lr}
 3596              	.LCFI46:
 3597              		.cfi_remember_state
 3598              		.cfi_restore 14
 3599              		.cfi_restore 5
 3600              		.cfi_restore 4
 3601              		.cfi_restore 3
 3602              		.cfi_def_cfa_offset 16
 3603              	.LVL295:
 3604              		.loc 1 1546 1 view .LVU1166
ARM GAS  /tmp/cc0vokHo.s 			page 109


 3605 00cc 04B0     		add	sp, sp, #16
 3606              	.LCFI47:
 3607              		.cfi_def_cfa_offset 0
 3608 00ce 7047     		bx	lr
 3609              	.LVL296:
 3610              	.L226:
 3611              	.LCFI48:
 3612              		.cfi_restore_state
1529:Drivers/STM32U5xx_HAL_Driver/Src/stm32u5xx_ll_usb.c ****     USBx->DIEPTXF0_HNPTXFSIZ = (uint32_t)(((0x60U << 16) & USB_OTG_NPTXFD) | 0x80U);
 3613              		.loc 1 1529 5 is_stmt 1 view .LVU1167
1529:Drivers/STM32U5xx_HAL_Driver/Src/stm32u5xx_ll_usb.c ****     USBx->DIEPTXF0_HNPTXFSIZ = (uint32_t)(((0x60U << 16) & USB_OTG_NPTXFD) | 0x80U);
 3614              		.loc 1 1529 20 is_stmt 0 view .LVU1168
 3615 00d0 8023     		movs	r3, #128
 3616 00d2 6362     		str	r3, [r4, #36]
1530:Drivers/STM32U5xx_HAL_Driver/Src/stm32u5xx_ll_usb.c ****     USBx->HPTXFSIZ = (uint32_t)(((0x40U << 16)& USB_OTG_HPTXFSIZ_PTXFD) | 0xE0U);
 3617              		.loc 1 1530 5 is_stmt 1 view .LVU1169
1530:Drivers/STM32U5xx_HAL_Driver/Src/stm32u5xx_ll_usb.c ****     USBx->HPTXFSIZ = (uint32_t)(((0x40U << 16)& USB_OTG_HPTXFSIZ_PTXFD) | 0xE0U);
 3618              		.loc 1 1530 30 is_stmt 0 view .LVU1170
 3619 00d4 03F5C003 		add	r3, r3, #6291456
 3620 00d8 A362     		str	r3, [r4, #40]
1531:Drivers/STM32U5xx_HAL_Driver/Src/stm32u5xx_ll_usb.c ****   }
 3621              		.loc 1 1531 5 is_stmt 1 view .LVU1171
1531:Drivers/STM32U5xx_HAL_Driver/Src/stm32u5xx_ll_usb.c ****   }
 3622              		.loc 1 1531 20 is_stmt 0 view .LVU1172
 3623 00da 044B     		ldr	r3, .L233+8
 3624 00dc C4F80031 		str	r3, [r4, #256]
 3625 00e0 E7E7     		b	.L227
 3626              	.L234:
 3627 00e2 00BF     		.align	2
 3628              	.L233:
 3629 00e4 0003E000 		.word	14680832
 3630 00e8 080020A3 		.word	-1558183928
 3631 00ec E0004000 		.word	4194528
 3632              		.cfi_endproc
 3633              	.LFE380:
 3635              		.section	.text.USB_InitFSLSPClkSel,"ax",%progbits
 3636              		.align	1
 3637              		.global	USB_InitFSLSPClkSel
 3638              		.syntax unified
 3639              		.thumb
 3640              		.thumb_func
 3642              	USB_InitFSLSPClkSel:
 3643              	.LVL297:
 3644              	.LFB381:
1547:Drivers/STM32U5xx_HAL_Driver/Src/stm32u5xx_ll_usb.c **** 
1548:Drivers/STM32U5xx_HAL_Driver/Src/stm32u5xx_ll_usb.c **** /**
1549:Drivers/STM32U5xx_HAL_Driver/Src/stm32u5xx_ll_usb.c ****   * @brief  USB_InitFSLSPClkSel : Initializes the FSLSPClkSel field of the
1550:Drivers/STM32U5xx_HAL_Driver/Src/stm32u5xx_ll_usb.c ****   *         HCFG register on the PHY type and set the right frame interval
1551:Drivers/STM32U5xx_HAL_Driver/Src/stm32u5xx_ll_usb.c ****   * @param  USBx  Selected device
1552:Drivers/STM32U5xx_HAL_Driver/Src/stm32u5xx_ll_usb.c ****   * @param  freq  clock frequency
1553:Drivers/STM32U5xx_HAL_Driver/Src/stm32u5xx_ll_usb.c ****   *          This parameter can be one of these values:
1554:Drivers/STM32U5xx_HAL_Driver/Src/stm32u5xx_ll_usb.c ****   *           HCFG_48_MHZ : Full Speed 48 MHz Clock
1555:Drivers/STM32U5xx_HAL_Driver/Src/stm32u5xx_ll_usb.c ****   *           HCFG_6_MHZ : Low Speed 6 MHz Clock
1556:Drivers/STM32U5xx_HAL_Driver/Src/stm32u5xx_ll_usb.c ****   * @retval HAL status
1557:Drivers/STM32U5xx_HAL_Driver/Src/stm32u5xx_ll_usb.c ****   */
1558:Drivers/STM32U5xx_HAL_Driver/Src/stm32u5xx_ll_usb.c **** HAL_StatusTypeDef USB_InitFSLSPClkSel(USB_OTG_GlobalTypeDef *USBx, uint8_t freq)
1559:Drivers/STM32U5xx_HAL_Driver/Src/stm32u5xx_ll_usb.c **** {
ARM GAS  /tmp/cc0vokHo.s 			page 110


 3645              		.loc 1 1559 1 is_stmt 1 view -0
 3646              		.cfi_startproc
 3647              		@ args = 0, pretend = 0, frame = 0
 3648              		@ frame_needed = 0, uses_anonymous_args = 0
 3649              		@ link register save eliminated.
1560:Drivers/STM32U5xx_HAL_Driver/Src/stm32u5xx_ll_usb.c ****   uint32_t USBx_BASE = (uint32_t)USBx;
 3650              		.loc 1 1560 3 view .LVU1174
1561:Drivers/STM32U5xx_HAL_Driver/Src/stm32u5xx_ll_usb.c **** 
1562:Drivers/STM32U5xx_HAL_Driver/Src/stm32u5xx_ll_usb.c ****   USBx_HOST->HCFG &= ~(USB_OTG_HCFG_FSLSPCS);
 3651              		.loc 1 1562 3 view .LVU1175
 3652              		.loc 1 1562 19 is_stmt 0 view .LVU1176
 3653 0000 00F5806C 		add	ip, r0, #1024
 3654 0004 D0F80034 		ldr	r3, [r0, #1024]
 3655 0008 23F00303 		bic	r3, r3, #3
 3656 000c C0F80034 		str	r3, [r0, #1024]
1563:Drivers/STM32U5xx_HAL_Driver/Src/stm32u5xx_ll_usb.c ****   USBx_HOST->HCFG |= (uint32_t)freq & USB_OTG_HCFG_FSLSPCS;
 3657              		.loc 1 1563 3 is_stmt 1 view .LVU1177
 3658              		.loc 1 1563 19 is_stmt 0 view .LVU1178
 3659 0010 D0F80034 		ldr	r3, [r0, #1024]
 3660              		.loc 1 1563 37 view .LVU1179
 3661 0014 01F00302 		and	r2, r1, #3
 3662              		.loc 1 1563 19 view .LVU1180
 3663 0018 1343     		orrs	r3, r3, r2
 3664 001a C0F80034 		str	r3, [r0, #1024]
1564:Drivers/STM32U5xx_HAL_Driver/Src/stm32u5xx_ll_usb.c **** 
1565:Drivers/STM32U5xx_HAL_Driver/Src/stm32u5xx_ll_usb.c ****   if (freq == HCFG_48_MHZ)
 3665              		.loc 1 1565 3 is_stmt 1 view .LVU1181
 3666              		.loc 1 1565 6 is_stmt 0 view .LVU1182
 3667 001e 0129     		cmp	r1, #1
 3668 0020 07D0     		beq	.L239
1566:Drivers/STM32U5xx_HAL_Driver/Src/stm32u5xx_ll_usb.c ****   {
1567:Drivers/STM32U5xx_HAL_Driver/Src/stm32u5xx_ll_usb.c ****     USBx_HOST->HFIR = HFIR_48_MHZ;
1568:Drivers/STM32U5xx_HAL_Driver/Src/stm32u5xx_ll_usb.c ****   }
1569:Drivers/STM32U5xx_HAL_Driver/Src/stm32u5xx_ll_usb.c ****   else if (freq == HCFG_6_MHZ)
 3669              		.loc 1 1569 8 is_stmt 1 view .LVU1183
 3670              		.loc 1 1569 11 is_stmt 0 view .LVU1184
 3671 0022 0229     		cmp	r1, #2
 3672 0024 0BD1     		bne	.L238
1570:Drivers/STM32U5xx_HAL_Driver/Src/stm32u5xx_ll_usb.c ****   {
1571:Drivers/STM32U5xx_HAL_Driver/Src/stm32u5xx_ll_usb.c ****     USBx_HOST->HFIR = HFIR_6_MHZ;
 3673              		.loc 1 1571 5 is_stmt 1 view .LVU1185
 3674              		.loc 1 1571 21 is_stmt 0 view .LVU1186
 3675 0026 41F27073 		movw	r3, #6000
 3676 002a CCF80430 		str	r3, [ip, #4]
1572:Drivers/STM32U5xx_HAL_Driver/Src/stm32u5xx_ll_usb.c ****   }
1573:Drivers/STM32U5xx_HAL_Driver/Src/stm32u5xx_ll_usb.c ****   else
1574:Drivers/STM32U5xx_HAL_Driver/Src/stm32u5xx_ll_usb.c ****   {
1575:Drivers/STM32U5xx_HAL_Driver/Src/stm32u5xx_ll_usb.c ****     return HAL_ERROR;
1576:Drivers/STM32U5xx_HAL_Driver/Src/stm32u5xx_ll_usb.c ****   }
1577:Drivers/STM32U5xx_HAL_Driver/Src/stm32u5xx_ll_usb.c **** 
1578:Drivers/STM32U5xx_HAL_Driver/Src/stm32u5xx_ll_usb.c ****   return HAL_OK;
 3677              		.loc 1 1578 10 view .LVU1187
 3678 002e 0020     		movs	r0, #0
 3679              	.LVL298:
 3680              		.loc 1 1578 10 view .LVU1188
 3681 0030 7047     		bx	lr
 3682              	.LVL299:
ARM GAS  /tmp/cc0vokHo.s 			page 111


 3683              	.L239:
1567:Drivers/STM32U5xx_HAL_Driver/Src/stm32u5xx_ll_usb.c ****   }
 3684              		.loc 1 1567 5 is_stmt 1 view .LVU1189
1567:Drivers/STM32U5xx_HAL_Driver/Src/stm32u5xx_ll_usb.c ****   }
 3685              		.loc 1 1567 21 is_stmt 0 view .LVU1190
 3686 0032 4BF68033 		movw	r3, #48000
 3687 0036 CCF80430 		str	r3, [ip, #4]
 3688              		.loc 1 1578 10 view .LVU1191
 3689 003a 0020     		movs	r0, #0
 3690              	.LVL300:
 3691              		.loc 1 1578 10 view .LVU1192
 3692 003c 7047     		bx	lr
 3693              	.LVL301:
 3694              	.L238:
1575:Drivers/STM32U5xx_HAL_Driver/Src/stm32u5xx_ll_usb.c ****   }
 3695              		.loc 1 1575 12 view .LVU1193
 3696 003e 0120     		movs	r0, #1
 3697              	.LVL302:
1579:Drivers/STM32U5xx_HAL_Driver/Src/stm32u5xx_ll_usb.c **** }
 3698              		.loc 1 1579 1 view .LVU1194
 3699 0040 7047     		bx	lr
 3700              		.cfi_endproc
 3701              	.LFE381:
 3703              		.section	.text.USB_ResetPort,"ax",%progbits
 3704              		.align	1
 3705              		.global	USB_ResetPort
 3706              		.syntax unified
 3707              		.thumb
 3708              		.thumb_func
 3710              	USB_ResetPort:
 3711              	.LVL303:
 3712              	.LFB382:
1580:Drivers/STM32U5xx_HAL_Driver/Src/stm32u5xx_ll_usb.c **** 
1581:Drivers/STM32U5xx_HAL_Driver/Src/stm32u5xx_ll_usb.c **** /**
1582:Drivers/STM32U5xx_HAL_Driver/Src/stm32u5xx_ll_usb.c ****   * @brief  USB_OTG_ResetPort : Reset Host Port
1583:Drivers/STM32U5xx_HAL_Driver/Src/stm32u5xx_ll_usb.c ****   * @param  USBx  Selected device
1584:Drivers/STM32U5xx_HAL_Driver/Src/stm32u5xx_ll_usb.c ****   * @retval HAL status
1585:Drivers/STM32U5xx_HAL_Driver/Src/stm32u5xx_ll_usb.c ****   * @note (1)The application must wait at least 10 ms
1586:Drivers/STM32U5xx_HAL_Driver/Src/stm32u5xx_ll_usb.c ****   *   before clearing the reset bit.
1587:Drivers/STM32U5xx_HAL_Driver/Src/stm32u5xx_ll_usb.c ****   */
1588:Drivers/STM32U5xx_HAL_Driver/Src/stm32u5xx_ll_usb.c **** HAL_StatusTypeDef USB_ResetPort(USB_OTG_GlobalTypeDef *USBx)
1589:Drivers/STM32U5xx_HAL_Driver/Src/stm32u5xx_ll_usb.c **** {
 3713              		.loc 1 1589 1 is_stmt 1 view -0
 3714              		.cfi_startproc
 3715              		@ args = 0, pretend = 0, frame = 8
 3716              		@ frame_needed = 0, uses_anonymous_args = 0
 3717              		.loc 1 1589 1 is_stmt 0 view .LVU1196
 3718 0000 30B5     		push	{r4, r5, lr}
 3719              	.LCFI49:
 3720              		.cfi_def_cfa_offset 12
 3721              		.cfi_offset 4, -12
 3722              		.cfi_offset 5, -8
 3723              		.cfi_offset 14, -4
 3724 0002 83B0     		sub	sp, sp, #12
 3725              	.LCFI50:
 3726              		.cfi_def_cfa_offset 24
 3727 0004 0446     		mov	r4, r0
ARM GAS  /tmp/cc0vokHo.s 			page 112


1590:Drivers/STM32U5xx_HAL_Driver/Src/stm32u5xx_ll_usb.c ****   uint32_t USBx_BASE = (uint32_t)USBx;
 3728              		.loc 1 1590 3 is_stmt 1 view .LVU1197
 3729              	.LVL304:
1591:Drivers/STM32U5xx_HAL_Driver/Src/stm32u5xx_ll_usb.c **** 
1592:Drivers/STM32U5xx_HAL_Driver/Src/stm32u5xx_ll_usb.c ****   __IO uint32_t hprt0 = 0U;
 3730              		.loc 1 1592 3 view .LVU1198
 3731              		.loc 1 1592 17 is_stmt 0 view .LVU1199
 3732 0006 0025     		movs	r5, #0
 3733 0008 0195     		str	r5, [sp, #4]
1593:Drivers/STM32U5xx_HAL_Driver/Src/stm32u5xx_ll_usb.c **** 
1594:Drivers/STM32U5xx_HAL_Driver/Src/stm32u5xx_ll_usb.c ****   hprt0 = USBx_HPRT0;
 3734              		.loc 1 1594 3 is_stmt 1 view .LVU1200
 3735              		.loc 1 1594 11 is_stmt 0 view .LVU1201
 3736 000a D0F84034 		ldr	r3, [r0, #1088]
 3737              		.loc 1 1594 9 view .LVU1202
 3738 000e 0193     		str	r3, [sp, #4]
1595:Drivers/STM32U5xx_HAL_Driver/Src/stm32u5xx_ll_usb.c **** 
1596:Drivers/STM32U5xx_HAL_Driver/Src/stm32u5xx_ll_usb.c ****   hprt0 &= ~(USB_OTG_HPRT_PENA | USB_OTG_HPRT_PCDET |
 3739              		.loc 1 1596 3 is_stmt 1 view .LVU1203
 3740              		.loc 1 1596 9 is_stmt 0 view .LVU1204
 3741 0010 019B     		ldr	r3, [sp, #4]
 3742 0012 23F02E03 		bic	r3, r3, #46
 3743 0016 0193     		str	r3, [sp, #4]
1597:Drivers/STM32U5xx_HAL_Driver/Src/stm32u5xx_ll_usb.c ****              USB_OTG_HPRT_PENCHNG | USB_OTG_HPRT_POCCHNG);
1598:Drivers/STM32U5xx_HAL_Driver/Src/stm32u5xx_ll_usb.c **** 
1599:Drivers/STM32U5xx_HAL_Driver/Src/stm32u5xx_ll_usb.c ****   USBx_HPRT0 = (USB_OTG_HPRT_PRST | hprt0);
 3744              		.loc 1 1599 3 is_stmt 1 view .LVU1205
 3745              		.loc 1 1599 35 is_stmt 0 view .LVU1206
 3746 0018 019B     		ldr	r3, [sp, #4]
 3747 001a 43F48073 		orr	r3, r3, #256
 3748              		.loc 1 1599 14 view .LVU1207
 3749 001e C0F84034 		str	r3, [r0, #1088]
1600:Drivers/STM32U5xx_HAL_Driver/Src/stm32u5xx_ll_usb.c ****   HAL_Delay(100U);                                 /* See Note #1 */
 3750              		.loc 1 1600 3 is_stmt 1 view .LVU1208
 3751 0022 6420     		movs	r0, #100
 3752              	.LVL305:
 3753              		.loc 1 1600 3 is_stmt 0 view .LVU1209
 3754 0024 FFF7FEFF 		bl	HAL_Delay
 3755              	.LVL306:
1601:Drivers/STM32U5xx_HAL_Driver/Src/stm32u5xx_ll_usb.c ****   USBx_HPRT0 = ((~USB_OTG_HPRT_PRST) & hprt0);
 3756              		.loc 1 1601 3 is_stmt 1 view .LVU1210
 3757              		.loc 1 1601 38 is_stmt 0 view .LVU1211
 3758 0028 019B     		ldr	r3, [sp, #4]
 3759 002a 23F48073 		bic	r3, r3, #256
 3760              		.loc 1 1601 14 view .LVU1212
 3761 002e C4F84034 		str	r3, [r4, #1088]
1602:Drivers/STM32U5xx_HAL_Driver/Src/stm32u5xx_ll_usb.c ****   HAL_Delay(10U);
 3762              		.loc 1 1602 3 is_stmt 1 view .LVU1213
 3763 0032 0A20     		movs	r0, #10
 3764 0034 FFF7FEFF 		bl	HAL_Delay
 3765              	.LVL307:
1603:Drivers/STM32U5xx_HAL_Driver/Src/stm32u5xx_ll_usb.c **** 
1604:Drivers/STM32U5xx_HAL_Driver/Src/stm32u5xx_ll_usb.c ****   return HAL_OK;
 3766              		.loc 1 1604 3 view .LVU1214
1605:Drivers/STM32U5xx_HAL_Driver/Src/stm32u5xx_ll_usb.c **** }
 3767              		.loc 1 1605 1 is_stmt 0 view .LVU1215
 3768 0038 2846     		mov	r0, r5
ARM GAS  /tmp/cc0vokHo.s 			page 113


 3769 003a 03B0     		add	sp, sp, #12
 3770              	.LCFI51:
 3771              		.cfi_def_cfa_offset 12
 3772              		@ sp needed
 3773 003c 30BD     		pop	{r4, r5, pc}
 3774              		.loc 1 1605 1 view .LVU1216
 3775              		.cfi_endproc
 3776              	.LFE382:
 3778              		.section	.text.USB_DriveVbus,"ax",%progbits
 3779              		.align	1
 3780              		.global	USB_DriveVbus
 3781              		.syntax unified
 3782              		.thumb
 3783              		.thumb_func
 3785              	USB_DriveVbus:
 3786              	.LVL308:
 3787              	.LFB383:
1606:Drivers/STM32U5xx_HAL_Driver/Src/stm32u5xx_ll_usb.c **** 
1607:Drivers/STM32U5xx_HAL_Driver/Src/stm32u5xx_ll_usb.c **** /**
1608:Drivers/STM32U5xx_HAL_Driver/Src/stm32u5xx_ll_usb.c ****   * @brief  USB_DriveVbus : activate or de-activate vbus
1609:Drivers/STM32U5xx_HAL_Driver/Src/stm32u5xx_ll_usb.c ****   * @param  state  VBUS state
1610:Drivers/STM32U5xx_HAL_Driver/Src/stm32u5xx_ll_usb.c ****   *          This parameter can be one of these values:
1611:Drivers/STM32U5xx_HAL_Driver/Src/stm32u5xx_ll_usb.c ****   *           0 : Deactivate VBUS
1612:Drivers/STM32U5xx_HAL_Driver/Src/stm32u5xx_ll_usb.c ****   *           1 : Activate VBUS
1613:Drivers/STM32U5xx_HAL_Driver/Src/stm32u5xx_ll_usb.c ****   * @retval HAL status
1614:Drivers/STM32U5xx_HAL_Driver/Src/stm32u5xx_ll_usb.c ****   */
1615:Drivers/STM32U5xx_HAL_Driver/Src/stm32u5xx_ll_usb.c **** HAL_StatusTypeDef USB_DriveVbus(USB_OTG_GlobalTypeDef *USBx, uint8_t state)
1616:Drivers/STM32U5xx_HAL_Driver/Src/stm32u5xx_ll_usb.c **** {
 3788              		.loc 1 1616 1 is_stmt 1 view -0
 3789              		.cfi_startproc
 3790              		@ args = 0, pretend = 0, frame = 8
 3791              		@ frame_needed = 0, uses_anonymous_args = 0
 3792              		@ link register save eliminated.
 3793              		.loc 1 1616 1 is_stmt 0 view .LVU1218
 3794 0000 82B0     		sub	sp, sp, #8
 3795              	.LCFI52:
 3796              		.cfi_def_cfa_offset 8
1617:Drivers/STM32U5xx_HAL_Driver/Src/stm32u5xx_ll_usb.c ****   uint32_t USBx_BASE = (uint32_t)USBx;
 3797              		.loc 1 1617 3 is_stmt 1 view .LVU1219
 3798              	.LVL309:
1618:Drivers/STM32U5xx_HAL_Driver/Src/stm32u5xx_ll_usb.c ****   __IO uint32_t hprt0 = 0U;
 3799              		.loc 1 1618 3 view .LVU1220
 3800              		.loc 1 1618 17 is_stmt 0 view .LVU1221
 3801 0002 0023     		movs	r3, #0
 3802 0004 0193     		str	r3, [sp, #4]
1619:Drivers/STM32U5xx_HAL_Driver/Src/stm32u5xx_ll_usb.c **** 
1620:Drivers/STM32U5xx_HAL_Driver/Src/stm32u5xx_ll_usb.c ****   hprt0 = USBx_HPRT0;
 3803              		.loc 1 1620 3 is_stmt 1 view .LVU1222
 3804              		.loc 1 1620 11 is_stmt 0 view .LVU1223
 3805 0006 D0F84034 		ldr	r3, [r0, #1088]
 3806              		.loc 1 1620 9 view .LVU1224
 3807 000a 0193     		str	r3, [sp, #4]
1621:Drivers/STM32U5xx_HAL_Driver/Src/stm32u5xx_ll_usb.c **** 
1622:Drivers/STM32U5xx_HAL_Driver/Src/stm32u5xx_ll_usb.c ****   hprt0 &= ~(USB_OTG_HPRT_PENA | USB_OTG_HPRT_PCDET |
 3808              		.loc 1 1622 3 is_stmt 1 view .LVU1225
 3809              		.loc 1 1622 9 is_stmt 0 view .LVU1226
 3810 000c 019B     		ldr	r3, [sp, #4]
ARM GAS  /tmp/cc0vokHo.s 			page 114


 3811 000e 23F02E03 		bic	r3, r3, #46
 3812 0012 0193     		str	r3, [sp, #4]
1623:Drivers/STM32U5xx_HAL_Driver/Src/stm32u5xx_ll_usb.c ****              USB_OTG_HPRT_PENCHNG | USB_OTG_HPRT_POCCHNG);
1624:Drivers/STM32U5xx_HAL_Driver/Src/stm32u5xx_ll_usb.c **** 
1625:Drivers/STM32U5xx_HAL_Driver/Src/stm32u5xx_ll_usb.c ****   if (((hprt0 & USB_OTG_HPRT_PPWR) == 0U) && (state == 1U))
 3813              		.loc 1 1625 3 is_stmt 1 view .LVU1227
 3814              		.loc 1 1625 15 is_stmt 0 view .LVU1228
 3815 0014 019B     		ldr	r3, [sp, #4]
 3816              		.loc 1 1625 6 view .LVU1229
 3817 0016 13F4805F 		tst	r3, #4096
 3818 001a 01D1     		bne	.L243
 3819              		.loc 1 1625 43 discriminator 1 view .LVU1230
 3820 001c 0129     		cmp	r1, #1
 3821 001e 0CD0     		beq	.L246
 3822              	.L243:
1626:Drivers/STM32U5xx_HAL_Driver/Src/stm32u5xx_ll_usb.c ****   {
1627:Drivers/STM32U5xx_HAL_Driver/Src/stm32u5xx_ll_usb.c ****     USBx_HPRT0 = (USB_OTG_HPRT_PPWR | hprt0);
1628:Drivers/STM32U5xx_HAL_Driver/Src/stm32u5xx_ll_usb.c ****   }
1629:Drivers/STM32U5xx_HAL_Driver/Src/stm32u5xx_ll_usb.c ****   if (((hprt0 & USB_OTG_HPRT_PPWR) == USB_OTG_HPRT_PPWR) && (state == 0U))
 3823              		.loc 1 1629 3 is_stmt 1 view .LVU1231
 3824              		.loc 1 1629 15 is_stmt 0 view .LVU1232
 3825 0020 019B     		ldr	r3, [sp, #4]
 3826              		.loc 1 1629 6 view .LVU1233
 3827 0022 13F4805F 		tst	r3, #4096
 3828 0026 05D0     		beq	.L244
 3829              		.loc 1 1629 58 discriminator 1 view .LVU1234
 3830 0028 21B9     		cbnz	r1, .L244
1630:Drivers/STM32U5xx_HAL_Driver/Src/stm32u5xx_ll_usb.c ****   {
1631:Drivers/STM32U5xx_HAL_Driver/Src/stm32u5xx_ll_usb.c ****     USBx_HPRT0 = ((~USB_OTG_HPRT_PPWR) & hprt0);
 3831              		.loc 1 1631 5 is_stmt 1 view .LVU1235
 3832              		.loc 1 1631 40 is_stmt 0 view .LVU1236
 3833 002a 019B     		ldr	r3, [sp, #4]
 3834 002c 23F48053 		bic	r3, r3, #4096
 3835              		.loc 1 1631 16 view .LVU1237
 3836 0030 C0F84034 		str	r3, [r0, #1088]
 3837              	.L244:
1632:Drivers/STM32U5xx_HAL_Driver/Src/stm32u5xx_ll_usb.c ****   }
1633:Drivers/STM32U5xx_HAL_Driver/Src/stm32u5xx_ll_usb.c ****   return HAL_OK;
 3838              		.loc 1 1633 3 is_stmt 1 view .LVU1238
1634:Drivers/STM32U5xx_HAL_Driver/Src/stm32u5xx_ll_usb.c **** }
 3839              		.loc 1 1634 1 is_stmt 0 view .LVU1239
 3840 0034 0020     		movs	r0, #0
 3841              	.LVL310:
 3842              		.loc 1 1634 1 view .LVU1240
 3843 0036 02B0     		add	sp, sp, #8
 3844              	.LCFI53:
 3845              		.cfi_remember_state
 3846              		.cfi_def_cfa_offset 0
 3847              		@ sp needed
 3848 0038 7047     		bx	lr
 3849              	.LVL311:
 3850              	.L246:
 3851              	.LCFI54:
 3852              		.cfi_restore_state
1627:Drivers/STM32U5xx_HAL_Driver/Src/stm32u5xx_ll_usb.c ****   }
 3853              		.loc 1 1627 5 is_stmt 1 view .LVU1241
1627:Drivers/STM32U5xx_HAL_Driver/Src/stm32u5xx_ll_usb.c ****   }
ARM GAS  /tmp/cc0vokHo.s 			page 115


 3854              		.loc 1 1627 37 is_stmt 0 view .LVU1242
 3855 003a 019B     		ldr	r3, [sp, #4]
 3856 003c 43F48053 		orr	r3, r3, #4096
1627:Drivers/STM32U5xx_HAL_Driver/Src/stm32u5xx_ll_usb.c ****   }
 3857              		.loc 1 1627 16 view .LVU1243
 3858 0040 C0F84034 		str	r3, [r0, #1088]
 3859 0044 ECE7     		b	.L243
 3860              		.cfi_endproc
 3861              	.LFE383:
 3863              		.section	.text.USB_GetHostSpeed,"ax",%progbits
 3864              		.align	1
 3865              		.global	USB_GetHostSpeed
 3866              		.syntax unified
 3867              		.thumb
 3868              		.thumb_func
 3870              	USB_GetHostSpeed:
 3871              	.LVL312:
 3872              	.LFB384:
1635:Drivers/STM32U5xx_HAL_Driver/Src/stm32u5xx_ll_usb.c **** 
1636:Drivers/STM32U5xx_HAL_Driver/Src/stm32u5xx_ll_usb.c **** /**
1637:Drivers/STM32U5xx_HAL_Driver/Src/stm32u5xx_ll_usb.c ****   * @brief  Return Host Core speed
1638:Drivers/STM32U5xx_HAL_Driver/Src/stm32u5xx_ll_usb.c ****   * @param  USBx  Selected device
1639:Drivers/STM32U5xx_HAL_Driver/Src/stm32u5xx_ll_usb.c ****   * @retval speed : Host speed
1640:Drivers/STM32U5xx_HAL_Driver/Src/stm32u5xx_ll_usb.c ****   *          This parameter can be one of these values:
1641:Drivers/STM32U5xx_HAL_Driver/Src/stm32u5xx_ll_usb.c ****   *            @arg HCD_SPEED_HIGH: High speed mode
1642:Drivers/STM32U5xx_HAL_Driver/Src/stm32u5xx_ll_usb.c ****   *            @arg HCD_SPEED_FULL: Full speed mode
1643:Drivers/STM32U5xx_HAL_Driver/Src/stm32u5xx_ll_usb.c ****   *            @arg HCD_SPEED_LOW: Low speed mode
1644:Drivers/STM32U5xx_HAL_Driver/Src/stm32u5xx_ll_usb.c ****   */
1645:Drivers/STM32U5xx_HAL_Driver/Src/stm32u5xx_ll_usb.c **** uint32_t USB_GetHostSpeed(USB_OTG_GlobalTypeDef const *USBx)
1646:Drivers/STM32U5xx_HAL_Driver/Src/stm32u5xx_ll_usb.c **** {
 3873              		.loc 1 1646 1 is_stmt 1 view -0
 3874              		.cfi_startproc
 3875              		@ args = 0, pretend = 0, frame = 8
 3876              		@ frame_needed = 0, uses_anonymous_args = 0
 3877              		@ link register save eliminated.
 3878              		.loc 1 1646 1 is_stmt 0 view .LVU1245
 3879 0000 82B0     		sub	sp, sp, #8
 3880              	.LCFI55:
 3881              		.cfi_def_cfa_offset 8
1647:Drivers/STM32U5xx_HAL_Driver/Src/stm32u5xx_ll_usb.c ****   uint32_t USBx_BASE = (uint32_t)USBx;
 3882              		.loc 1 1647 3 is_stmt 1 view .LVU1246
 3883              	.LVL313:
1648:Drivers/STM32U5xx_HAL_Driver/Src/stm32u5xx_ll_usb.c ****   __IO uint32_t hprt0 = 0U;
 3884              		.loc 1 1648 3 view .LVU1247
 3885              		.loc 1 1648 17 is_stmt 0 view .LVU1248
 3886 0002 0023     		movs	r3, #0
 3887 0004 0193     		str	r3, [sp, #4]
1649:Drivers/STM32U5xx_HAL_Driver/Src/stm32u5xx_ll_usb.c **** 
1650:Drivers/STM32U5xx_HAL_Driver/Src/stm32u5xx_ll_usb.c ****   hprt0 = USBx_HPRT0;
 3888              		.loc 1 1650 3 is_stmt 1 view .LVU1249
 3889              		.loc 1 1650 11 is_stmt 0 view .LVU1250
 3890 0006 D0F84034 		ldr	r3, [r0, #1088]
 3891              		.loc 1 1650 9 view .LVU1251
 3892 000a 0193     		str	r3, [sp, #4]
1651:Drivers/STM32U5xx_HAL_Driver/Src/stm32u5xx_ll_usb.c ****   return ((hprt0 & USB_OTG_HPRT_PSPD) >> 17);
 3893              		.loc 1 1651 3 is_stmt 1 view .LVU1252
 3894              		.loc 1 1651 39 is_stmt 0 view .LVU1253
ARM GAS  /tmp/cc0vokHo.s 			page 116


 3895 000c 0198     		ldr	r0, [sp, #4]
 3896              	.LVL314:
1652:Drivers/STM32U5xx_HAL_Driver/Src/stm32u5xx_ll_usb.c **** }
 3897              		.loc 1 1652 1 view .LVU1254
 3898 000e C0F34140 		ubfx	r0, r0, #17, #2
 3899 0012 02B0     		add	sp, sp, #8
 3900              	.LCFI56:
 3901              		.cfi_def_cfa_offset 0
 3902              		@ sp needed
 3903 0014 7047     		bx	lr
 3904              		.cfi_endproc
 3905              	.LFE384:
 3907              		.section	.text.USB_GetCurrentFrame,"ax",%progbits
 3908              		.align	1
 3909              		.global	USB_GetCurrentFrame
 3910              		.syntax unified
 3911              		.thumb
 3912              		.thumb_func
 3914              	USB_GetCurrentFrame:
 3915              	.LVL315:
 3916              	.LFB385:
1653:Drivers/STM32U5xx_HAL_Driver/Src/stm32u5xx_ll_usb.c **** 
1654:Drivers/STM32U5xx_HAL_Driver/Src/stm32u5xx_ll_usb.c **** /**
1655:Drivers/STM32U5xx_HAL_Driver/Src/stm32u5xx_ll_usb.c ****   * @brief  Return Host Current Frame number
1656:Drivers/STM32U5xx_HAL_Driver/Src/stm32u5xx_ll_usb.c ****   * @param  USBx  Selected device
1657:Drivers/STM32U5xx_HAL_Driver/Src/stm32u5xx_ll_usb.c ****   * @retval current frame number
1658:Drivers/STM32U5xx_HAL_Driver/Src/stm32u5xx_ll_usb.c ****   */
1659:Drivers/STM32U5xx_HAL_Driver/Src/stm32u5xx_ll_usb.c **** uint32_t USB_GetCurrentFrame(USB_OTG_GlobalTypeDef const *USBx)
1660:Drivers/STM32U5xx_HAL_Driver/Src/stm32u5xx_ll_usb.c **** {
 3917              		.loc 1 1660 1 is_stmt 1 view -0
 3918              		.cfi_startproc
 3919              		@ args = 0, pretend = 0, frame = 0
 3920              		@ frame_needed = 0, uses_anonymous_args = 0
 3921              		@ link register save eliminated.
1661:Drivers/STM32U5xx_HAL_Driver/Src/stm32u5xx_ll_usb.c ****   uint32_t USBx_BASE = (uint32_t)USBx;
 3922              		.loc 1 1661 3 view .LVU1256
1662:Drivers/STM32U5xx_HAL_Driver/Src/stm32u5xx_ll_usb.c **** 
1663:Drivers/STM32U5xx_HAL_Driver/Src/stm32u5xx_ll_usb.c ****   return (USBx_HOST->HFNUM & USB_OTG_HFNUM_FRNUM);
 3923              		.loc 1 1663 3 view .LVU1257
 3924              		.loc 1 1663 11 is_stmt 0 view .LVU1258
 3925 0000 00F58060 		add	r0, r0, #1024
 3926              	.LVL316:
 3927              		.loc 1 1663 20 view .LVU1259
 3928 0004 8068     		ldr	r0, [r0, #8]
 3929              	.LVL317:
1664:Drivers/STM32U5xx_HAL_Driver/Src/stm32u5xx_ll_usb.c **** }
 3930              		.loc 1 1664 1 view .LVU1260
 3931 0006 80B2     		uxth	r0, r0
 3932 0008 7047     		bx	lr
 3933              		.cfi_endproc
 3934              	.LFE385:
 3936              		.section	.text.USB_HC_Init,"ax",%progbits
 3937              		.align	1
 3938              		.global	USB_HC_Init
 3939              		.syntax unified
 3940              		.thumb
 3941              		.thumb_func
ARM GAS  /tmp/cc0vokHo.s 			page 117


 3943              	USB_HC_Init:
 3944              	.LVL318:
 3945              	.LFB386:
1665:Drivers/STM32U5xx_HAL_Driver/Src/stm32u5xx_ll_usb.c **** 
1666:Drivers/STM32U5xx_HAL_Driver/Src/stm32u5xx_ll_usb.c **** /**
1667:Drivers/STM32U5xx_HAL_Driver/Src/stm32u5xx_ll_usb.c ****   * @brief  Initialize a host channel
1668:Drivers/STM32U5xx_HAL_Driver/Src/stm32u5xx_ll_usb.c ****   * @param  USBx  Selected device
1669:Drivers/STM32U5xx_HAL_Driver/Src/stm32u5xx_ll_usb.c ****   * @param  ch_num  Channel number
1670:Drivers/STM32U5xx_HAL_Driver/Src/stm32u5xx_ll_usb.c ****   *         This parameter can be a value from 1 to 15
1671:Drivers/STM32U5xx_HAL_Driver/Src/stm32u5xx_ll_usb.c ****   * @param  epnum  Endpoint number
1672:Drivers/STM32U5xx_HAL_Driver/Src/stm32u5xx_ll_usb.c ****   *          This parameter can be a value from 1 to 15
1673:Drivers/STM32U5xx_HAL_Driver/Src/stm32u5xx_ll_usb.c ****   * @param  dev_address  Current device address
1674:Drivers/STM32U5xx_HAL_Driver/Src/stm32u5xx_ll_usb.c ****   *          This parameter can be a value from 0 to 255
1675:Drivers/STM32U5xx_HAL_Driver/Src/stm32u5xx_ll_usb.c ****   * @param  speed  Current device speed
1676:Drivers/STM32U5xx_HAL_Driver/Src/stm32u5xx_ll_usb.c ****   *          This parameter can be one of these values:
1677:Drivers/STM32U5xx_HAL_Driver/Src/stm32u5xx_ll_usb.c ****   *            @arg USB_OTG_SPEED_HIGH: High speed mode
1678:Drivers/STM32U5xx_HAL_Driver/Src/stm32u5xx_ll_usb.c ****   *            @arg USB_OTG_SPEED_FULL: Full speed mode
1679:Drivers/STM32U5xx_HAL_Driver/Src/stm32u5xx_ll_usb.c ****   *            @arg USB_OTG_SPEED_LOW: Low speed mode
1680:Drivers/STM32U5xx_HAL_Driver/Src/stm32u5xx_ll_usb.c ****   * @param  ep_type  Endpoint Type
1681:Drivers/STM32U5xx_HAL_Driver/Src/stm32u5xx_ll_usb.c ****   *          This parameter can be one of these values:
1682:Drivers/STM32U5xx_HAL_Driver/Src/stm32u5xx_ll_usb.c ****   *            @arg EP_TYPE_CTRL: Control type
1683:Drivers/STM32U5xx_HAL_Driver/Src/stm32u5xx_ll_usb.c ****   *            @arg EP_TYPE_ISOC: Isochronous type
1684:Drivers/STM32U5xx_HAL_Driver/Src/stm32u5xx_ll_usb.c ****   *            @arg EP_TYPE_BULK: Bulk type
1685:Drivers/STM32U5xx_HAL_Driver/Src/stm32u5xx_ll_usb.c ****   *            @arg EP_TYPE_INTR: Interrupt type
1686:Drivers/STM32U5xx_HAL_Driver/Src/stm32u5xx_ll_usb.c ****   * @param  mps  Max Packet Size
1687:Drivers/STM32U5xx_HAL_Driver/Src/stm32u5xx_ll_usb.c ****   *          This parameter can be a value from 0 to 32K
1688:Drivers/STM32U5xx_HAL_Driver/Src/stm32u5xx_ll_usb.c ****   * @retval HAL state
1689:Drivers/STM32U5xx_HAL_Driver/Src/stm32u5xx_ll_usb.c ****   */
1690:Drivers/STM32U5xx_HAL_Driver/Src/stm32u5xx_ll_usb.c **** HAL_StatusTypeDef USB_HC_Init(USB_OTG_GlobalTypeDef *USBx, uint8_t ch_num,
1691:Drivers/STM32U5xx_HAL_Driver/Src/stm32u5xx_ll_usb.c ****                               uint8_t epnum, uint8_t dev_address, uint8_t speed,
1692:Drivers/STM32U5xx_HAL_Driver/Src/stm32u5xx_ll_usb.c ****                               uint8_t ep_type, uint16_t mps)
1693:Drivers/STM32U5xx_HAL_Driver/Src/stm32u5xx_ll_usb.c **** {
 3946              		.loc 1 1693 1 is_stmt 1 view -0
 3947              		.cfi_startproc
 3948              		@ args = 12, pretend = 0, frame = 0
 3949              		@ frame_needed = 0, uses_anonymous_args = 0
 3950              		.loc 1 1693 1 is_stmt 0 view .LVU1262
 3951 0000 2DE9F843 		push	{r3, r4, r5, r6, r7, r8, r9, lr}
 3952              	.LCFI57:
 3953              		.cfi_def_cfa_offset 32
 3954              		.cfi_offset 3, -32
 3955              		.cfi_offset 4, -28
 3956              		.cfi_offset 5, -24
 3957              		.cfi_offset 6, -20
 3958              		.cfi_offset 7, -16
 3959              		.cfi_offset 8, -12
 3960              		.cfi_offset 9, -8
 3961              		.cfi_offset 14, -4
 3962 0004 9146     		mov	r9, r2
 3963 0006 1C46     		mov	r4, r3
 3964 0008 9DF82450 		ldrb	r5, [sp, #36]	@ zero_extendqisi2
1694:Drivers/STM32U5xx_HAL_Driver/Src/stm32u5xx_ll_usb.c ****   HAL_StatusTypeDef ret = HAL_OK;
 3965              		.loc 1 1694 3 is_stmt 1 view .LVU1263
 3966              	.LVL319:
1695:Drivers/STM32U5xx_HAL_Driver/Src/stm32u5xx_ll_usb.c ****   uint32_t USBx_BASE = (uint32_t)USBx;
 3967              		.loc 1 1695 3 view .LVU1264
1696:Drivers/STM32U5xx_HAL_Driver/Src/stm32u5xx_ll_usb.c ****   uint32_t HCcharEpDir;
ARM GAS  /tmp/cc0vokHo.s 			page 118


 3968              		.loc 1 1696 3 view .LVU1265
1697:Drivers/STM32U5xx_HAL_Driver/Src/stm32u5xx_ll_usb.c ****   uint32_t HCcharLowSpeed;
 3969              		.loc 1 1697 3 view .LVU1266
1698:Drivers/STM32U5xx_HAL_Driver/Src/stm32u5xx_ll_usb.c ****   uint32_t HostCoreSpeed;
 3970              		.loc 1 1698 3 view .LVU1267
1699:Drivers/STM32U5xx_HAL_Driver/Src/stm32u5xx_ll_usb.c **** 
1700:Drivers/STM32U5xx_HAL_Driver/Src/stm32u5xx_ll_usb.c ****   /* Clear old interrupt conditions for this host channel. */
1701:Drivers/STM32U5xx_HAL_Driver/Src/stm32u5xx_ll_usb.c ****   USBx_HC((uint32_t)ch_num)->HCINT = CLEAR_INTERRUPT_MASK;
 3971              		.loc 1 1701 3 view .LVU1268
 3972 000c 00EB4116 		add	r6, r0, r1, lsl #5
 3973 0010 06F5A063 		add	r3, r6, #1280
 3974              	.LVL320:
 3975              		.loc 1 1701 36 is_stmt 0 view .LVU1269
 3976 0014 4FF0FF32 		mov	r2, #-1
 3977              	.LVL321:
 3978              		.loc 1 1701 36 view .LVU1270
 3979 0018 9A60     		str	r2, [r3, #8]
1702:Drivers/STM32U5xx_HAL_Driver/Src/stm32u5xx_ll_usb.c **** 
1703:Drivers/STM32U5xx_HAL_Driver/Src/stm32u5xx_ll_usb.c ****   /* Enable channel interrupts required for this transfer. */
1704:Drivers/STM32U5xx_HAL_Driver/Src/stm32u5xx_ll_usb.c ****   switch (ep_type)
 3980              		.loc 1 1704 3 is_stmt 1 view .LVU1271
 3981 001a 032D     		cmp	r5, #3
 3982 001c 7AD8     		bhi	.L261
 3983 001e DFE805F0 		tbb	[pc, r5]
 3984              	.L253:
 3985 0022 02       		.byte	(.L254-.L253)/2
 3986 0023 6B       		.byte	(.L255-.L253)/2
 3987 0024 02       		.byte	(.L254-.L253)/2
 3988 0025 18       		.byte	(.L252-.L253)/2
 3989              		.p2align 1
 3990              	.L254:
1705:Drivers/STM32U5xx_HAL_Driver/Src/stm32u5xx_ll_usb.c ****   {
1706:Drivers/STM32U5xx_HAL_Driver/Src/stm32u5xx_ll_usb.c ****     case EP_TYPE_CTRL:
1707:Drivers/STM32U5xx_HAL_Driver/Src/stm32u5xx_ll_usb.c ****     case EP_TYPE_BULK:
1708:Drivers/STM32U5xx_HAL_Driver/Src/stm32u5xx_ll_usb.c ****       USBx_HC((uint32_t)ch_num)->HCINTMSK = USB_OTG_HCINTMSK_XFRCM  |
 3991              		.loc 1 1708 7 view .LVU1272
 3992              		.loc 1 1708 43 is_stmt 0 view .LVU1273
 3993 0026 40F29D42 		movw	r2, #1181
 3994 002a DA60     		str	r2, [r3, #12]
1709:Drivers/STM32U5xx_HAL_Driver/Src/stm32u5xx_ll_usb.c ****                                             USB_OTG_HCINTMSK_STALLM |
1710:Drivers/STM32U5xx_HAL_Driver/Src/stm32u5xx_ll_usb.c ****                                             USB_OTG_HCINTMSK_TXERRM |
1711:Drivers/STM32U5xx_HAL_Driver/Src/stm32u5xx_ll_usb.c ****                                             USB_OTG_HCINTMSK_DTERRM |
1712:Drivers/STM32U5xx_HAL_Driver/Src/stm32u5xx_ll_usb.c ****                                             USB_OTG_HCINTMSK_AHBERR |
1713:Drivers/STM32U5xx_HAL_Driver/Src/stm32u5xx_ll_usb.c ****                                             USB_OTG_HCINTMSK_NAKM;
1714:Drivers/STM32U5xx_HAL_Driver/Src/stm32u5xx_ll_usb.c **** 
1715:Drivers/STM32U5xx_HAL_Driver/Src/stm32u5xx_ll_usb.c ****       if ((epnum & 0x80U) == 0x80U)
 3995              		.loc 1 1715 7 is_stmt 1 view .LVU1274
 3996              		.loc 1 1715 10 is_stmt 0 view .LVU1275
 3997 002c 19F0800F 		tst	r9, #128
 3998 0030 09D1     		bne	.L269
1716:Drivers/STM32U5xx_HAL_Driver/Src/stm32u5xx_ll_usb.c ****       {
1717:Drivers/STM32U5xx_HAL_Driver/Src/stm32u5xx_ll_usb.c ****         USBx_HC((uint32_t)ch_num)->HCINTMSK |= USB_OTG_HCINTMSK_BBERRM;
1718:Drivers/STM32U5xx_HAL_Driver/Src/stm32u5xx_ll_usb.c ****       }
1719:Drivers/STM32U5xx_HAL_Driver/Src/stm32u5xx_ll_usb.c ****       else
1720:Drivers/STM32U5xx_HAL_Driver/Src/stm32u5xx_ll_usb.c ****       {
1721:Drivers/STM32U5xx_HAL_Driver/Src/stm32u5xx_ll_usb.c ****         if ((USBx->CID & (0x1U << 14)) != 0U)
 3999              		.loc 1 1721 9 is_stmt 1 view .LVU1276
ARM GAS  /tmp/cc0vokHo.s 			page 119


 4000              		.loc 1 1721 18 is_stmt 0 view .LVU1277
 4001 0032 C26B     		ldr	r2, [r0, #60]
 4002              		.loc 1 1721 12 view .LVU1278
 4003 0034 12F4804F 		tst	r2, #16384
 4004 0038 6ED0     		beq	.L262
1722:Drivers/STM32U5xx_HAL_Driver/Src/stm32u5xx_ll_usb.c ****         {
1723:Drivers/STM32U5xx_HAL_Driver/Src/stm32u5xx_ll_usb.c ****           USBx_HC((uint32_t)ch_num)->HCINTMSK |= USB_OTG_HCINTMSK_NYET |
 4005              		.loc 1 1723 11 is_stmt 1 view .LVU1279
 4006              		.loc 1 1723 47 is_stmt 0 view .LVU1280
 4007 003a DA68     		ldr	r2, [r3, #12]
 4008 003c 42F06002 		orr	r2, r2, #96
 4009 0040 DA60     		str	r2, [r3, #12]
1694:Drivers/STM32U5xx_HAL_Driver/Src/stm32u5xx_ll_usb.c ****   uint32_t USBx_BASE = (uint32_t)USBx;
 4010              		.loc 1 1694 21 view .LVU1281
 4011 0042 0027     		movs	r7, #0
 4012 0044 0CE0     		b	.L251
 4013              	.L269:
1717:Drivers/STM32U5xx_HAL_Driver/Src/stm32u5xx_ll_usb.c ****       }
 4014              		.loc 1 1717 9 is_stmt 1 view .LVU1282
1717:Drivers/STM32U5xx_HAL_Driver/Src/stm32u5xx_ll_usb.c ****       }
 4015              		.loc 1 1717 45 is_stmt 0 view .LVU1283
 4016 0046 DA68     		ldr	r2, [r3, #12]
 4017 0048 42F48072 		orr	r2, r2, #256
 4018 004c DA60     		str	r2, [r3, #12]
1694:Drivers/STM32U5xx_HAL_Driver/Src/stm32u5xx_ll_usb.c ****   uint32_t USBx_BASE = (uint32_t)USBx;
 4019              		.loc 1 1694 21 view .LVU1284
 4020 004e 0027     		movs	r7, #0
 4021 0050 06E0     		b	.L251
 4022              	.L252:
1724:Drivers/STM32U5xx_HAL_Driver/Src/stm32u5xx_ll_usb.c ****                                                  USB_OTG_HCINTMSK_ACKM;
1725:Drivers/STM32U5xx_HAL_Driver/Src/stm32u5xx_ll_usb.c ****         }
1726:Drivers/STM32U5xx_HAL_Driver/Src/stm32u5xx_ll_usb.c ****       }
1727:Drivers/STM32U5xx_HAL_Driver/Src/stm32u5xx_ll_usb.c ****       break;
1728:Drivers/STM32U5xx_HAL_Driver/Src/stm32u5xx_ll_usb.c **** 
1729:Drivers/STM32U5xx_HAL_Driver/Src/stm32u5xx_ll_usb.c ****     case EP_TYPE_INTR:
1730:Drivers/STM32U5xx_HAL_Driver/Src/stm32u5xx_ll_usb.c ****       USBx_HC((uint32_t)ch_num)->HCINTMSK = USB_OTG_HCINTMSK_XFRCM  |
 4023              		.loc 1 1730 7 is_stmt 1 view .LVU1285
 4024              		.loc 1 1730 43 is_stmt 0 view .LVU1286
 4025 0052 40F29D62 		movw	r2, #1693
 4026 0056 DA60     		str	r2, [r3, #12]
1731:Drivers/STM32U5xx_HAL_Driver/Src/stm32u5xx_ll_usb.c ****                                             USB_OTG_HCINTMSK_STALLM |
1732:Drivers/STM32U5xx_HAL_Driver/Src/stm32u5xx_ll_usb.c ****                                             USB_OTG_HCINTMSK_TXERRM |
1733:Drivers/STM32U5xx_HAL_Driver/Src/stm32u5xx_ll_usb.c ****                                             USB_OTG_HCINTMSK_DTERRM |
1734:Drivers/STM32U5xx_HAL_Driver/Src/stm32u5xx_ll_usb.c ****                                             USB_OTG_HCINTMSK_NAKM   |
1735:Drivers/STM32U5xx_HAL_Driver/Src/stm32u5xx_ll_usb.c ****                                             USB_OTG_HCINTMSK_AHBERR |
1736:Drivers/STM32U5xx_HAL_Driver/Src/stm32u5xx_ll_usb.c ****                                             USB_OTG_HCINTMSK_FRMORM;
1737:Drivers/STM32U5xx_HAL_Driver/Src/stm32u5xx_ll_usb.c **** 
1738:Drivers/STM32U5xx_HAL_Driver/Src/stm32u5xx_ll_usb.c ****       if ((epnum & 0x80U) == 0x80U)
 4027              		.loc 1 1738 7 is_stmt 1 view .LVU1287
 4028              		.loc 1 1738 10 is_stmt 0 view .LVU1288
 4029 0058 19F0800F 		tst	r9, #128
 4030 005c 46D1     		bne	.L270
1694:Drivers/STM32U5xx_HAL_Driver/Src/stm32u5xx_ll_usb.c ****   uint32_t USBx_BASE = (uint32_t)USBx;
 4031              		.loc 1 1694 21 view .LVU1289
 4032 005e 0027     		movs	r7, #0
 4033              	.L251:
 4034              	.LVL322:
ARM GAS  /tmp/cc0vokHo.s 			page 120


1739:Drivers/STM32U5xx_HAL_Driver/Src/stm32u5xx_ll_usb.c ****       {
1740:Drivers/STM32U5xx_HAL_Driver/Src/stm32u5xx_ll_usb.c ****         USBx_HC((uint32_t)ch_num)->HCINTMSK |= USB_OTG_HCINTMSK_BBERRM;
1741:Drivers/STM32U5xx_HAL_Driver/Src/stm32u5xx_ll_usb.c ****       }
1742:Drivers/STM32U5xx_HAL_Driver/Src/stm32u5xx_ll_usb.c **** 
1743:Drivers/STM32U5xx_HAL_Driver/Src/stm32u5xx_ll_usb.c ****       break;
1744:Drivers/STM32U5xx_HAL_Driver/Src/stm32u5xx_ll_usb.c **** 
1745:Drivers/STM32U5xx_HAL_Driver/Src/stm32u5xx_ll_usb.c ****     case EP_TYPE_ISOC:
1746:Drivers/STM32U5xx_HAL_Driver/Src/stm32u5xx_ll_usb.c ****       USBx_HC((uint32_t)ch_num)->HCINTMSK = USB_OTG_HCINTMSK_XFRCM  |
1747:Drivers/STM32U5xx_HAL_Driver/Src/stm32u5xx_ll_usb.c ****                                             USB_OTG_HCINTMSK_ACKM   |
1748:Drivers/STM32U5xx_HAL_Driver/Src/stm32u5xx_ll_usb.c ****                                             USB_OTG_HCINTMSK_AHBERR |
1749:Drivers/STM32U5xx_HAL_Driver/Src/stm32u5xx_ll_usb.c ****                                             USB_OTG_HCINTMSK_FRMORM;
1750:Drivers/STM32U5xx_HAL_Driver/Src/stm32u5xx_ll_usb.c **** 
1751:Drivers/STM32U5xx_HAL_Driver/Src/stm32u5xx_ll_usb.c ****       if ((epnum & 0x80U) == 0x80U)
1752:Drivers/STM32U5xx_HAL_Driver/Src/stm32u5xx_ll_usb.c ****       {
1753:Drivers/STM32U5xx_HAL_Driver/Src/stm32u5xx_ll_usb.c ****         USBx_HC((uint32_t)ch_num)->HCINTMSK |= (USB_OTG_HCINTMSK_TXERRM | USB_OTG_HCINTMSK_BBERRM);
1754:Drivers/STM32U5xx_HAL_Driver/Src/stm32u5xx_ll_usb.c ****       }
1755:Drivers/STM32U5xx_HAL_Driver/Src/stm32u5xx_ll_usb.c ****       break;
1756:Drivers/STM32U5xx_HAL_Driver/Src/stm32u5xx_ll_usb.c **** 
1757:Drivers/STM32U5xx_HAL_Driver/Src/stm32u5xx_ll_usb.c ****     default:
1758:Drivers/STM32U5xx_HAL_Driver/Src/stm32u5xx_ll_usb.c ****       ret = HAL_ERROR;
1759:Drivers/STM32U5xx_HAL_Driver/Src/stm32u5xx_ll_usb.c ****       break;
1760:Drivers/STM32U5xx_HAL_Driver/Src/stm32u5xx_ll_usb.c ****   }
1761:Drivers/STM32U5xx_HAL_Driver/Src/stm32u5xx_ll_usb.c **** 
1762:Drivers/STM32U5xx_HAL_Driver/Src/stm32u5xx_ll_usb.c ****   /* Clear Hub Start Split transaction */
1763:Drivers/STM32U5xx_HAL_Driver/Src/stm32u5xx_ll_usb.c ****   USBx_HC((uint32_t)ch_num)->HCSPLT = 0U;
 4035              		.loc 1 1763 3 is_stmt 1 view .LVU1290
 4036              		.loc 1 1763 37 is_stmt 0 view .LVU1291
 4037 0060 0022     		movs	r2, #0
 4038 0062 5A60     		str	r2, [r3, #4]
1764:Drivers/STM32U5xx_HAL_Driver/Src/stm32u5xx_ll_usb.c **** 
1765:Drivers/STM32U5xx_HAL_Driver/Src/stm32u5xx_ll_usb.c ****   /* Enable host channel Halt interrupt */
1766:Drivers/STM32U5xx_HAL_Driver/Src/stm32u5xx_ll_usb.c ****   USBx_HC((uint32_t)ch_num)->HCINTMSK |= USB_OTG_HCINTMSK_CHHM;
 4039              		.loc 1 1766 3 is_stmt 1 view .LVU1292
 4040              		.loc 1 1766 39 is_stmt 0 view .LVU1293
 4041 0064 DA68     		ldr	r2, [r3, #12]
 4042 0066 42F00202 		orr	r2, r2, #2
 4043 006a DA60     		str	r2, [r3, #12]
1767:Drivers/STM32U5xx_HAL_Driver/Src/stm32u5xx_ll_usb.c **** 
1768:Drivers/STM32U5xx_HAL_Driver/Src/stm32u5xx_ll_usb.c ****   /* Enable the top level host channel interrupt. */
1769:Drivers/STM32U5xx_HAL_Driver/Src/stm32u5xx_ll_usb.c ****   USBx_HOST->HAINTMSK |= 1UL << (ch_num & 0xFU);
 4044              		.loc 1 1769 3 is_stmt 1 view .LVU1294
 4045              		.loc 1 1769 23 is_stmt 0 view .LVU1295
 4046 006c D0F81834 		ldr	r3, [r0, #1048]
 4047              		.loc 1 1769 41 view .LVU1296
 4048 0070 01F00F01 		and	r1, r1, #15
 4049              	.LVL323:
 4050              		.loc 1 1769 30 view .LVU1297
 4051 0074 0122     		movs	r2, #1
 4052 0076 02FA01F1 		lsl	r1, r2, r1
 4053              		.loc 1 1769 23 view .LVU1298
 4054 007a 1943     		orrs	r1, r1, r3
 4055 007c C0F81814 		str	r1, [r0, #1048]
1770:Drivers/STM32U5xx_HAL_Driver/Src/stm32u5xx_ll_usb.c **** 
1771:Drivers/STM32U5xx_HAL_Driver/Src/stm32u5xx_ll_usb.c ****   /* Make sure host channel interrupts are enabled. */
1772:Drivers/STM32U5xx_HAL_Driver/Src/stm32u5xx_ll_usb.c ****   USBx->GINTMSK |= USB_OTG_GINTMSK_HCIM;
 4056              		.loc 1 1772 3 is_stmt 1 view .LVU1299
 4057              		.loc 1 1772 17 is_stmt 0 view .LVU1300
ARM GAS  /tmp/cc0vokHo.s 			page 121


 4058 0080 8369     		ldr	r3, [r0, #24]
 4059 0082 43F00073 		orr	r3, r3, #33554432
 4060 0086 8361     		str	r3, [r0, #24]
1773:Drivers/STM32U5xx_HAL_Driver/Src/stm32u5xx_ll_usb.c **** 
1774:Drivers/STM32U5xx_HAL_Driver/Src/stm32u5xx_ll_usb.c ****   /* Program the HCCHAR register */
1775:Drivers/STM32U5xx_HAL_Driver/Src/stm32u5xx_ll_usb.c ****   if ((epnum & 0x80U) == 0x80U)
 4061              		.loc 1 1775 3 is_stmt 1 view .LVU1301
 4062              		.loc 1 1775 6 is_stmt 0 view .LVU1302
 4063 0088 19F0800F 		tst	r9, #128
 4064 008c 46D1     		bne	.L271
1776:Drivers/STM32U5xx_HAL_Driver/Src/stm32u5xx_ll_usb.c ****   {
1777:Drivers/STM32U5xx_HAL_Driver/Src/stm32u5xx_ll_usb.c ****     HCcharEpDir = (0x1U << 15) & USB_OTG_HCCHAR_EPDIR;
1778:Drivers/STM32U5xx_HAL_Driver/Src/stm32u5xx_ll_usb.c ****   }
1779:Drivers/STM32U5xx_HAL_Driver/Src/stm32u5xx_ll_usb.c ****   else
1780:Drivers/STM32U5xx_HAL_Driver/Src/stm32u5xx_ll_usb.c ****   {
1781:Drivers/STM32U5xx_HAL_Driver/Src/stm32u5xx_ll_usb.c ****     HCcharEpDir = 0U;
 4065              		.loc 1 1781 17 view .LVU1303
 4066 008e 4FF00008 		mov	r8, #0
 4067              	.L257:
 4068              	.LVL324:
1782:Drivers/STM32U5xx_HAL_Driver/Src/stm32u5xx_ll_usb.c ****   }
1783:Drivers/STM32U5xx_HAL_Driver/Src/stm32u5xx_ll_usb.c **** 
1784:Drivers/STM32U5xx_HAL_Driver/Src/stm32u5xx_ll_usb.c ****   HostCoreSpeed = USB_GetHostSpeed(USBx);
 4069              		.loc 1 1784 3 is_stmt 1 view .LVU1304
 4070              		.loc 1 1784 19 is_stmt 0 view .LVU1305
 4071 0092 FFF7FEFF 		bl	USB_GetHostSpeed
 4072              	.LVL325:
1785:Drivers/STM32U5xx_HAL_Driver/Src/stm32u5xx_ll_usb.c **** 
1786:Drivers/STM32U5xx_HAL_Driver/Src/stm32u5xx_ll_usb.c ****   /* LS device plugged to HUB */
1787:Drivers/STM32U5xx_HAL_Driver/Src/stm32u5xx_ll_usb.c ****   if ((speed == HPRT0_PRTSPD_LOW_SPEED) && (HostCoreSpeed != HPRT0_PRTSPD_LOW_SPEED))
 4073              		.loc 1 1787 3 is_stmt 1 view .LVU1306
 4074              		.loc 1 1787 6 is_stmt 0 view .LVU1307
 4075 0096 9DF82030 		ldrb	r3, [sp, #32]	@ zero_extendqisi2
 4076 009a 022B     		cmp	r3, #2
 4077 009c 41D0     		beq	.L272
1788:Drivers/STM32U5xx_HAL_Driver/Src/stm32u5xx_ll_usb.c ****   {
1789:Drivers/STM32U5xx_HAL_Driver/Src/stm32u5xx_ll_usb.c ****     HCcharLowSpeed = (0x1U << 17) & USB_OTG_HCCHAR_LSDEV;
1790:Drivers/STM32U5xx_HAL_Driver/Src/stm32u5xx_ll_usb.c ****   }
1791:Drivers/STM32U5xx_HAL_Driver/Src/stm32u5xx_ll_usb.c ****   else
1792:Drivers/STM32U5xx_HAL_Driver/Src/stm32u5xx_ll_usb.c ****   {
1793:Drivers/STM32U5xx_HAL_Driver/Src/stm32u5xx_ll_usb.c ****     HCcharLowSpeed = 0U;
 4078              		.loc 1 1793 20 view .LVU1308
 4079 009e 0021     		movs	r1, #0
 4080              	.L258:
 4081              	.LVL326:
1794:Drivers/STM32U5xx_HAL_Driver/Src/stm32u5xx_ll_usb.c ****   }
1795:Drivers/STM32U5xx_HAL_Driver/Src/stm32u5xx_ll_usb.c **** 
1796:Drivers/STM32U5xx_HAL_Driver/Src/stm32u5xx_ll_usb.c ****   USBx_HC((uint32_t)ch_num)->HCCHAR = (((uint32_t)dev_address << 22) & USB_OTG_HCCHAR_DAD) |
 4082              		.loc 1 1796 3 is_stmt 1 view .LVU1309
 4083              		.loc 1 1796 63 is_stmt 0 view .LVU1310
 4084 00a0 A305     		lsls	r3, r4, #22
 4085              		.loc 1 1796 70 view .LVU1311
 4086 00a2 03F0FE53 		and	r3, r3, #532676608
1797:Drivers/STM32U5xx_HAL_Driver/Src/stm32u5xx_ll_usb.c ****                                       ((((uint32_t)epnum & 0x7FU) << 11) & USB_OTG_HCCHAR_EPNUM) |
 4087              		.loc 1 1797 67 view .LVU1312
 4088 00a6 4FEAC929 		lsl	r9, r9, #11
 4089              		.loc 1 1797 74 view .LVU1313
ARM GAS  /tmp/cc0vokHo.s 			page 122


 4090 00aa 09F4F049 		and	r9, r9, #30720
1796:Drivers/STM32U5xx_HAL_Driver/Src/stm32u5xx_ll_usb.c ****                                       ((((uint32_t)epnum & 0x7FU) << 11) & USB_OTG_HCCHAR_EPNUM) |
 4091              		.loc 1 1796 92 view .LVU1314
 4092 00ae 43EA0903 		orr	r3, r3, r9
1798:Drivers/STM32U5xx_HAL_Driver/Src/stm32u5xx_ll_usb.c ****                                       (((uint32_t)ep_type << 18) & USB_OTG_HCCHAR_EPTYP) |
 4093              		.loc 1 1798 59 view .LVU1315
 4094 00b2 AC04     		lsls	r4, r5, #18
 4095              		.loc 1 1798 66 view .LVU1316
 4096 00b4 04F44024 		and	r4, r4, #786432
1797:Drivers/STM32U5xx_HAL_Driver/Src/stm32u5xx_ll_usb.c ****                                       ((((uint32_t)epnum & 0x7FU) << 11) & USB_OTG_HCCHAR_EPNUM) |
 4097              		.loc 1 1797 98 view .LVU1317
 4098 00b8 2343     		orrs	r3, r3, r4
1799:Drivers/STM32U5xx_HAL_Driver/Src/stm32u5xx_ll_usb.c ****                                       ((uint32_t)mps & USB_OTG_HCCHAR_MPSIZ) |
 4099              		.loc 1 1799 54 view .LVU1318
 4100 00ba BDF82820 		ldrh	r2, [sp, #40]
 4101 00be C2F30A02 		ubfx	r2, r2, #0, #11
1798:Drivers/STM32U5xx_HAL_Driver/Src/stm32u5xx_ll_usb.c ****                                       (((uint32_t)ep_type << 18) & USB_OTG_HCCHAR_EPTYP) |
 4102              		.loc 1 1798 90 view .LVU1319
 4103 00c2 1343     		orrs	r3, r3, r2
1800:Drivers/STM32U5xx_HAL_Driver/Src/stm32u5xx_ll_usb.c ****                                       USB_OTG_HCCHAR_MC_0 | HCcharEpDir | HCcharLowSpeed;
 4104              		.loc 1 1800 59 view .LVU1320
 4105 00c4 43EA0803 		orr	r3, r3, r8
 4106              		.loc 1 1800 73 view .LVU1321
 4107 00c8 0B43     		orrs	r3, r3, r1
 4108 00ca 43F48013 		orr	r3, r3, #1048576
1796:Drivers/STM32U5xx_HAL_Driver/Src/stm32u5xx_ll_usb.c ****                                       ((((uint32_t)epnum & 0x7FU) << 11) & USB_OTG_HCCHAR_EPNUM) |
 4109              		.loc 1 1796 37 view .LVU1322
 4110 00ce C6F80035 		str	r3, [r6, #1280]
1801:Drivers/STM32U5xx_HAL_Driver/Src/stm32u5xx_ll_usb.c **** 
1802:Drivers/STM32U5xx_HAL_Driver/Src/stm32u5xx_ll_usb.c ****   if ((ep_type == EP_TYPE_INTR) || (ep_type == EP_TYPE_ISOC))
 4111              		.loc 1 1802 3 is_stmt 1 view .LVU1323
 4112              		.loc 1 1802 6 is_stmt 0 view .LVU1324
 4113 00d2 032D     		cmp	r5, #3
 4114 00d4 01D0     		beq	.L259
 4115              		.loc 1 1802 33 discriminator 1 view .LVU1325
 4116 00d6 012D     		cmp	r5, #1
 4117 00d8 05D1     		bne	.L260
 4118              	.L259:
1803:Drivers/STM32U5xx_HAL_Driver/Src/stm32u5xx_ll_usb.c ****   {
1804:Drivers/STM32U5xx_HAL_Driver/Src/stm32u5xx_ll_usb.c ****     USBx_HC((uint32_t)ch_num)->HCCHAR |= USB_OTG_HCCHAR_ODDFRM;
 4119              		.loc 1 1804 5 is_stmt 1 view .LVU1326
 4120              		.loc 1 1804 39 is_stmt 0 view .LVU1327
 4121 00da D6F80035 		ldr	r3, [r6, #1280]
 4122 00de 43F00053 		orr	r3, r3, #536870912
 4123 00e2 C6F80035 		str	r3, [r6, #1280]
 4124              	.L260:
1805:Drivers/STM32U5xx_HAL_Driver/Src/stm32u5xx_ll_usb.c ****   }
1806:Drivers/STM32U5xx_HAL_Driver/Src/stm32u5xx_ll_usb.c **** 
1807:Drivers/STM32U5xx_HAL_Driver/Src/stm32u5xx_ll_usb.c ****   return ret;
 4125              		.loc 1 1807 3 is_stmt 1 view .LVU1328
1808:Drivers/STM32U5xx_HAL_Driver/Src/stm32u5xx_ll_usb.c **** }
 4126              		.loc 1 1808 1 is_stmt 0 view .LVU1329
 4127 00e6 3846     		mov	r0, r7
 4128              	.LVL327:
 4129              		.loc 1 1808 1 view .LVU1330
 4130 00e8 BDE8F883 		pop	{r3, r4, r5, r6, r7, r8, r9, pc}
 4131              	.LVL328:
ARM GAS  /tmp/cc0vokHo.s 			page 123


 4132              	.L270:
1740:Drivers/STM32U5xx_HAL_Driver/Src/stm32u5xx_ll_usb.c ****       }
 4133              		.loc 1 1740 9 is_stmt 1 view .LVU1331
1740:Drivers/STM32U5xx_HAL_Driver/Src/stm32u5xx_ll_usb.c ****       }
 4134              		.loc 1 1740 45 is_stmt 0 view .LVU1332
 4135 00ec DA68     		ldr	r2, [r3, #12]
 4136 00ee 42F48072 		orr	r2, r2, #256
 4137 00f2 DA60     		str	r2, [r3, #12]
1694:Drivers/STM32U5xx_HAL_Driver/Src/stm32u5xx_ll_usb.c ****   uint32_t USBx_BASE = (uint32_t)USBx;
 4138              		.loc 1 1694 21 view .LVU1333
 4139 00f4 0027     		movs	r7, #0
 4140 00f6 B3E7     		b	.L251
 4141              	.L255:
1746:Drivers/STM32U5xx_HAL_Driver/Src/stm32u5xx_ll_usb.c ****                                             USB_OTG_HCINTMSK_ACKM   |
 4142              		.loc 1 1746 7 is_stmt 1 view .LVU1334
1746:Drivers/STM32U5xx_HAL_Driver/Src/stm32u5xx_ll_usb.c ****                                             USB_OTG_HCINTMSK_ACKM   |
 4143              		.loc 1 1746 43 is_stmt 0 view .LVU1335
 4144 00f8 40F22522 		movw	r2, #549
 4145 00fc DA60     		str	r2, [r3, #12]
1751:Drivers/STM32U5xx_HAL_Driver/Src/stm32u5xx_ll_usb.c ****       {
 4146              		.loc 1 1751 7 is_stmt 1 view .LVU1336
1751:Drivers/STM32U5xx_HAL_Driver/Src/stm32u5xx_ll_usb.c ****       {
 4147              		.loc 1 1751 10 is_stmt 0 view .LVU1337
 4148 00fe 19F0800F 		tst	r9, #128
 4149 0102 01D1     		bne	.L273
1694:Drivers/STM32U5xx_HAL_Driver/Src/stm32u5xx_ll_usb.c ****   uint32_t USBx_BASE = (uint32_t)USBx;
 4150              		.loc 1 1694 21 view .LVU1338
 4151 0104 0027     		movs	r7, #0
 4152 0106 ABE7     		b	.L251
 4153              	.L273:
1753:Drivers/STM32U5xx_HAL_Driver/Src/stm32u5xx_ll_usb.c ****       }
 4154              		.loc 1 1753 9 is_stmt 1 view .LVU1339
1753:Drivers/STM32U5xx_HAL_Driver/Src/stm32u5xx_ll_usb.c ****       }
 4155              		.loc 1 1753 45 is_stmt 0 view .LVU1340
 4156 0108 DA68     		ldr	r2, [r3, #12]
 4157 010a 42F4C072 		orr	r2, r2, #384
 4158 010e DA60     		str	r2, [r3, #12]
1694:Drivers/STM32U5xx_HAL_Driver/Src/stm32u5xx_ll_usb.c ****   uint32_t USBx_BASE = (uint32_t)USBx;
 4159              		.loc 1 1694 21 view .LVU1341
 4160 0110 0027     		movs	r7, #0
 4161 0112 A5E7     		b	.L251
 4162              	.L261:
1704:Drivers/STM32U5xx_HAL_Driver/Src/stm32u5xx_ll_usb.c ****   {
 4163              		.loc 1 1704 3 view .LVU1342
 4164 0114 0127     		movs	r7, #1
 4165 0116 A3E7     		b	.L251
 4166              	.L262:
1694:Drivers/STM32U5xx_HAL_Driver/Src/stm32u5xx_ll_usb.c ****   uint32_t USBx_BASE = (uint32_t)USBx;
 4167              		.loc 1 1694 21 view .LVU1343
 4168 0118 0027     		movs	r7, #0
 4169 011a A1E7     		b	.L251
 4170              	.LVL329:
 4171              	.L271:
1777:Drivers/STM32U5xx_HAL_Driver/Src/stm32u5xx_ll_usb.c ****   }
 4172              		.loc 1 1777 17 view .LVU1344
 4173 011c 4FF40048 		mov	r8, #32768
 4174 0120 B7E7     		b	.L257
ARM GAS  /tmp/cc0vokHo.s 			page 124


 4175              	.LVL330:
 4176              	.L272:
1787:Drivers/STM32U5xx_HAL_Driver/Src/stm32u5xx_ll_usb.c ****   {
 4177              		.loc 1 1787 41 discriminator 1 view .LVU1345
 4178 0122 0228     		cmp	r0, #2
 4179 0124 02D0     		beq	.L274
1789:Drivers/STM32U5xx_HAL_Driver/Src/stm32u5xx_ll_usb.c ****   }
 4180              		.loc 1 1789 20 view .LVU1346
 4181 0126 4FF40031 		mov	r1, #131072
 4182 012a B9E7     		b	.L258
 4183              	.L274:
1793:Drivers/STM32U5xx_HAL_Driver/Src/stm32u5xx_ll_usb.c ****   }
 4184              		.loc 1 1793 20 view .LVU1347
 4185 012c 0021     		movs	r1, #0
 4186 012e B7E7     		b	.L258
 4187              		.cfi_endproc
 4188              	.LFE386:
 4190              		.section	.text.USB_HC_ReadInterrupt,"ax",%progbits
 4191              		.align	1
 4192              		.global	USB_HC_ReadInterrupt
 4193              		.syntax unified
 4194              		.thumb
 4195              		.thumb_func
 4197              	USB_HC_ReadInterrupt:
 4198              	.LVL331:
 4199              	.LFB388:
1809:Drivers/STM32U5xx_HAL_Driver/Src/stm32u5xx_ll_usb.c **** 
1810:Drivers/STM32U5xx_HAL_Driver/Src/stm32u5xx_ll_usb.c **** /**
1811:Drivers/STM32U5xx_HAL_Driver/Src/stm32u5xx_ll_usb.c ****   * @brief  Start a transfer over a host channel
1812:Drivers/STM32U5xx_HAL_Driver/Src/stm32u5xx_ll_usb.c ****   * @param  USBx  Selected device
1813:Drivers/STM32U5xx_HAL_Driver/Src/stm32u5xx_ll_usb.c ****   * @param  hc  pointer to host channel structure
1814:Drivers/STM32U5xx_HAL_Driver/Src/stm32u5xx_ll_usb.c ****   * @param  dma USB dma enabled or disabled
1815:Drivers/STM32U5xx_HAL_Driver/Src/stm32u5xx_ll_usb.c ****   *          This parameter can be one of these values:
1816:Drivers/STM32U5xx_HAL_Driver/Src/stm32u5xx_ll_usb.c ****   *           0 : DMA feature not used
1817:Drivers/STM32U5xx_HAL_Driver/Src/stm32u5xx_ll_usb.c ****   *           1 : DMA feature used
1818:Drivers/STM32U5xx_HAL_Driver/Src/stm32u5xx_ll_usb.c ****   * @retval HAL state
1819:Drivers/STM32U5xx_HAL_Driver/Src/stm32u5xx_ll_usb.c ****   */
1820:Drivers/STM32U5xx_HAL_Driver/Src/stm32u5xx_ll_usb.c **** HAL_StatusTypeDef USB_HC_StartXfer(USB_OTG_GlobalTypeDef *USBx, USB_OTG_HCTypeDef *hc, uint8_t dma)
1821:Drivers/STM32U5xx_HAL_Driver/Src/stm32u5xx_ll_usb.c **** {
1822:Drivers/STM32U5xx_HAL_Driver/Src/stm32u5xx_ll_usb.c ****   uint32_t USBx_BASE = (uint32_t)USBx;
1823:Drivers/STM32U5xx_HAL_Driver/Src/stm32u5xx_ll_usb.c ****   uint32_t ch_num = (uint32_t)hc->ch_num;
1824:Drivers/STM32U5xx_HAL_Driver/Src/stm32u5xx_ll_usb.c ****   __IO uint32_t tmpreg;
1825:Drivers/STM32U5xx_HAL_Driver/Src/stm32u5xx_ll_usb.c ****   uint8_t  is_oddframe;
1826:Drivers/STM32U5xx_HAL_Driver/Src/stm32u5xx_ll_usb.c ****   uint16_t len_words;
1827:Drivers/STM32U5xx_HAL_Driver/Src/stm32u5xx_ll_usb.c ****   uint16_t num_packets;
1828:Drivers/STM32U5xx_HAL_Driver/Src/stm32u5xx_ll_usb.c ****   uint16_t max_hc_pkt_count = HC_MAX_PKT_CNT;
1829:Drivers/STM32U5xx_HAL_Driver/Src/stm32u5xx_ll_usb.c **** 
1830:Drivers/STM32U5xx_HAL_Driver/Src/stm32u5xx_ll_usb.c ****   if ((USBx->CID & (0x1U << 14)) != 0U)
1831:Drivers/STM32U5xx_HAL_Driver/Src/stm32u5xx_ll_usb.c ****   {
1832:Drivers/STM32U5xx_HAL_Driver/Src/stm32u5xx_ll_usb.c ****     /* in DMA mode host Core automatically issues ping in case of NYET/NAK */
1833:Drivers/STM32U5xx_HAL_Driver/Src/stm32u5xx_ll_usb.c ****     if (dma == 1U)
1834:Drivers/STM32U5xx_HAL_Driver/Src/stm32u5xx_ll_usb.c ****     {
1835:Drivers/STM32U5xx_HAL_Driver/Src/stm32u5xx_ll_usb.c ****       if ((hc->ep_type == EP_TYPE_CTRL) || (hc->ep_type == EP_TYPE_BULK))
1836:Drivers/STM32U5xx_HAL_Driver/Src/stm32u5xx_ll_usb.c ****       {
1837:Drivers/STM32U5xx_HAL_Driver/Src/stm32u5xx_ll_usb.c **** 
1838:Drivers/STM32U5xx_HAL_Driver/Src/stm32u5xx_ll_usb.c ****         USBx_HC((uint32_t)ch_num)->HCINTMSK &= ~(USB_OTG_HCINTMSK_NYET |
1839:Drivers/STM32U5xx_HAL_Driver/Src/stm32u5xx_ll_usb.c ****                                                  USB_OTG_HCINTMSK_ACKM |
ARM GAS  /tmp/cc0vokHo.s 			page 125


1840:Drivers/STM32U5xx_HAL_Driver/Src/stm32u5xx_ll_usb.c ****                                                  USB_OTG_HCINTMSK_NAKM);
1841:Drivers/STM32U5xx_HAL_Driver/Src/stm32u5xx_ll_usb.c ****       }
1842:Drivers/STM32U5xx_HAL_Driver/Src/stm32u5xx_ll_usb.c ****     }
1843:Drivers/STM32U5xx_HAL_Driver/Src/stm32u5xx_ll_usb.c ****     else
1844:Drivers/STM32U5xx_HAL_Driver/Src/stm32u5xx_ll_usb.c ****     {
1845:Drivers/STM32U5xx_HAL_Driver/Src/stm32u5xx_ll_usb.c ****       if ((hc->speed == USBH_HS_SPEED) && (hc->do_ping == 1U))
1846:Drivers/STM32U5xx_HAL_Driver/Src/stm32u5xx_ll_usb.c ****       {
1847:Drivers/STM32U5xx_HAL_Driver/Src/stm32u5xx_ll_usb.c ****         (void)USB_DoPing(USBx, hc->ch_num);
1848:Drivers/STM32U5xx_HAL_Driver/Src/stm32u5xx_ll_usb.c ****         return HAL_OK;
1849:Drivers/STM32U5xx_HAL_Driver/Src/stm32u5xx_ll_usb.c ****       }
1850:Drivers/STM32U5xx_HAL_Driver/Src/stm32u5xx_ll_usb.c ****     }
1851:Drivers/STM32U5xx_HAL_Driver/Src/stm32u5xx_ll_usb.c ****   }
1852:Drivers/STM32U5xx_HAL_Driver/Src/stm32u5xx_ll_usb.c **** 
1853:Drivers/STM32U5xx_HAL_Driver/Src/stm32u5xx_ll_usb.c ****   if (hc->do_ssplit == 1U)
1854:Drivers/STM32U5xx_HAL_Driver/Src/stm32u5xx_ll_usb.c ****   {
1855:Drivers/STM32U5xx_HAL_Driver/Src/stm32u5xx_ll_usb.c ****     /* Set number of packet to 1 for Split transaction */
1856:Drivers/STM32U5xx_HAL_Driver/Src/stm32u5xx_ll_usb.c ****     num_packets = 1U;
1857:Drivers/STM32U5xx_HAL_Driver/Src/stm32u5xx_ll_usb.c **** 
1858:Drivers/STM32U5xx_HAL_Driver/Src/stm32u5xx_ll_usb.c ****     if (hc->ep_is_in != 0U)
1859:Drivers/STM32U5xx_HAL_Driver/Src/stm32u5xx_ll_usb.c ****     {
1860:Drivers/STM32U5xx_HAL_Driver/Src/stm32u5xx_ll_usb.c ****       hc->XferSize = (uint32_t)num_packets * hc->max_packet;
1861:Drivers/STM32U5xx_HAL_Driver/Src/stm32u5xx_ll_usb.c ****     }
1862:Drivers/STM32U5xx_HAL_Driver/Src/stm32u5xx_ll_usb.c ****     else
1863:Drivers/STM32U5xx_HAL_Driver/Src/stm32u5xx_ll_usb.c ****     {
1864:Drivers/STM32U5xx_HAL_Driver/Src/stm32u5xx_ll_usb.c ****       if (hc->ep_type == EP_TYPE_ISOC)
1865:Drivers/STM32U5xx_HAL_Driver/Src/stm32u5xx_ll_usb.c ****       {
1866:Drivers/STM32U5xx_HAL_Driver/Src/stm32u5xx_ll_usb.c ****         if (hc->xfer_len > ISO_SPLT_MPS)
1867:Drivers/STM32U5xx_HAL_Driver/Src/stm32u5xx_ll_usb.c ****         {
1868:Drivers/STM32U5xx_HAL_Driver/Src/stm32u5xx_ll_usb.c ****           /* Isochrone Max Packet Size for Split mode */
1869:Drivers/STM32U5xx_HAL_Driver/Src/stm32u5xx_ll_usb.c ****           hc->XferSize = hc->max_packet;
1870:Drivers/STM32U5xx_HAL_Driver/Src/stm32u5xx_ll_usb.c ****           hc->xfer_len = hc->XferSize;
1871:Drivers/STM32U5xx_HAL_Driver/Src/stm32u5xx_ll_usb.c **** 
1872:Drivers/STM32U5xx_HAL_Driver/Src/stm32u5xx_ll_usb.c ****           if ((hc->iso_splt_xactPos == HCSPLT_BEGIN) || (hc->iso_splt_xactPos == HCSPLT_MIDDLE))
1873:Drivers/STM32U5xx_HAL_Driver/Src/stm32u5xx_ll_usb.c ****           {
1874:Drivers/STM32U5xx_HAL_Driver/Src/stm32u5xx_ll_usb.c ****             hc->iso_splt_xactPos = HCSPLT_MIDDLE;
1875:Drivers/STM32U5xx_HAL_Driver/Src/stm32u5xx_ll_usb.c ****           }
1876:Drivers/STM32U5xx_HAL_Driver/Src/stm32u5xx_ll_usb.c ****           else
1877:Drivers/STM32U5xx_HAL_Driver/Src/stm32u5xx_ll_usb.c ****           {
1878:Drivers/STM32U5xx_HAL_Driver/Src/stm32u5xx_ll_usb.c ****             hc->iso_splt_xactPos = HCSPLT_BEGIN;
1879:Drivers/STM32U5xx_HAL_Driver/Src/stm32u5xx_ll_usb.c ****           }
1880:Drivers/STM32U5xx_HAL_Driver/Src/stm32u5xx_ll_usb.c ****         }
1881:Drivers/STM32U5xx_HAL_Driver/Src/stm32u5xx_ll_usb.c ****         else
1882:Drivers/STM32U5xx_HAL_Driver/Src/stm32u5xx_ll_usb.c ****         {
1883:Drivers/STM32U5xx_HAL_Driver/Src/stm32u5xx_ll_usb.c ****           hc->XferSize = hc->xfer_len;
1884:Drivers/STM32U5xx_HAL_Driver/Src/stm32u5xx_ll_usb.c **** 
1885:Drivers/STM32U5xx_HAL_Driver/Src/stm32u5xx_ll_usb.c ****           if ((hc->iso_splt_xactPos != HCSPLT_BEGIN) && (hc->iso_splt_xactPos != HCSPLT_MIDDLE))
1886:Drivers/STM32U5xx_HAL_Driver/Src/stm32u5xx_ll_usb.c ****           {
1887:Drivers/STM32U5xx_HAL_Driver/Src/stm32u5xx_ll_usb.c ****             hc->iso_splt_xactPos = HCSPLT_FULL;
1888:Drivers/STM32U5xx_HAL_Driver/Src/stm32u5xx_ll_usb.c ****           }
1889:Drivers/STM32U5xx_HAL_Driver/Src/stm32u5xx_ll_usb.c ****           else
1890:Drivers/STM32U5xx_HAL_Driver/Src/stm32u5xx_ll_usb.c ****           {
1891:Drivers/STM32U5xx_HAL_Driver/Src/stm32u5xx_ll_usb.c ****             hc->iso_splt_xactPos = HCSPLT_END;
1892:Drivers/STM32U5xx_HAL_Driver/Src/stm32u5xx_ll_usb.c ****           }
1893:Drivers/STM32U5xx_HAL_Driver/Src/stm32u5xx_ll_usb.c ****         }
1894:Drivers/STM32U5xx_HAL_Driver/Src/stm32u5xx_ll_usb.c ****       }
1895:Drivers/STM32U5xx_HAL_Driver/Src/stm32u5xx_ll_usb.c ****       else
1896:Drivers/STM32U5xx_HAL_Driver/Src/stm32u5xx_ll_usb.c ****       {
ARM GAS  /tmp/cc0vokHo.s 			page 126


1897:Drivers/STM32U5xx_HAL_Driver/Src/stm32u5xx_ll_usb.c ****         if ((dma == 1U) && (hc->xfer_len > hc->max_packet))
1898:Drivers/STM32U5xx_HAL_Driver/Src/stm32u5xx_ll_usb.c ****         {
1899:Drivers/STM32U5xx_HAL_Driver/Src/stm32u5xx_ll_usb.c ****           hc->XferSize = (uint32_t)num_packets * hc->max_packet;
1900:Drivers/STM32U5xx_HAL_Driver/Src/stm32u5xx_ll_usb.c ****         }
1901:Drivers/STM32U5xx_HAL_Driver/Src/stm32u5xx_ll_usb.c ****         else
1902:Drivers/STM32U5xx_HAL_Driver/Src/stm32u5xx_ll_usb.c ****         {
1903:Drivers/STM32U5xx_HAL_Driver/Src/stm32u5xx_ll_usb.c ****           hc->XferSize = hc->xfer_len;
1904:Drivers/STM32U5xx_HAL_Driver/Src/stm32u5xx_ll_usb.c ****         }
1905:Drivers/STM32U5xx_HAL_Driver/Src/stm32u5xx_ll_usb.c ****       }
1906:Drivers/STM32U5xx_HAL_Driver/Src/stm32u5xx_ll_usb.c ****     }
1907:Drivers/STM32U5xx_HAL_Driver/Src/stm32u5xx_ll_usb.c ****   }
1908:Drivers/STM32U5xx_HAL_Driver/Src/stm32u5xx_ll_usb.c ****   else
1909:Drivers/STM32U5xx_HAL_Driver/Src/stm32u5xx_ll_usb.c ****   {
1910:Drivers/STM32U5xx_HAL_Driver/Src/stm32u5xx_ll_usb.c ****     /* Compute the expected number of packets associated to the transfer */
1911:Drivers/STM32U5xx_HAL_Driver/Src/stm32u5xx_ll_usb.c ****     if (hc->xfer_len > 0U)
1912:Drivers/STM32U5xx_HAL_Driver/Src/stm32u5xx_ll_usb.c ****     {
1913:Drivers/STM32U5xx_HAL_Driver/Src/stm32u5xx_ll_usb.c ****       num_packets = (uint16_t)((hc->xfer_len + hc->max_packet - 1U) / hc->max_packet);
1914:Drivers/STM32U5xx_HAL_Driver/Src/stm32u5xx_ll_usb.c **** 
1915:Drivers/STM32U5xx_HAL_Driver/Src/stm32u5xx_ll_usb.c ****       if (num_packets > max_hc_pkt_count)
1916:Drivers/STM32U5xx_HAL_Driver/Src/stm32u5xx_ll_usb.c ****       {
1917:Drivers/STM32U5xx_HAL_Driver/Src/stm32u5xx_ll_usb.c ****         num_packets = max_hc_pkt_count;
1918:Drivers/STM32U5xx_HAL_Driver/Src/stm32u5xx_ll_usb.c ****         hc->XferSize = (uint32_t)num_packets * hc->max_packet;
1919:Drivers/STM32U5xx_HAL_Driver/Src/stm32u5xx_ll_usb.c ****       }
1920:Drivers/STM32U5xx_HAL_Driver/Src/stm32u5xx_ll_usb.c ****     }
1921:Drivers/STM32U5xx_HAL_Driver/Src/stm32u5xx_ll_usb.c ****     else
1922:Drivers/STM32U5xx_HAL_Driver/Src/stm32u5xx_ll_usb.c ****     {
1923:Drivers/STM32U5xx_HAL_Driver/Src/stm32u5xx_ll_usb.c ****       num_packets = 1U;
1924:Drivers/STM32U5xx_HAL_Driver/Src/stm32u5xx_ll_usb.c ****     }
1925:Drivers/STM32U5xx_HAL_Driver/Src/stm32u5xx_ll_usb.c **** 
1926:Drivers/STM32U5xx_HAL_Driver/Src/stm32u5xx_ll_usb.c ****     /*
1927:Drivers/STM32U5xx_HAL_Driver/Src/stm32u5xx_ll_usb.c ****     * For IN channel HCTSIZ.XferSize is expected to be an integer multiple of
1928:Drivers/STM32U5xx_HAL_Driver/Src/stm32u5xx_ll_usb.c ****     * max_packet size.
1929:Drivers/STM32U5xx_HAL_Driver/Src/stm32u5xx_ll_usb.c ****     */
1930:Drivers/STM32U5xx_HAL_Driver/Src/stm32u5xx_ll_usb.c ****     if (hc->ep_is_in != 0U)
1931:Drivers/STM32U5xx_HAL_Driver/Src/stm32u5xx_ll_usb.c ****     {
1932:Drivers/STM32U5xx_HAL_Driver/Src/stm32u5xx_ll_usb.c ****       hc->XferSize = (uint32_t)num_packets * hc->max_packet;
1933:Drivers/STM32U5xx_HAL_Driver/Src/stm32u5xx_ll_usb.c ****     }
1934:Drivers/STM32U5xx_HAL_Driver/Src/stm32u5xx_ll_usb.c ****     else
1935:Drivers/STM32U5xx_HAL_Driver/Src/stm32u5xx_ll_usb.c ****     {
1936:Drivers/STM32U5xx_HAL_Driver/Src/stm32u5xx_ll_usb.c ****       hc->XferSize = hc->xfer_len;
1937:Drivers/STM32U5xx_HAL_Driver/Src/stm32u5xx_ll_usb.c ****     }
1938:Drivers/STM32U5xx_HAL_Driver/Src/stm32u5xx_ll_usb.c ****   }
1939:Drivers/STM32U5xx_HAL_Driver/Src/stm32u5xx_ll_usb.c **** 
1940:Drivers/STM32U5xx_HAL_Driver/Src/stm32u5xx_ll_usb.c ****   /* Initialize the HCTSIZn register */
1941:Drivers/STM32U5xx_HAL_Driver/Src/stm32u5xx_ll_usb.c ****   USBx_HC(ch_num)->HCTSIZ = (hc->XferSize & USB_OTG_HCTSIZ_XFRSIZ) |
1942:Drivers/STM32U5xx_HAL_Driver/Src/stm32u5xx_ll_usb.c ****                             (((uint32_t)num_packets << 19) & USB_OTG_HCTSIZ_PKTCNT) |
1943:Drivers/STM32U5xx_HAL_Driver/Src/stm32u5xx_ll_usb.c ****                             (((uint32_t)hc->data_pid << 29) & USB_OTG_HCTSIZ_DPID);
1944:Drivers/STM32U5xx_HAL_Driver/Src/stm32u5xx_ll_usb.c **** 
1945:Drivers/STM32U5xx_HAL_Driver/Src/stm32u5xx_ll_usb.c ****   if (dma != 0U)
1946:Drivers/STM32U5xx_HAL_Driver/Src/stm32u5xx_ll_usb.c ****   {
1947:Drivers/STM32U5xx_HAL_Driver/Src/stm32u5xx_ll_usb.c ****     /* xfer_buff MUST be 32-bits aligned */
1948:Drivers/STM32U5xx_HAL_Driver/Src/stm32u5xx_ll_usb.c ****     USBx_HC(ch_num)->HCDMA = (uint32_t)hc->xfer_buff;
1949:Drivers/STM32U5xx_HAL_Driver/Src/stm32u5xx_ll_usb.c ****   }
1950:Drivers/STM32U5xx_HAL_Driver/Src/stm32u5xx_ll_usb.c **** 
1951:Drivers/STM32U5xx_HAL_Driver/Src/stm32u5xx_ll_usb.c ****   is_oddframe = (((uint32_t)USBx_HOST->HFNUM & 0x01U) != 0U) ? 0U : 1U;
1952:Drivers/STM32U5xx_HAL_Driver/Src/stm32u5xx_ll_usb.c ****   USBx_HC(ch_num)->HCCHAR &= ~USB_OTG_HCCHAR_ODDFRM;
1953:Drivers/STM32U5xx_HAL_Driver/Src/stm32u5xx_ll_usb.c ****   USBx_HC(ch_num)->HCCHAR |= (uint32_t)is_oddframe << 29;
ARM GAS  /tmp/cc0vokHo.s 			page 127


1954:Drivers/STM32U5xx_HAL_Driver/Src/stm32u5xx_ll_usb.c **** 
1955:Drivers/STM32U5xx_HAL_Driver/Src/stm32u5xx_ll_usb.c ****   if (hc->do_ssplit == 1U)
1956:Drivers/STM32U5xx_HAL_Driver/Src/stm32u5xx_ll_usb.c ****   {
1957:Drivers/STM32U5xx_HAL_Driver/Src/stm32u5xx_ll_usb.c ****     /* Set Hub start Split transaction */
1958:Drivers/STM32U5xx_HAL_Driver/Src/stm32u5xx_ll_usb.c ****     USBx_HC((uint32_t)ch_num)->HCSPLT = ((uint32_t)hc->hub_addr << USB_OTG_HCSPLT_HUBADDR_Pos) |
1959:Drivers/STM32U5xx_HAL_Driver/Src/stm32u5xx_ll_usb.c ****                                         (uint32_t)hc->hub_port_nbr | USB_OTG_HCSPLT_SPLITEN;
1960:Drivers/STM32U5xx_HAL_Driver/Src/stm32u5xx_ll_usb.c **** 
1961:Drivers/STM32U5xx_HAL_Driver/Src/stm32u5xx_ll_usb.c ****     /* unmask ack & nyet for IN/OUT transactions */
1962:Drivers/STM32U5xx_HAL_Driver/Src/stm32u5xx_ll_usb.c ****     USBx_HC((uint32_t)ch_num)->HCINTMSK |= (USB_OTG_HCINTMSK_ACKM |
1963:Drivers/STM32U5xx_HAL_Driver/Src/stm32u5xx_ll_usb.c ****                                             USB_OTG_HCINTMSK_NYET);
1964:Drivers/STM32U5xx_HAL_Driver/Src/stm32u5xx_ll_usb.c **** 
1965:Drivers/STM32U5xx_HAL_Driver/Src/stm32u5xx_ll_usb.c ****     if ((hc->do_csplit == 1U) && (hc->ep_is_in == 0U))
1966:Drivers/STM32U5xx_HAL_Driver/Src/stm32u5xx_ll_usb.c ****     {
1967:Drivers/STM32U5xx_HAL_Driver/Src/stm32u5xx_ll_usb.c ****       USBx_HC((uint32_t)ch_num)->HCSPLT |= USB_OTG_HCSPLT_COMPLSPLT;
1968:Drivers/STM32U5xx_HAL_Driver/Src/stm32u5xx_ll_usb.c ****       USBx_HC((uint32_t)ch_num)->HCINTMSK |= USB_OTG_HCINTMSK_NYET;
1969:Drivers/STM32U5xx_HAL_Driver/Src/stm32u5xx_ll_usb.c ****     }
1970:Drivers/STM32U5xx_HAL_Driver/Src/stm32u5xx_ll_usb.c **** 
1971:Drivers/STM32U5xx_HAL_Driver/Src/stm32u5xx_ll_usb.c ****     if (((hc->ep_type == EP_TYPE_ISOC) || (hc->ep_type == EP_TYPE_INTR)) &&
1972:Drivers/STM32U5xx_HAL_Driver/Src/stm32u5xx_ll_usb.c ****         (hc->do_csplit == 1U) && (hc->ep_is_in == 1U))
1973:Drivers/STM32U5xx_HAL_Driver/Src/stm32u5xx_ll_usb.c ****     {
1974:Drivers/STM32U5xx_HAL_Driver/Src/stm32u5xx_ll_usb.c ****       USBx_HC((uint32_t)ch_num)->HCSPLT |= USB_OTG_HCSPLT_COMPLSPLT;
1975:Drivers/STM32U5xx_HAL_Driver/Src/stm32u5xx_ll_usb.c ****     }
1976:Drivers/STM32U5xx_HAL_Driver/Src/stm32u5xx_ll_usb.c **** 
1977:Drivers/STM32U5xx_HAL_Driver/Src/stm32u5xx_ll_usb.c ****     /* Position management for iso out transaction on split mode */
1978:Drivers/STM32U5xx_HAL_Driver/Src/stm32u5xx_ll_usb.c ****     if ((hc->ep_type == EP_TYPE_ISOC) && (hc->ep_is_in == 0U))
1979:Drivers/STM32U5xx_HAL_Driver/Src/stm32u5xx_ll_usb.c ****     {
1980:Drivers/STM32U5xx_HAL_Driver/Src/stm32u5xx_ll_usb.c ****       /* Set data payload position */
1981:Drivers/STM32U5xx_HAL_Driver/Src/stm32u5xx_ll_usb.c ****       switch (hc->iso_splt_xactPos)
1982:Drivers/STM32U5xx_HAL_Driver/Src/stm32u5xx_ll_usb.c ****       {
1983:Drivers/STM32U5xx_HAL_Driver/Src/stm32u5xx_ll_usb.c ****         case HCSPLT_BEGIN:
1984:Drivers/STM32U5xx_HAL_Driver/Src/stm32u5xx_ll_usb.c ****           /* First data payload for OUT Transaction */
1985:Drivers/STM32U5xx_HAL_Driver/Src/stm32u5xx_ll_usb.c ****           USBx_HC((uint32_t)ch_num)->HCSPLT |= USB_OTG_HCSPLT_XACTPOS_1;
1986:Drivers/STM32U5xx_HAL_Driver/Src/stm32u5xx_ll_usb.c ****           break;
1987:Drivers/STM32U5xx_HAL_Driver/Src/stm32u5xx_ll_usb.c **** 
1988:Drivers/STM32U5xx_HAL_Driver/Src/stm32u5xx_ll_usb.c ****         case HCSPLT_MIDDLE:
1989:Drivers/STM32U5xx_HAL_Driver/Src/stm32u5xx_ll_usb.c ****           /* Middle data payload for OUT Transaction */
1990:Drivers/STM32U5xx_HAL_Driver/Src/stm32u5xx_ll_usb.c ****           USBx_HC((uint32_t)ch_num)->HCSPLT |= USB_OTG_HCSPLT_XACTPOS_Pos;
1991:Drivers/STM32U5xx_HAL_Driver/Src/stm32u5xx_ll_usb.c ****           break;
1992:Drivers/STM32U5xx_HAL_Driver/Src/stm32u5xx_ll_usb.c **** 
1993:Drivers/STM32U5xx_HAL_Driver/Src/stm32u5xx_ll_usb.c ****         case HCSPLT_END:
1994:Drivers/STM32U5xx_HAL_Driver/Src/stm32u5xx_ll_usb.c ****           /* End data payload for OUT Transaction */
1995:Drivers/STM32U5xx_HAL_Driver/Src/stm32u5xx_ll_usb.c ****           USBx_HC((uint32_t)ch_num)->HCSPLT |= USB_OTG_HCSPLT_XACTPOS_0;
1996:Drivers/STM32U5xx_HAL_Driver/Src/stm32u5xx_ll_usb.c ****           break;
1997:Drivers/STM32U5xx_HAL_Driver/Src/stm32u5xx_ll_usb.c **** 
1998:Drivers/STM32U5xx_HAL_Driver/Src/stm32u5xx_ll_usb.c ****         case HCSPLT_FULL:
1999:Drivers/STM32U5xx_HAL_Driver/Src/stm32u5xx_ll_usb.c ****           /* Entire data payload for OUT Transaction */
2000:Drivers/STM32U5xx_HAL_Driver/Src/stm32u5xx_ll_usb.c ****           USBx_HC((uint32_t)ch_num)->HCSPLT |= USB_OTG_HCSPLT_XACTPOS;
2001:Drivers/STM32U5xx_HAL_Driver/Src/stm32u5xx_ll_usb.c ****           break;
2002:Drivers/STM32U5xx_HAL_Driver/Src/stm32u5xx_ll_usb.c **** 
2003:Drivers/STM32U5xx_HAL_Driver/Src/stm32u5xx_ll_usb.c ****         default:
2004:Drivers/STM32U5xx_HAL_Driver/Src/stm32u5xx_ll_usb.c ****           break;
2005:Drivers/STM32U5xx_HAL_Driver/Src/stm32u5xx_ll_usb.c ****       }
2006:Drivers/STM32U5xx_HAL_Driver/Src/stm32u5xx_ll_usb.c ****     }
2007:Drivers/STM32U5xx_HAL_Driver/Src/stm32u5xx_ll_usb.c ****   }
2008:Drivers/STM32U5xx_HAL_Driver/Src/stm32u5xx_ll_usb.c ****   else
2009:Drivers/STM32U5xx_HAL_Driver/Src/stm32u5xx_ll_usb.c ****   {
2010:Drivers/STM32U5xx_HAL_Driver/Src/stm32u5xx_ll_usb.c ****     /* Clear Hub Start Split transaction */
ARM GAS  /tmp/cc0vokHo.s 			page 128


2011:Drivers/STM32U5xx_HAL_Driver/Src/stm32u5xx_ll_usb.c ****     USBx_HC((uint32_t)ch_num)->HCSPLT = 0U;
2012:Drivers/STM32U5xx_HAL_Driver/Src/stm32u5xx_ll_usb.c ****   }
2013:Drivers/STM32U5xx_HAL_Driver/Src/stm32u5xx_ll_usb.c **** 
2014:Drivers/STM32U5xx_HAL_Driver/Src/stm32u5xx_ll_usb.c ****   /* Set host channel enable */
2015:Drivers/STM32U5xx_HAL_Driver/Src/stm32u5xx_ll_usb.c ****   tmpreg = USBx_HC(ch_num)->HCCHAR;
2016:Drivers/STM32U5xx_HAL_Driver/Src/stm32u5xx_ll_usb.c ****   tmpreg &= ~USB_OTG_HCCHAR_CHDIS;
2017:Drivers/STM32U5xx_HAL_Driver/Src/stm32u5xx_ll_usb.c **** 
2018:Drivers/STM32U5xx_HAL_Driver/Src/stm32u5xx_ll_usb.c ****   /* make sure to set the correct ep direction */
2019:Drivers/STM32U5xx_HAL_Driver/Src/stm32u5xx_ll_usb.c ****   if (hc->ep_is_in != 0U)
2020:Drivers/STM32U5xx_HAL_Driver/Src/stm32u5xx_ll_usb.c ****   {
2021:Drivers/STM32U5xx_HAL_Driver/Src/stm32u5xx_ll_usb.c ****     tmpreg |= USB_OTG_HCCHAR_EPDIR;
2022:Drivers/STM32U5xx_HAL_Driver/Src/stm32u5xx_ll_usb.c ****   }
2023:Drivers/STM32U5xx_HAL_Driver/Src/stm32u5xx_ll_usb.c ****   else
2024:Drivers/STM32U5xx_HAL_Driver/Src/stm32u5xx_ll_usb.c ****   {
2025:Drivers/STM32U5xx_HAL_Driver/Src/stm32u5xx_ll_usb.c ****     tmpreg &= ~USB_OTG_HCCHAR_EPDIR;
2026:Drivers/STM32U5xx_HAL_Driver/Src/stm32u5xx_ll_usb.c ****   }
2027:Drivers/STM32U5xx_HAL_Driver/Src/stm32u5xx_ll_usb.c ****   tmpreg |= USB_OTG_HCCHAR_CHENA;
2028:Drivers/STM32U5xx_HAL_Driver/Src/stm32u5xx_ll_usb.c ****   USBx_HC(ch_num)->HCCHAR = tmpreg;
2029:Drivers/STM32U5xx_HAL_Driver/Src/stm32u5xx_ll_usb.c **** 
2030:Drivers/STM32U5xx_HAL_Driver/Src/stm32u5xx_ll_usb.c ****   if (dma != 0U) /* dma mode */
2031:Drivers/STM32U5xx_HAL_Driver/Src/stm32u5xx_ll_usb.c ****   {
2032:Drivers/STM32U5xx_HAL_Driver/Src/stm32u5xx_ll_usb.c ****     return HAL_OK;
2033:Drivers/STM32U5xx_HAL_Driver/Src/stm32u5xx_ll_usb.c ****   }
2034:Drivers/STM32U5xx_HAL_Driver/Src/stm32u5xx_ll_usb.c **** 
2035:Drivers/STM32U5xx_HAL_Driver/Src/stm32u5xx_ll_usb.c ****   if ((hc->ep_is_in == 0U) && (hc->xfer_len > 0U) && (hc->do_csplit == 0U))
2036:Drivers/STM32U5xx_HAL_Driver/Src/stm32u5xx_ll_usb.c ****   {
2037:Drivers/STM32U5xx_HAL_Driver/Src/stm32u5xx_ll_usb.c ****     switch (hc->ep_type)
2038:Drivers/STM32U5xx_HAL_Driver/Src/stm32u5xx_ll_usb.c ****     {
2039:Drivers/STM32U5xx_HAL_Driver/Src/stm32u5xx_ll_usb.c ****       /* Non periodic transfer */
2040:Drivers/STM32U5xx_HAL_Driver/Src/stm32u5xx_ll_usb.c ****       case EP_TYPE_CTRL:
2041:Drivers/STM32U5xx_HAL_Driver/Src/stm32u5xx_ll_usb.c ****       case EP_TYPE_BULK:
2042:Drivers/STM32U5xx_HAL_Driver/Src/stm32u5xx_ll_usb.c **** 
2043:Drivers/STM32U5xx_HAL_Driver/Src/stm32u5xx_ll_usb.c ****         len_words = (uint16_t)((hc->xfer_len + 3U) / 4U);
2044:Drivers/STM32U5xx_HAL_Driver/Src/stm32u5xx_ll_usb.c **** 
2045:Drivers/STM32U5xx_HAL_Driver/Src/stm32u5xx_ll_usb.c ****         /* check if there is enough space in FIFO space */
2046:Drivers/STM32U5xx_HAL_Driver/Src/stm32u5xx_ll_usb.c ****         if (len_words > (USBx->HNPTXSTS & 0xFFFFU))
2047:Drivers/STM32U5xx_HAL_Driver/Src/stm32u5xx_ll_usb.c ****         {
2048:Drivers/STM32U5xx_HAL_Driver/Src/stm32u5xx_ll_usb.c ****           /* need to process data in nptxfempty interrupt */
2049:Drivers/STM32U5xx_HAL_Driver/Src/stm32u5xx_ll_usb.c ****           USBx->GINTMSK |= USB_OTG_GINTMSK_NPTXFEM;
2050:Drivers/STM32U5xx_HAL_Driver/Src/stm32u5xx_ll_usb.c ****         }
2051:Drivers/STM32U5xx_HAL_Driver/Src/stm32u5xx_ll_usb.c ****         break;
2052:Drivers/STM32U5xx_HAL_Driver/Src/stm32u5xx_ll_usb.c **** 
2053:Drivers/STM32U5xx_HAL_Driver/Src/stm32u5xx_ll_usb.c ****       /* Periodic transfer */
2054:Drivers/STM32U5xx_HAL_Driver/Src/stm32u5xx_ll_usb.c ****       case EP_TYPE_INTR:
2055:Drivers/STM32U5xx_HAL_Driver/Src/stm32u5xx_ll_usb.c ****       case EP_TYPE_ISOC:
2056:Drivers/STM32U5xx_HAL_Driver/Src/stm32u5xx_ll_usb.c ****         len_words = (uint16_t)((hc->xfer_len + 3U) / 4U);
2057:Drivers/STM32U5xx_HAL_Driver/Src/stm32u5xx_ll_usb.c ****         /* check if there is enough space in FIFO space */
2058:Drivers/STM32U5xx_HAL_Driver/Src/stm32u5xx_ll_usb.c ****         if (len_words > (USBx_HOST->HPTXSTS & 0xFFFFU)) /* split the transfer */
2059:Drivers/STM32U5xx_HAL_Driver/Src/stm32u5xx_ll_usb.c ****         {
2060:Drivers/STM32U5xx_HAL_Driver/Src/stm32u5xx_ll_usb.c ****           /* need to process data in ptxfempty interrupt */
2061:Drivers/STM32U5xx_HAL_Driver/Src/stm32u5xx_ll_usb.c ****           USBx->GINTMSK |= USB_OTG_GINTMSK_PTXFEM;
2062:Drivers/STM32U5xx_HAL_Driver/Src/stm32u5xx_ll_usb.c ****         }
2063:Drivers/STM32U5xx_HAL_Driver/Src/stm32u5xx_ll_usb.c ****         break;
2064:Drivers/STM32U5xx_HAL_Driver/Src/stm32u5xx_ll_usb.c **** 
2065:Drivers/STM32U5xx_HAL_Driver/Src/stm32u5xx_ll_usb.c ****       default:
2066:Drivers/STM32U5xx_HAL_Driver/Src/stm32u5xx_ll_usb.c ****         break;
2067:Drivers/STM32U5xx_HAL_Driver/Src/stm32u5xx_ll_usb.c ****     }
ARM GAS  /tmp/cc0vokHo.s 			page 129


2068:Drivers/STM32U5xx_HAL_Driver/Src/stm32u5xx_ll_usb.c **** 
2069:Drivers/STM32U5xx_HAL_Driver/Src/stm32u5xx_ll_usb.c ****     /* Write packet into the Tx FIFO. */
2070:Drivers/STM32U5xx_HAL_Driver/Src/stm32u5xx_ll_usb.c ****     (void)USB_WritePacket(USBx, hc->xfer_buff, hc->ch_num, (uint16_t)hc->xfer_len, 0);
2071:Drivers/STM32U5xx_HAL_Driver/Src/stm32u5xx_ll_usb.c ****   }
2072:Drivers/STM32U5xx_HAL_Driver/Src/stm32u5xx_ll_usb.c **** 
2073:Drivers/STM32U5xx_HAL_Driver/Src/stm32u5xx_ll_usb.c ****   return HAL_OK;
2074:Drivers/STM32U5xx_HAL_Driver/Src/stm32u5xx_ll_usb.c **** }
2075:Drivers/STM32U5xx_HAL_Driver/Src/stm32u5xx_ll_usb.c **** 
2076:Drivers/STM32U5xx_HAL_Driver/Src/stm32u5xx_ll_usb.c **** /**
2077:Drivers/STM32U5xx_HAL_Driver/Src/stm32u5xx_ll_usb.c ****   * @brief Read all host channel interrupts status
2078:Drivers/STM32U5xx_HAL_Driver/Src/stm32u5xx_ll_usb.c ****   * @param  USBx  Selected device
2079:Drivers/STM32U5xx_HAL_Driver/Src/stm32u5xx_ll_usb.c ****   * @retval HAL state
2080:Drivers/STM32U5xx_HAL_Driver/Src/stm32u5xx_ll_usb.c ****   */
2081:Drivers/STM32U5xx_HAL_Driver/Src/stm32u5xx_ll_usb.c **** uint32_t USB_HC_ReadInterrupt(USB_OTG_GlobalTypeDef *USBx)
2082:Drivers/STM32U5xx_HAL_Driver/Src/stm32u5xx_ll_usb.c **** {
 4200              		.loc 1 2082 1 is_stmt 1 view -0
 4201              		.cfi_startproc
 4202              		@ args = 0, pretend = 0, frame = 0
 4203              		@ frame_needed = 0, uses_anonymous_args = 0
 4204              		@ link register save eliminated.
2083:Drivers/STM32U5xx_HAL_Driver/Src/stm32u5xx_ll_usb.c ****   uint32_t USBx_BASE = (uint32_t)USBx;
 4205              		.loc 1 2083 3 view .LVU1349
2084:Drivers/STM32U5xx_HAL_Driver/Src/stm32u5xx_ll_usb.c **** 
2085:Drivers/STM32U5xx_HAL_Driver/Src/stm32u5xx_ll_usb.c ****   return ((USBx_HOST->HAINT) & 0xFFFFU);
 4206              		.loc 1 2085 3 view .LVU1350
 4207              		.loc 1 2085 12 is_stmt 0 view .LVU1351
 4208 0000 00F58060 		add	r0, r0, #1024
 4209              	.LVL332:
 4210              		.loc 1 2085 21 view .LVU1352
 4211 0004 4069     		ldr	r0, [r0, #20]
 4212              	.LVL333:
2086:Drivers/STM32U5xx_HAL_Driver/Src/stm32u5xx_ll_usb.c **** }
 4213              		.loc 1 2086 1 view .LVU1353
 4214 0006 80B2     		uxth	r0, r0
 4215 0008 7047     		bx	lr
 4216              		.cfi_endproc
 4217              	.LFE388:
 4219              		.section	.text.USB_HC_Halt,"ax",%progbits
 4220              		.align	1
 4221              		.global	USB_HC_Halt
 4222              		.syntax unified
 4223              		.thumb
 4224              		.thumb_func
 4226              	USB_HC_Halt:
 4227              	.LVL334:
 4228              	.LFB389:
2087:Drivers/STM32U5xx_HAL_Driver/Src/stm32u5xx_ll_usb.c **** 
2088:Drivers/STM32U5xx_HAL_Driver/Src/stm32u5xx_ll_usb.c **** /**
2089:Drivers/STM32U5xx_HAL_Driver/Src/stm32u5xx_ll_usb.c ****   * @brief  Halt a host channel
2090:Drivers/STM32U5xx_HAL_Driver/Src/stm32u5xx_ll_usb.c ****   * @param  USBx  Selected device
2091:Drivers/STM32U5xx_HAL_Driver/Src/stm32u5xx_ll_usb.c ****   * @param  hc_num  Host Channel number
2092:Drivers/STM32U5xx_HAL_Driver/Src/stm32u5xx_ll_usb.c ****   *         This parameter can be a value from 1 to 15
2093:Drivers/STM32U5xx_HAL_Driver/Src/stm32u5xx_ll_usb.c ****   * @retval HAL state
2094:Drivers/STM32U5xx_HAL_Driver/Src/stm32u5xx_ll_usb.c ****   */
2095:Drivers/STM32U5xx_HAL_Driver/Src/stm32u5xx_ll_usb.c **** HAL_StatusTypeDef USB_HC_Halt(USB_OTG_GlobalTypeDef *USBx, uint8_t hc_num)
2096:Drivers/STM32U5xx_HAL_Driver/Src/stm32u5xx_ll_usb.c **** {
 4229              		.loc 1 2096 1 is_stmt 1 view -0
ARM GAS  /tmp/cc0vokHo.s 			page 130


 4230              		.cfi_startproc
 4231              		@ args = 0, pretend = 0, frame = 8
 4232              		@ frame_needed = 0, uses_anonymous_args = 0
 4233              		@ link register save eliminated.
 4234              		.loc 1 2096 1 is_stmt 0 view .LVU1355
 4235 0000 70B4     		push	{r4, r5, r6}
 4236              	.LCFI58:
 4237              		.cfi_def_cfa_offset 12
 4238              		.cfi_offset 4, -12
 4239              		.cfi_offset 5, -8
 4240              		.cfi_offset 6, -4
 4241 0002 83B0     		sub	sp, sp, #12
 4242              	.LCFI59:
 4243              		.cfi_def_cfa_offset 24
2097:Drivers/STM32U5xx_HAL_Driver/Src/stm32u5xx_ll_usb.c ****   uint32_t USBx_BASE = (uint32_t)USBx;
 4244              		.loc 1 2097 3 is_stmt 1 view .LVU1356
 4245              	.LVL335:
2098:Drivers/STM32U5xx_HAL_Driver/Src/stm32u5xx_ll_usb.c ****   uint32_t hcnum = (uint32_t)hc_num;
 4246              		.loc 1 2098 3 view .LVU1357
2099:Drivers/STM32U5xx_HAL_Driver/Src/stm32u5xx_ll_usb.c ****   __IO uint32_t count = 0U;
 4247              		.loc 1 2099 3 view .LVU1358
 4248              		.loc 1 2099 17 is_stmt 0 view .LVU1359
 4249 0004 0023     		movs	r3, #0
 4250 0006 0193     		str	r3, [sp, #4]
2100:Drivers/STM32U5xx_HAL_Driver/Src/stm32u5xx_ll_usb.c ****   uint32_t HcEpType = (USBx_HC(hcnum)->HCCHAR & USB_OTG_HCCHAR_EPTYP) >> 18;
 4251              		.loc 1 2100 3 is_stmt 1 view .LVU1360
 4252              		.loc 1 2100 24 is_stmt 0 view .LVU1361
 4253 0008 00EB4111 		add	r1, r0, r1, lsl #5
 4254              	.LVL336:
 4255              		.loc 1 2100 24 view .LVU1362
 4256 000c 01F5A062 		add	r2, r1, #1280
 4257              		.loc 1 2100 38 view .LVU1363
 4258 0010 D1F80035 		ldr	r3, [r1, #1280]
 4259              		.loc 1 2100 12 view .LVU1364
 4260 0014 C3F38143 		ubfx	r3, r3, #18, #2
 4261              	.LVL337:
2101:Drivers/STM32U5xx_HAL_Driver/Src/stm32u5xx_ll_usb.c ****   uint32_t ChannelEna = (USBx_HC(hcnum)->HCCHAR & USB_OTG_HCCHAR_CHENA) >> 31;
 4262              		.loc 1 2101 3 is_stmt 1 view .LVU1365
 4263              		.loc 1 2101 40 is_stmt 0 view .LVU1366
 4264 0018 D1F80055 		ldr	r5, [r1, #1280]
 4265              	.LVL338:
2102:Drivers/STM32U5xx_HAL_Driver/Src/stm32u5xx_ll_usb.c ****   uint32_t SplitEna = (USBx_HC(hcnum)->HCSPLT & USB_OTG_HCSPLT_SPLITEN) >> 31;
 4266              		.loc 1 2102 3 is_stmt 1 view .LVU1367
 4267              		.loc 1 2102 38 is_stmt 0 view .LVU1368
 4268 001c 5468     		ldr	r4, [r2, #4]
 4269              	.LVL339:
2103:Drivers/STM32U5xx_HAL_Driver/Src/stm32u5xx_ll_usb.c **** 
2104:Drivers/STM32U5xx_HAL_Driver/Src/stm32u5xx_ll_usb.c ****   /* In buffer DMA, Channel disable must not be programmed for non-split periodic channels.
2105:Drivers/STM32U5xx_HAL_Driver/Src/stm32u5xx_ll_usb.c ****      At the end of the next uframe/frame (in the worst case), the core generates a channel halted
2106:Drivers/STM32U5xx_HAL_Driver/Src/stm32u5xx_ll_usb.c ****      and disables the channel automatically. */
2107:Drivers/STM32U5xx_HAL_Driver/Src/stm32u5xx_ll_usb.c **** 
2108:Drivers/STM32U5xx_HAL_Driver/Src/stm32u5xx_ll_usb.c ****   if ((((USBx->GAHBCFG & USB_OTG_GAHBCFG_DMAEN) == USB_OTG_GAHBCFG_DMAEN) && (SplitEna == 0U)) &&
 4270              		.loc 1 2108 3 is_stmt 1 view .LVU1369
 4271              		.loc 1 2108 14 is_stmt 0 view .LVU1370
 4272 001e 8668     		ldr	r6, [r0, #8]
 4273              		.loc 1 2108 6 view .LVU1371
 4274 0020 16F0200F 		tst	r6, #32
ARM GAS  /tmp/cc0vokHo.s 			page 131


 4275 0024 08D0     		beq	.L277
 4276 0026 ED0F     		lsrs	r5, r5, #31
 4277              	.LVL340:
 4278              		.loc 1 2108 6 view .LVU1372
 4279 0028 E40F     		lsrs	r4, r4, #31
 4280              	.LVL341:
 4281              		.loc 1 2108 75 discriminator 1 view .LVU1373
 4282 002a 2CB9     		cbnz	r4, .L277
 4283              		.loc 1 2108 96 discriminator 2 view .LVU1374
 4284 002c 002D     		cmp	r5, #0
 4285 002e 5AD0     		beq	.L278
2109:Drivers/STM32U5xx_HAL_Driver/Src/stm32u5xx_ll_usb.c ****       ((ChannelEna == 0U) || (((HcEpType == HCCHAR_ISOC) || (HcEpType == HCCHAR_INTR)))))
 4286              		.loc 1 2109 27 view .LVU1375
 4287 0030 012B     		cmp	r3, #1
 4288 0032 58D0     		beq	.L278
 4289              		.loc 1 2109 58 discriminator 1 view .LVU1376
 4290 0034 032B     		cmp	r3, #3
 4291 0036 56D0     		beq	.L278
 4292              	.LVL342:
 4293              	.L277:
2110:Drivers/STM32U5xx_HAL_Driver/Src/stm32u5xx_ll_usb.c ****   {
2111:Drivers/STM32U5xx_HAL_Driver/Src/stm32u5xx_ll_usb.c ****     return HAL_OK;
2112:Drivers/STM32U5xx_HAL_Driver/Src/stm32u5xx_ll_usb.c ****   }
2113:Drivers/STM32U5xx_HAL_Driver/Src/stm32u5xx_ll_usb.c **** 
2114:Drivers/STM32U5xx_HAL_Driver/Src/stm32u5xx_ll_usb.c ****   /* Check for space in the request queue to issue the halt. */
2115:Drivers/STM32U5xx_HAL_Driver/Src/stm32u5xx_ll_usb.c ****   if ((HcEpType == HCCHAR_CTRL) || (HcEpType == HCCHAR_BULK))
 4294              		.loc 1 2115 3 is_stmt 1 view .LVU1377
 4295              		.loc 1 2115 6 is_stmt 0 view .LVU1378
 4296 0038 1BB3     		cbz	r3, .L279
 4297              		.loc 1 2115 33 discriminator 1 view .LVU1379
 4298 003a 022B     		cmp	r3, #2
 4299 003c 21D0     		beq	.L279
2116:Drivers/STM32U5xx_HAL_Driver/Src/stm32u5xx_ll_usb.c ****   {
2117:Drivers/STM32U5xx_HAL_Driver/Src/stm32u5xx_ll_usb.c ****     USBx_HC(hcnum)->HCCHAR |= USB_OTG_HCCHAR_CHDIS;
2118:Drivers/STM32U5xx_HAL_Driver/Src/stm32u5xx_ll_usb.c **** 
2119:Drivers/STM32U5xx_HAL_Driver/Src/stm32u5xx_ll_usb.c ****     if ((USBx->GAHBCFG & USB_OTG_GAHBCFG_DMAEN) == 0U)
2120:Drivers/STM32U5xx_HAL_Driver/Src/stm32u5xx_ll_usb.c ****     {
2121:Drivers/STM32U5xx_HAL_Driver/Src/stm32u5xx_ll_usb.c ****       if ((USBx->HNPTXSTS & (0xFFU << 16)) == 0U)
2122:Drivers/STM32U5xx_HAL_Driver/Src/stm32u5xx_ll_usb.c ****       {
2123:Drivers/STM32U5xx_HAL_Driver/Src/stm32u5xx_ll_usb.c ****         USBx_HC(hcnum)->HCCHAR &= ~USB_OTG_HCCHAR_CHENA;
2124:Drivers/STM32U5xx_HAL_Driver/Src/stm32u5xx_ll_usb.c ****         USBx_HC(hcnum)->HCCHAR |= USB_OTG_HCCHAR_CHENA;
2125:Drivers/STM32U5xx_HAL_Driver/Src/stm32u5xx_ll_usb.c ****         do
2126:Drivers/STM32U5xx_HAL_Driver/Src/stm32u5xx_ll_usb.c ****         {
2127:Drivers/STM32U5xx_HAL_Driver/Src/stm32u5xx_ll_usb.c ****           count++;
2128:Drivers/STM32U5xx_HAL_Driver/Src/stm32u5xx_ll_usb.c **** 
2129:Drivers/STM32U5xx_HAL_Driver/Src/stm32u5xx_ll_usb.c ****           if (count > 1000U)
2130:Drivers/STM32U5xx_HAL_Driver/Src/stm32u5xx_ll_usb.c ****           {
2131:Drivers/STM32U5xx_HAL_Driver/Src/stm32u5xx_ll_usb.c ****             break;
2132:Drivers/STM32U5xx_HAL_Driver/Src/stm32u5xx_ll_usb.c ****           }
2133:Drivers/STM32U5xx_HAL_Driver/Src/stm32u5xx_ll_usb.c ****         } while ((USBx_HC(hcnum)->HCCHAR & USB_OTG_HCCHAR_CHENA) == USB_OTG_HCCHAR_CHENA);
2134:Drivers/STM32U5xx_HAL_Driver/Src/stm32u5xx_ll_usb.c ****       }
2135:Drivers/STM32U5xx_HAL_Driver/Src/stm32u5xx_ll_usb.c ****       else
2136:Drivers/STM32U5xx_HAL_Driver/Src/stm32u5xx_ll_usb.c ****       {
2137:Drivers/STM32U5xx_HAL_Driver/Src/stm32u5xx_ll_usb.c ****         USBx_HC(hcnum)->HCCHAR |= USB_OTG_HCCHAR_CHENA;
2138:Drivers/STM32U5xx_HAL_Driver/Src/stm32u5xx_ll_usb.c ****       }
2139:Drivers/STM32U5xx_HAL_Driver/Src/stm32u5xx_ll_usb.c ****     }
2140:Drivers/STM32U5xx_HAL_Driver/Src/stm32u5xx_ll_usb.c ****     else
ARM GAS  /tmp/cc0vokHo.s 			page 132


2141:Drivers/STM32U5xx_HAL_Driver/Src/stm32u5xx_ll_usb.c ****     {
2142:Drivers/STM32U5xx_HAL_Driver/Src/stm32u5xx_ll_usb.c ****       USBx_HC(hcnum)->HCCHAR |= USB_OTG_HCCHAR_CHENA;
2143:Drivers/STM32U5xx_HAL_Driver/Src/stm32u5xx_ll_usb.c ****     }
2144:Drivers/STM32U5xx_HAL_Driver/Src/stm32u5xx_ll_usb.c ****   }
2145:Drivers/STM32U5xx_HAL_Driver/Src/stm32u5xx_ll_usb.c ****   else
2146:Drivers/STM32U5xx_HAL_Driver/Src/stm32u5xx_ll_usb.c ****   {
2147:Drivers/STM32U5xx_HAL_Driver/Src/stm32u5xx_ll_usb.c ****     USBx_HC(hcnum)->HCCHAR |= USB_OTG_HCCHAR_CHDIS;
 4300              		.loc 1 2147 5 is_stmt 1 view .LVU1380
 4301              		.loc 1 2147 28 is_stmt 0 view .LVU1381
 4302 003e D1F80035 		ldr	r3, [r1, #1280]
 4303              	.LVL343:
 4304              		.loc 1 2147 28 view .LVU1382
 4305 0042 43F08043 		orr	r3, r3, #1073741824
 4306 0046 C1F80035 		str	r3, [r1, #1280]
2148:Drivers/STM32U5xx_HAL_Driver/Src/stm32u5xx_ll_usb.c **** 
2149:Drivers/STM32U5xx_HAL_Driver/Src/stm32u5xx_ll_usb.c ****     if ((USBx_HOST->HPTXSTS & (0xFFU << 16)) == 0U)
 4307              		.loc 1 2149 5 is_stmt 1 view .LVU1383
 4308              		.loc 1 2149 19 is_stmt 0 view .LVU1384
 4309 004a D0F81034 		ldr	r3, [r0, #1040]
 4310              		.loc 1 2149 8 view .LVU1385
 4311 004e 13F47F0F 		tst	r3, #16711680
 4312 0052 4CD1     		bne	.L284
2150:Drivers/STM32U5xx_HAL_Driver/Src/stm32u5xx_ll_usb.c ****     {
2151:Drivers/STM32U5xx_HAL_Driver/Src/stm32u5xx_ll_usb.c ****       USBx_HC(hcnum)->HCCHAR &= ~USB_OTG_HCCHAR_CHENA;
 4313              		.loc 1 2151 7 is_stmt 1 view .LVU1386
 4314              		.loc 1 2151 30 is_stmt 0 view .LVU1387
 4315 0054 D1F80035 		ldr	r3, [r1, #1280]
 4316 0058 23F00043 		bic	r3, r3, #-2147483648
 4317 005c C1F80035 		str	r3, [r1, #1280]
2152:Drivers/STM32U5xx_HAL_Driver/Src/stm32u5xx_ll_usb.c ****       USBx_HC(hcnum)->HCCHAR |= USB_OTG_HCCHAR_CHENA;
 4318              		.loc 1 2152 7 is_stmt 1 view .LVU1388
 4319              		.loc 1 2152 30 is_stmt 0 view .LVU1389
 4320 0060 D1F80035 		ldr	r3, [r1, #1280]
 4321 0064 43F00043 		orr	r3, r3, #-2147483648
 4322 0068 C1F80035 		str	r3, [r1, #1280]
 4323              	.L285:
2153:Drivers/STM32U5xx_HAL_Driver/Src/stm32u5xx_ll_usb.c ****       do
 4324              		.loc 1 2153 7 is_stmt 1 view .LVU1390
2154:Drivers/STM32U5xx_HAL_Driver/Src/stm32u5xx_ll_usb.c ****       {
2155:Drivers/STM32U5xx_HAL_Driver/Src/stm32u5xx_ll_usb.c ****         count++;
 4325              		.loc 1 2155 9 view .LVU1391
 4326              		.loc 1 2155 14 is_stmt 0 view .LVU1392
 4327 006c 019B     		ldr	r3, [sp, #4]
 4328 006e 0133     		adds	r3, r3, #1
 4329 0070 0193     		str	r3, [sp, #4]
2156:Drivers/STM32U5xx_HAL_Driver/Src/stm32u5xx_ll_usb.c **** 
2157:Drivers/STM32U5xx_HAL_Driver/Src/stm32u5xx_ll_usb.c ****         if (count > 1000U)
 4330              		.loc 1 2157 9 is_stmt 1 view .LVU1393
 4331              		.loc 1 2157 19 is_stmt 0 view .LVU1394
 4332 0072 019B     		ldr	r3, [sp, #4]
 4333              		.loc 1 2157 12 view .LVU1395
 4334 0074 B3F57A7F 		cmp	r3, #1000
 4335 0078 35D8     		bhi	.L278
2158:Drivers/STM32U5xx_HAL_Driver/Src/stm32u5xx_ll_usb.c ****         {
2159:Drivers/STM32U5xx_HAL_Driver/Src/stm32u5xx_ll_usb.c ****           break;
2160:Drivers/STM32U5xx_HAL_Driver/Src/stm32u5xx_ll_usb.c ****         }
2161:Drivers/STM32U5xx_HAL_Driver/Src/stm32u5xx_ll_usb.c ****       } while ((USBx_HC(hcnum)->HCCHAR & USB_OTG_HCCHAR_CHENA) == USB_OTG_HCCHAR_CHENA);
ARM GAS  /tmp/cc0vokHo.s 			page 133


 4336              		.loc 1 2161 15 is_stmt 1 view .LVU1396
 4337              		.loc 1 2161 31 is_stmt 0 view .LVU1397
 4338 007a 1368     		ldr	r3, [r2]
 4339              		.loc 1 2161 7 view .LVU1398
 4340 007c 002B     		cmp	r3, #0
 4341 007e F5DB     		blt	.L285
 4342 0080 31E0     		b	.L278
 4343              	.LVL344:
 4344              	.L279:
2117:Drivers/STM32U5xx_HAL_Driver/Src/stm32u5xx_ll_usb.c **** 
 4345              		.loc 1 2117 5 is_stmt 1 view .LVU1399
2117:Drivers/STM32U5xx_HAL_Driver/Src/stm32u5xx_ll_usb.c **** 
 4346              		.loc 1 2117 28 is_stmt 0 view .LVU1400
 4347 0082 D1F80035 		ldr	r3, [r1, #1280]
 4348              	.LVL345:
2117:Drivers/STM32U5xx_HAL_Driver/Src/stm32u5xx_ll_usb.c **** 
 4349              		.loc 1 2117 28 view .LVU1401
 4350 0086 43F08043 		orr	r3, r3, #1073741824
 4351 008a C1F80035 		str	r3, [r1, #1280]
2119:Drivers/STM32U5xx_HAL_Driver/Src/stm32u5xx_ll_usb.c ****     {
 4352              		.loc 1 2119 5 is_stmt 1 view .LVU1402
2119:Drivers/STM32U5xx_HAL_Driver/Src/stm32u5xx_ll_usb.c ****     {
 4353              		.loc 1 2119 14 is_stmt 0 view .LVU1403
 4354 008e 8368     		ldr	r3, [r0, #8]
2119:Drivers/STM32U5xx_HAL_Driver/Src/stm32u5xx_ll_usb.c ****     {
 4355              		.loc 1 2119 8 view .LVU1404
 4356 0090 13F0200F 		tst	r3, #32
 4357 0094 21D1     		bne	.L281
2121:Drivers/STM32U5xx_HAL_Driver/Src/stm32u5xx_ll_usb.c ****       {
 4358              		.loc 1 2121 7 is_stmt 1 view .LVU1405
2121:Drivers/STM32U5xx_HAL_Driver/Src/stm32u5xx_ll_usb.c ****       {
 4359              		.loc 1 2121 16 is_stmt 0 view .LVU1406
 4360 0096 C36A     		ldr	r3, [r0, #44]
2121:Drivers/STM32U5xx_HAL_Driver/Src/stm32u5xx_ll_usb.c ****       {
 4361              		.loc 1 2121 10 view .LVU1407
 4362 0098 13F47F0F 		tst	r3, #16711680
 4363 009c 16D1     		bne	.L282
2123:Drivers/STM32U5xx_HAL_Driver/Src/stm32u5xx_ll_usb.c ****         USBx_HC(hcnum)->HCCHAR |= USB_OTG_HCCHAR_CHENA;
 4364              		.loc 1 2123 9 is_stmt 1 view .LVU1408
2123:Drivers/STM32U5xx_HAL_Driver/Src/stm32u5xx_ll_usb.c ****         USBx_HC(hcnum)->HCCHAR |= USB_OTG_HCCHAR_CHENA;
 4365              		.loc 1 2123 32 is_stmt 0 view .LVU1409
 4366 009e D1F80035 		ldr	r3, [r1, #1280]
 4367 00a2 23F00043 		bic	r3, r3, #-2147483648
 4368 00a6 C1F80035 		str	r3, [r1, #1280]
2124:Drivers/STM32U5xx_HAL_Driver/Src/stm32u5xx_ll_usb.c ****         do
 4369              		.loc 1 2124 9 is_stmt 1 view .LVU1410
2124:Drivers/STM32U5xx_HAL_Driver/Src/stm32u5xx_ll_usb.c ****         do
 4370              		.loc 1 2124 32 is_stmt 0 view .LVU1411
 4371 00aa D1F80035 		ldr	r3, [r1, #1280]
 4372 00ae 43F00043 		orr	r3, r3, #-2147483648
 4373 00b2 C1F80035 		str	r3, [r1, #1280]
 4374              	.L283:
2125:Drivers/STM32U5xx_HAL_Driver/Src/stm32u5xx_ll_usb.c ****         {
 4375              		.loc 1 2125 9 is_stmt 1 view .LVU1412
2127:Drivers/STM32U5xx_HAL_Driver/Src/stm32u5xx_ll_usb.c **** 
 4376              		.loc 1 2127 11 view .LVU1413
2127:Drivers/STM32U5xx_HAL_Driver/Src/stm32u5xx_ll_usb.c **** 
ARM GAS  /tmp/cc0vokHo.s 			page 134


 4377              		.loc 1 2127 16 is_stmt 0 view .LVU1414
 4378 00b6 019B     		ldr	r3, [sp, #4]
 4379 00b8 0133     		adds	r3, r3, #1
 4380 00ba 0193     		str	r3, [sp, #4]
2129:Drivers/STM32U5xx_HAL_Driver/Src/stm32u5xx_ll_usb.c ****           {
 4381              		.loc 1 2129 11 is_stmt 1 view .LVU1415
2129:Drivers/STM32U5xx_HAL_Driver/Src/stm32u5xx_ll_usb.c ****           {
 4382              		.loc 1 2129 21 is_stmt 0 view .LVU1416
 4383 00bc 019B     		ldr	r3, [sp, #4]
2129:Drivers/STM32U5xx_HAL_Driver/Src/stm32u5xx_ll_usb.c ****           {
 4384              		.loc 1 2129 14 view .LVU1417
 4385 00be B3F57A7F 		cmp	r3, #1000
 4386 00c2 10D8     		bhi	.L278
2133:Drivers/STM32U5xx_HAL_Driver/Src/stm32u5xx_ll_usb.c ****       }
 4387              		.loc 1 2133 17 is_stmt 1 view .LVU1418
2133:Drivers/STM32U5xx_HAL_Driver/Src/stm32u5xx_ll_usb.c ****       }
 4388              		.loc 1 2133 33 is_stmt 0 view .LVU1419
 4389 00c4 1368     		ldr	r3, [r2]
2133:Drivers/STM32U5xx_HAL_Driver/Src/stm32u5xx_ll_usb.c ****       }
 4390              		.loc 1 2133 9 view .LVU1420
 4391 00c6 002B     		cmp	r3, #0
 4392 00c8 F5DB     		blt	.L283
 4393 00ca 0CE0     		b	.L278
 4394              	.L282:
2137:Drivers/STM32U5xx_HAL_Driver/Src/stm32u5xx_ll_usb.c ****       }
 4395              		.loc 1 2137 9 is_stmt 1 view .LVU1421
2137:Drivers/STM32U5xx_HAL_Driver/Src/stm32u5xx_ll_usb.c ****       }
 4396              		.loc 1 2137 32 is_stmt 0 view .LVU1422
 4397 00cc D1F80035 		ldr	r3, [r1, #1280]
 4398 00d0 43F00043 		orr	r3, r3, #-2147483648
 4399 00d4 C1F80035 		str	r3, [r1, #1280]
 4400 00d8 05E0     		b	.L278
 4401              	.L281:
2142:Drivers/STM32U5xx_HAL_Driver/Src/stm32u5xx_ll_usb.c ****     }
 4402              		.loc 1 2142 7 is_stmt 1 view .LVU1423
2142:Drivers/STM32U5xx_HAL_Driver/Src/stm32u5xx_ll_usb.c ****     }
 4403              		.loc 1 2142 30 is_stmt 0 view .LVU1424
 4404 00da D1F80035 		ldr	r3, [r1, #1280]
 4405 00de 43F00043 		orr	r3, r3, #-2147483648
 4406 00e2 C1F80035 		str	r3, [r1, #1280]
 4407              	.L278:
2162:Drivers/STM32U5xx_HAL_Driver/Src/stm32u5xx_ll_usb.c ****     }
2163:Drivers/STM32U5xx_HAL_Driver/Src/stm32u5xx_ll_usb.c ****     else
2164:Drivers/STM32U5xx_HAL_Driver/Src/stm32u5xx_ll_usb.c ****     {
2165:Drivers/STM32U5xx_HAL_Driver/Src/stm32u5xx_ll_usb.c ****       USBx_HC(hcnum)->HCCHAR |= USB_OTG_HCCHAR_CHENA;
2166:Drivers/STM32U5xx_HAL_Driver/Src/stm32u5xx_ll_usb.c ****     }
2167:Drivers/STM32U5xx_HAL_Driver/Src/stm32u5xx_ll_usb.c ****   }
2168:Drivers/STM32U5xx_HAL_Driver/Src/stm32u5xx_ll_usb.c **** 
2169:Drivers/STM32U5xx_HAL_Driver/Src/stm32u5xx_ll_usb.c ****   return HAL_OK;
2170:Drivers/STM32U5xx_HAL_Driver/Src/stm32u5xx_ll_usb.c **** }
 4408              		.loc 1 2170 1 view .LVU1425
 4409 00e6 0020     		movs	r0, #0
 4410              	.LVL346:
 4411              		.loc 1 2170 1 view .LVU1426
 4412 00e8 03B0     		add	sp, sp, #12
 4413              	.LCFI60:
 4414              		.cfi_remember_state
ARM GAS  /tmp/cc0vokHo.s 			page 135


 4415              		.cfi_def_cfa_offset 12
 4416              		@ sp needed
 4417 00ea 70BC     		pop	{r4, r5, r6}
 4418              	.LCFI61:
 4419              		.cfi_restore 6
 4420              		.cfi_restore 5
 4421              		.cfi_restore 4
 4422              		.cfi_def_cfa_offset 0
 4423 00ec 7047     		bx	lr
 4424              	.LVL347:
 4425              	.L284:
 4426              	.LCFI62:
 4427              		.cfi_restore_state
2165:Drivers/STM32U5xx_HAL_Driver/Src/stm32u5xx_ll_usb.c ****     }
 4428              		.loc 1 2165 7 is_stmt 1 view .LVU1427
2165:Drivers/STM32U5xx_HAL_Driver/Src/stm32u5xx_ll_usb.c ****     }
 4429              		.loc 1 2165 30 is_stmt 0 view .LVU1428
 4430 00ee D1F80035 		ldr	r3, [r1, #1280]
 4431 00f2 43F00043 		orr	r3, r3, #-2147483648
 4432 00f6 C1F80035 		str	r3, [r1, #1280]
 4433 00fa F4E7     		b	.L278
 4434              		.cfi_endproc
 4435              	.LFE389:
 4437              		.section	.text.USB_DoPing,"ax",%progbits
 4438              		.align	1
 4439              		.global	USB_DoPing
 4440              		.syntax unified
 4441              		.thumb
 4442              		.thumb_func
 4444              	USB_DoPing:
 4445              	.LVL348:
 4446              	.LFB390:
2171:Drivers/STM32U5xx_HAL_Driver/Src/stm32u5xx_ll_usb.c **** 
2172:Drivers/STM32U5xx_HAL_Driver/Src/stm32u5xx_ll_usb.c **** /**
2173:Drivers/STM32U5xx_HAL_Driver/Src/stm32u5xx_ll_usb.c ****   * @brief  Initiate Do Ping protocol
2174:Drivers/STM32U5xx_HAL_Driver/Src/stm32u5xx_ll_usb.c ****   * @param  USBx  Selected device
2175:Drivers/STM32U5xx_HAL_Driver/Src/stm32u5xx_ll_usb.c ****   * @param  hc_num  Host Channel number
2176:Drivers/STM32U5xx_HAL_Driver/Src/stm32u5xx_ll_usb.c ****   *         This parameter can be a value from 1 to 15
2177:Drivers/STM32U5xx_HAL_Driver/Src/stm32u5xx_ll_usb.c ****   * @retval HAL state
2178:Drivers/STM32U5xx_HAL_Driver/Src/stm32u5xx_ll_usb.c ****   */
2179:Drivers/STM32U5xx_HAL_Driver/Src/stm32u5xx_ll_usb.c **** HAL_StatusTypeDef USB_DoPing(USB_OTG_GlobalTypeDef *USBx, uint8_t ch_num)
2180:Drivers/STM32U5xx_HAL_Driver/Src/stm32u5xx_ll_usb.c **** {
 4447              		.loc 1 2180 1 is_stmt 1 view -0
 4448              		.cfi_startproc
 4449              		@ args = 0, pretend = 0, frame = 0
 4450              		@ frame_needed = 0, uses_anonymous_args = 0
 4451              		@ link register save eliminated.
2181:Drivers/STM32U5xx_HAL_Driver/Src/stm32u5xx_ll_usb.c ****   uint32_t USBx_BASE = (uint32_t)USBx;
 4452              		.loc 1 2181 3 view .LVU1430
2182:Drivers/STM32U5xx_HAL_Driver/Src/stm32u5xx_ll_usb.c ****   uint32_t chnum = (uint32_t)ch_num;
 4453              		.loc 1 2182 3 view .LVU1431
2183:Drivers/STM32U5xx_HAL_Driver/Src/stm32u5xx_ll_usb.c ****   uint32_t num_packets = 1U;
 4454              		.loc 1 2183 3 view .LVU1432
2184:Drivers/STM32U5xx_HAL_Driver/Src/stm32u5xx_ll_usb.c ****   uint32_t tmpreg;
 4455              		.loc 1 2184 3 view .LVU1433
2185:Drivers/STM32U5xx_HAL_Driver/Src/stm32u5xx_ll_usb.c **** 
2186:Drivers/STM32U5xx_HAL_Driver/Src/stm32u5xx_ll_usb.c ****   USBx_HC(chnum)->HCTSIZ = ((num_packets << 19) & USB_OTG_HCTSIZ_PKTCNT) |
ARM GAS  /tmp/cc0vokHo.s 			page 136


 4456              		.loc 1 2186 3 view .LVU1434
 4457 0000 00EB4111 		add	r1, r0, r1, lsl #5
 4458              	.LVL349:
 4459              		.loc 1 2186 26 is_stmt 0 view .LVU1435
 4460 0004 064A     		ldr	r2, .L288
 4461 0006 C1F81025 		str	r2, [r1, #1296]
2187:Drivers/STM32U5xx_HAL_Driver/Src/stm32u5xx_ll_usb.c ****                            USB_OTG_HCTSIZ_DOPING;
2188:Drivers/STM32U5xx_HAL_Driver/Src/stm32u5xx_ll_usb.c **** 
2189:Drivers/STM32U5xx_HAL_Driver/Src/stm32u5xx_ll_usb.c ****   /* Set host channel enable */
2190:Drivers/STM32U5xx_HAL_Driver/Src/stm32u5xx_ll_usb.c ****   tmpreg = USBx_HC(chnum)->HCCHAR;
 4462              		.loc 1 2190 3 is_stmt 1 view .LVU1436
 4463              		.loc 1 2190 10 is_stmt 0 view .LVU1437
 4464 000a D1F80035 		ldr	r3, [r1, #1280]
 4465              	.LVL350:
2191:Drivers/STM32U5xx_HAL_Driver/Src/stm32u5xx_ll_usb.c ****   tmpreg &= ~USB_OTG_HCCHAR_CHDIS;
 4466              		.loc 1 2191 3 is_stmt 1 view .LVU1438
 4467              		.loc 1 2191 10 is_stmt 0 view .LVU1439
 4468 000e 23F08043 		bic	r3, r3, #1073741824
 4469              	.LVL351:
2192:Drivers/STM32U5xx_HAL_Driver/Src/stm32u5xx_ll_usb.c ****   tmpreg |= USB_OTG_HCCHAR_CHENA;
 4470              		.loc 1 2192 3 is_stmt 1 view .LVU1440
 4471              		.loc 1 2192 10 is_stmt 0 view .LVU1441
 4472 0012 43F00043 		orr	r3, r3, #-2147483648
 4473              	.LVL352:
2193:Drivers/STM32U5xx_HAL_Driver/Src/stm32u5xx_ll_usb.c ****   USBx_HC(chnum)->HCCHAR = tmpreg;
 4474              		.loc 1 2193 3 is_stmt 1 view .LVU1442
 4475              		.loc 1 2193 26 is_stmt 0 view .LVU1443
 4476 0016 C1F80035 		str	r3, [r1, #1280]
2194:Drivers/STM32U5xx_HAL_Driver/Src/stm32u5xx_ll_usb.c **** 
2195:Drivers/STM32U5xx_HAL_Driver/Src/stm32u5xx_ll_usb.c ****   return HAL_OK;
 4477              		.loc 1 2195 3 is_stmt 1 view .LVU1444
2196:Drivers/STM32U5xx_HAL_Driver/Src/stm32u5xx_ll_usb.c **** }
 4478              		.loc 1 2196 1 is_stmt 0 view .LVU1445
 4479 001a 0020     		movs	r0, #0
 4480              	.LVL353:
 4481              		.loc 1 2196 1 view .LVU1446
 4482 001c 7047     		bx	lr
 4483              	.L289:
 4484 001e 00BF     		.align	2
 4485              	.L288:
 4486 0020 00000880 		.word	-2146959360
 4487              		.cfi_endproc
 4488              	.LFE390:
 4490              		.section	.text.USB_HC_StartXfer,"ax",%progbits
 4491              		.align	1
 4492              		.global	USB_HC_StartXfer
 4493              		.syntax unified
 4494              		.thumb
 4495              		.thumb_func
 4497              	USB_HC_StartXfer:
 4498              	.LVL354:
 4499              	.LFB387:
1821:Drivers/STM32U5xx_HAL_Driver/Src/stm32u5xx_ll_usb.c ****   uint32_t USBx_BASE = (uint32_t)USBx;
 4500              		.loc 1 1821 1 is_stmt 1 view -0
 4501              		.cfi_startproc
 4502              		@ args = 0, pretend = 0, frame = 8
 4503              		@ frame_needed = 0, uses_anonymous_args = 0
ARM GAS  /tmp/cc0vokHo.s 			page 137


1821:Drivers/STM32U5xx_HAL_Driver/Src/stm32u5xx_ll_usb.c ****   uint32_t USBx_BASE = (uint32_t)USBx;
 4504              		.loc 1 1821 1 is_stmt 0 view .LVU1448
 4505 0000 70B5     		push	{r4, r5, r6, lr}
 4506              	.LCFI63:
 4507              		.cfi_def_cfa_offset 16
 4508              		.cfi_offset 4, -16
 4509              		.cfi_offset 5, -12
 4510              		.cfi_offset 6, -8
 4511              		.cfi_offset 14, -4
 4512 0002 84B0     		sub	sp, sp, #16
 4513              	.LCFI64:
 4514              		.cfi_def_cfa_offset 32
1822:Drivers/STM32U5xx_HAL_Driver/Src/stm32u5xx_ll_usb.c ****   uint32_t ch_num = (uint32_t)hc->ch_num;
 4515              		.loc 1 1822 3 is_stmt 1 view .LVU1449
 4516              	.LVL355:
1823:Drivers/STM32U5xx_HAL_Driver/Src/stm32u5xx_ll_usb.c ****   __IO uint32_t tmpreg;
 4517              		.loc 1 1823 3 view .LVU1450
1823:Drivers/STM32U5xx_HAL_Driver/Src/stm32u5xx_ll_usb.c ****   __IO uint32_t tmpreg;
 4518              		.loc 1 1823 33 is_stmt 0 view .LVU1451
 4519 0004 4B78     		ldrb	r3, [r1, #1]	@ zero_extendqisi2
 4520              	.LVL356:
1824:Drivers/STM32U5xx_HAL_Driver/Src/stm32u5xx_ll_usb.c ****   uint8_t  is_oddframe;
 4521              		.loc 1 1824 3 is_stmt 1 view .LVU1452
1825:Drivers/STM32U5xx_HAL_Driver/Src/stm32u5xx_ll_usb.c ****   uint16_t len_words;
 4522              		.loc 1 1825 3 view .LVU1453
1826:Drivers/STM32U5xx_HAL_Driver/Src/stm32u5xx_ll_usb.c ****   uint16_t num_packets;
 4523              		.loc 1 1826 3 view .LVU1454
1827:Drivers/STM32U5xx_HAL_Driver/Src/stm32u5xx_ll_usb.c ****   uint16_t max_hc_pkt_count = HC_MAX_PKT_CNT;
 4524              		.loc 1 1827 3 view .LVU1455
1828:Drivers/STM32U5xx_HAL_Driver/Src/stm32u5xx_ll_usb.c **** 
 4525              		.loc 1 1828 3 view .LVU1456
1830:Drivers/STM32U5xx_HAL_Driver/Src/stm32u5xx_ll_usb.c ****   {
 4526              		.loc 1 1830 3 view .LVU1457
1830:Drivers/STM32U5xx_HAL_Driver/Src/stm32u5xx_ll_usb.c ****   {
 4527              		.loc 1 1830 12 is_stmt 0 view .LVU1458
 4528 0006 C46B     		ldr	r4, [r0, #60]
1830:Drivers/STM32U5xx_HAL_Driver/Src/stm32u5xx_ll_usb.c ****   {
 4529              		.loc 1 1830 6 view .LVU1459
 4530 0008 14F4804F 		tst	r4, #16384
 4531 000c 05D0     		beq	.L291
1833:Drivers/STM32U5xx_HAL_Driver/Src/stm32u5xx_ll_usb.c ****     {
 4532              		.loc 1 1833 5 is_stmt 1 view .LVU1460
1833:Drivers/STM32U5xx_HAL_Driver/Src/stm32u5xx_ll_usb.c ****     {
 4533              		.loc 1 1833 8 is_stmt 0 view .LVU1461
 4534 000e 012A     		cmp	r2, #1
 4535 0010 17D0     		beq	.L324
1845:Drivers/STM32U5xx_HAL_Driver/Src/stm32u5xx_ll_usb.c ****       {
 4536              		.loc 1 1845 7 is_stmt 1 view .LVU1462
1845:Drivers/STM32U5xx_HAL_Driver/Src/stm32u5xx_ll_usb.c ****       {
 4537              		.loc 1 1845 40 is_stmt 0 view .LVU1463
 4538 0012 8C88     		ldrh	r4, [r1, #4]
1845:Drivers/STM32U5xx_HAL_Driver/Src/stm32u5xx_ll_usb.c ****       {
 4539              		.loc 1 1845 10 view .LVU1464
 4540 0014 B4F5807F 		cmp	r4, #256
 4541 0018 20D0     		beq	.L325
 4542              	.L291:
1853:Drivers/STM32U5xx_HAL_Driver/Src/stm32u5xx_ll_usb.c ****   {
ARM GAS  /tmp/cc0vokHo.s 			page 138


 4543              		.loc 1 1853 3 is_stmt 1 view .LVU1465
1853:Drivers/STM32U5xx_HAL_Driver/Src/stm32u5xx_ll_usb.c ****   {
 4544              		.loc 1 1853 9 is_stmt 0 view .LVU1466
 4545 001a 8C79     		ldrb	r4, [r1, #6]	@ zero_extendqisi2
1853:Drivers/STM32U5xx_HAL_Driver/Src/stm32u5xx_ll_usb.c ****   {
 4546              		.loc 1 1853 6 view .LVU1467
 4547 001c 012C     		cmp	r4, #1
 4548 001e 21D0     		beq	.L326
1911:Drivers/STM32U5xx_HAL_Driver/Src/stm32u5xx_ll_usb.c ****     {
 4549              		.loc 1 1911 5 is_stmt 1 view .LVU1468
1911:Drivers/STM32U5xx_HAL_Driver/Src/stm32u5xx_ll_usb.c ****     {
 4550              		.loc 1 1911 11 is_stmt 0 view .LVU1469
 4551 0020 0D6A     		ldr	r5, [r1, #32]
1911:Drivers/STM32U5xx_HAL_Driver/Src/stm32u5xx_ll_usb.c ****     {
 4552              		.loc 1 1911 8 view .LVU1470
 4553 0022 002D     		cmp	r5, #0
 4554 0024 52D0     		beq	.L322
1913:Drivers/STM32U5xx_HAL_Driver/Src/stm32u5xx_ll_usb.c **** 
 4555              		.loc 1 1913 7 is_stmt 1 view .LVU1471
1913:Drivers/STM32U5xx_HAL_Driver/Src/stm32u5xx_ll_usb.c **** 
 4556              		.loc 1 1913 50 is_stmt 0 view .LVU1472
 4557 0026 8E8A     		ldrh	r6, [r1, #20]
1913:Drivers/STM32U5xx_HAL_Driver/Src/stm32u5xx_ll_usb.c **** 
 4558              		.loc 1 1913 46 view .LVU1473
 4559 0028 AC19     		adds	r4, r5, r6
1913:Drivers/STM32U5xx_HAL_Driver/Src/stm32u5xx_ll_usb.c **** 
 4560              		.loc 1 1913 63 view .LVU1474
 4561 002a 013C     		subs	r4, r4, #1
1913:Drivers/STM32U5xx_HAL_Driver/Src/stm32u5xx_ll_usb.c **** 
 4562              		.loc 1 1913 69 view .LVU1475
 4563 002c B4FBF6F4 		udiv	r4, r4, r6
1913:Drivers/STM32U5xx_HAL_Driver/Src/stm32u5xx_ll_usb.c **** 
 4564              		.loc 1 1913 19 view .LVU1476
 4565 0030 A4B2     		uxth	r4, r4
 4566              	.LVL357:
1915:Drivers/STM32U5xx_HAL_Driver/Src/stm32u5xx_ll_usb.c ****       {
 4567              		.loc 1 1915 7 is_stmt 1 view .LVU1477
1915:Drivers/STM32U5xx_HAL_Driver/Src/stm32u5xx_ll_usb.c ****       {
 4568              		.loc 1 1915 10 is_stmt 0 view .LVU1478
 4569 0032 B4F5807F 		cmp	r4, #256
 4570 0036 4AD9     		bls	.L303
1917:Drivers/STM32U5xx_HAL_Driver/Src/stm32u5xx_ll_usb.c ****         hc->XferSize = (uint32_t)num_packets * hc->max_packet;
 4571              		.loc 1 1917 9 is_stmt 1 view .LVU1479
 4572              	.LVL358:
1918:Drivers/STM32U5xx_HAL_Driver/Src/stm32u5xx_ll_usb.c ****       }
 4573              		.loc 1 1918 9 view .LVU1480
1918:Drivers/STM32U5xx_HAL_Driver/Src/stm32u5xx_ll_usb.c ****       }
 4574              		.loc 1 1918 46 is_stmt 0 view .LVU1481
 4575 0038 3602     		lsls	r6, r6, #8
1918:Drivers/STM32U5xx_HAL_Driver/Src/stm32u5xx_ll_usb.c ****       }
 4576              		.loc 1 1918 22 view .LVU1482
 4577 003a CE61     		str	r6, [r1, #28]
1917:Drivers/STM32U5xx_HAL_Driver/Src/stm32u5xx_ll_usb.c ****         hc->XferSize = (uint32_t)num_packets * hc->max_packet;
 4578              		.loc 1 1917 21 view .LVU1483
 4579 003c 4FF48074 		mov	r4, #256
 4580 0040 45E0     		b	.L303
 4581              	.LVL359:
ARM GAS  /tmp/cc0vokHo.s 			page 139


 4582              	.L324:
1835:Drivers/STM32U5xx_HAL_Driver/Src/stm32u5xx_ll_usb.c ****       {
 4583              		.loc 1 1835 7 is_stmt 1 view .LVU1484
1835:Drivers/STM32U5xx_HAL_Driver/Src/stm32u5xx_ll_usb.c ****       {
 4584              		.loc 1 1835 14 is_stmt 0 view .LVU1485
 4585 0042 8C7C     		ldrb	r4, [r1, #18]	@ zero_extendqisi2
1835:Drivers/STM32U5xx_HAL_Driver/Src/stm32u5xx_ll_usb.c ****       {
 4586              		.loc 1 1835 10 view .LVU1486
 4587 0044 0CB1     		cbz	r4, .L293
1835:Drivers/STM32U5xx_HAL_Driver/Src/stm32u5xx_ll_usb.c ****       {
 4588              		.loc 1 1835 41 discriminator 1 view .LVU1487
 4589 0046 022C     		cmp	r4, #2
 4590 0048 E7D1     		bne	.L291
 4591              	.L293:
1838:Drivers/STM32U5xx_HAL_Driver/Src/stm32u5xx_ll_usb.c ****                                                  USB_OTG_HCINTMSK_ACKM |
 4592              		.loc 1 1838 9 is_stmt 1 view .LVU1488
1838:Drivers/STM32U5xx_HAL_Driver/Src/stm32u5xx_ll_usb.c ****                                                  USB_OTG_HCINTMSK_ACKM |
 4593              		.loc 1 1838 45 is_stmt 0 view .LVU1489
 4594 004a 00EB4314 		add	r4, r0, r3, lsl #5
 4595 004e D4F80C55 		ldr	r5, [r4, #1292]
 4596 0052 25F07005 		bic	r5, r5, #112
 4597 0056 C4F80C55 		str	r5, [r4, #1292]
 4598 005a DEE7     		b	.L291
 4599              	.L325:
1847:Drivers/STM32U5xx_HAL_Driver/Src/stm32u5xx_ll_usb.c ****         return HAL_OK;
 4600              		.loc 1 1847 9 is_stmt 1 view .LVU1490
1847:Drivers/STM32U5xx_HAL_Driver/Src/stm32u5xx_ll_usb.c ****         return HAL_OK;
 4601              		.loc 1 1847 15 is_stmt 0 view .LVU1491
 4602 005c 1946     		mov	r1, r3
 4603              	.LVL360:
1847:Drivers/STM32U5xx_HAL_Driver/Src/stm32u5xx_ll_usb.c ****         return HAL_OK;
 4604              		.loc 1 1847 15 view .LVU1492
 4605 005e FFF7FEFF 		bl	USB_DoPing
 4606              	.LVL361:
1848:Drivers/STM32U5xx_HAL_Driver/Src/stm32u5xx_ll_usb.c ****       }
 4607              		.loc 1 1848 9 is_stmt 1 view .LVU1493
1848:Drivers/STM32U5xx_HAL_Driver/Src/stm32u5xx_ll_usb.c ****       }
 4608              		.loc 1 1848 16 is_stmt 0 view .LVU1494
 4609 0062 0DE1     		b	.L294
 4610              	.LVL362:
 4611              	.L326:
1856:Drivers/STM32U5xx_HAL_Driver/Src/stm32u5xx_ll_usb.c **** 
 4612              		.loc 1 1856 5 is_stmt 1 view .LVU1495
1858:Drivers/STM32U5xx_HAL_Driver/Src/stm32u5xx_ll_usb.c ****     {
 4613              		.loc 1 1858 5 view .LVU1496
1858:Drivers/STM32U5xx_HAL_Driver/Src/stm32u5xx_ll_usb.c ****     {
 4614              		.loc 1 1858 11 is_stmt 0 view .LVU1497
 4615 0064 8C78     		ldrb	r4, [r1, #2]	@ zero_extendqisi2
1858:Drivers/STM32U5xx_HAL_Driver/Src/stm32u5xx_ll_usb.c ****     {
 4616              		.loc 1 1858 8 view .LVU1498
 4617 0066 1CB1     		cbz	r4, .L296
1860:Drivers/STM32U5xx_HAL_Driver/Src/stm32u5xx_ll_usb.c ****     }
 4618              		.loc 1 1860 7 is_stmt 1 view .LVU1499
1860:Drivers/STM32U5xx_HAL_Driver/Src/stm32u5xx_ll_usb.c ****     }
 4619              		.loc 1 1860 48 is_stmt 0 view .LVU1500
 4620 0068 8C8A     		ldrh	r4, [r1, #20]
1860:Drivers/STM32U5xx_HAL_Driver/Src/stm32u5xx_ll_usb.c ****     }
ARM GAS  /tmp/cc0vokHo.s 			page 140


 4621              		.loc 1 1860 20 view .LVU1501
 4622 006a CC61     		str	r4, [r1, #28]
1856:Drivers/STM32U5xx_HAL_Driver/Src/stm32u5xx_ll_usb.c **** 
 4623              		.loc 1 1856 17 view .LVU1502
 4624 006c 0124     		movs	r4, #1
 4625 006e 35E0     		b	.L297
 4626              	.L296:
1864:Drivers/STM32U5xx_HAL_Driver/Src/stm32u5xx_ll_usb.c ****       {
 4627              		.loc 1 1864 7 is_stmt 1 view .LVU1503
1864:Drivers/STM32U5xx_HAL_Driver/Src/stm32u5xx_ll_usb.c ****       {
 4628              		.loc 1 1864 13 is_stmt 0 view .LVU1504
 4629 0070 8C7C     		ldrb	r4, [r1, #18]	@ zero_extendqisi2
1864:Drivers/STM32U5xx_HAL_Driver/Src/stm32u5xx_ll_usb.c ****       {
 4630              		.loc 1 1864 10 view .LVU1505
 4631 0072 012C     		cmp	r4, #1
 4632 0074 05D0     		beq	.L327
1897:Drivers/STM32U5xx_HAL_Driver/Src/stm32u5xx_ll_usb.c ****         {
 4633              		.loc 1 1897 9 is_stmt 1 view .LVU1506
1897:Drivers/STM32U5xx_HAL_Driver/Src/stm32u5xx_ll_usb.c ****         {
 4634              		.loc 1 1897 12 is_stmt 0 view .LVU1507
 4635 0076 012A     		cmp	r2, #1
 4636 0078 21D0     		beq	.L328
 4637              	.L302:
1903:Drivers/STM32U5xx_HAL_Driver/Src/stm32u5xx_ll_usb.c ****         }
 4638              		.loc 1 1903 11 is_stmt 1 view .LVU1508
1903:Drivers/STM32U5xx_HAL_Driver/Src/stm32u5xx_ll_usb.c ****         }
 4639              		.loc 1 1903 28 is_stmt 0 view .LVU1509
 4640 007a 0C6A     		ldr	r4, [r1, #32]
1903:Drivers/STM32U5xx_HAL_Driver/Src/stm32u5xx_ll_usb.c ****         }
 4641              		.loc 1 1903 24 view .LVU1510
 4642 007c CC61     		str	r4, [r1, #28]
1856:Drivers/STM32U5xx_HAL_Driver/Src/stm32u5xx_ll_usb.c **** 
 4643              		.loc 1 1856 17 view .LVU1511
 4644 007e 0124     		movs	r4, #1
 4645 0080 2CE0     		b	.L297
 4646              	.L327:
1866:Drivers/STM32U5xx_HAL_Driver/Src/stm32u5xx_ll_usb.c ****         {
 4647              		.loc 1 1866 9 is_stmt 1 view .LVU1512
1866:Drivers/STM32U5xx_HAL_Driver/Src/stm32u5xx_ll_usb.c ****         {
 4648              		.loc 1 1866 15 is_stmt 0 view .LVU1513
 4649 0082 0C6A     		ldr	r4, [r1, #32]
1866:Drivers/STM32U5xx_HAL_Driver/Src/stm32u5xx_ll_usb.c ****         {
 4650              		.loc 1 1866 12 view .LVU1514
 4651 0084 BC2C     		cmp	r4, #188
 4652 0086 0DD9     		bls	.L299
1869:Drivers/STM32U5xx_HAL_Driver/Src/stm32u5xx_ll_usb.c ****           hc->xfer_len = hc->XferSize;
 4653              		.loc 1 1869 11 is_stmt 1 view .LVU1515
1869:Drivers/STM32U5xx_HAL_Driver/Src/stm32u5xx_ll_usb.c ****           hc->xfer_len = hc->XferSize;
 4654              		.loc 1 1869 28 is_stmt 0 view .LVU1516
 4655 0088 8C8A     		ldrh	r4, [r1, #20]
1869:Drivers/STM32U5xx_HAL_Driver/Src/stm32u5xx_ll_usb.c ****           hc->xfer_len = hc->XferSize;
 4656              		.loc 1 1869 24 view .LVU1517
 4657 008a CC61     		str	r4, [r1, #28]
1870:Drivers/STM32U5xx_HAL_Driver/Src/stm32u5xx_ll_usb.c **** 
 4658              		.loc 1 1870 11 is_stmt 1 view .LVU1518
1870:Drivers/STM32U5xx_HAL_Driver/Src/stm32u5xx_ll_usb.c **** 
 4659              		.loc 1 1870 24 is_stmt 0 view .LVU1519
ARM GAS  /tmp/cc0vokHo.s 			page 141


 4660 008c 0C62     		str	r4, [r1, #32]
1872:Drivers/STM32U5xx_HAL_Driver/Src/stm32u5xx_ll_usb.c ****           {
 4661              		.loc 1 1872 11 is_stmt 1 view .LVU1520
1872:Drivers/STM32U5xx_HAL_Driver/Src/stm32u5xx_ll_usb.c ****           {
 4662              		.loc 1 1872 18 is_stmt 0 view .LVU1521
 4663 008e CC68     		ldr	r4, [r1, #12]
1872:Drivers/STM32U5xx_HAL_Driver/Src/stm32u5xx_ll_usb.c ****           {
 4664              		.loc 1 1872 54 view .LVU1522
 4665 0090 013C     		subs	r4, r4, #1
1872:Drivers/STM32U5xx_HAL_Driver/Src/stm32u5xx_ll_usb.c ****           {
 4666              		.loc 1 1872 14 view .LVU1523
 4667 0092 012C     		cmp	r4, #1
 4668 0094 02D9     		bls	.L329
1878:Drivers/STM32U5xx_HAL_Driver/Src/stm32u5xx_ll_usb.c ****           }
 4669              		.loc 1 1878 13 is_stmt 1 view .LVU1524
1878:Drivers/STM32U5xx_HAL_Driver/Src/stm32u5xx_ll_usb.c ****           }
 4670              		.loc 1 1878 34 is_stmt 0 view .LVU1525
 4671 0096 0124     		movs	r4, #1
 4672 0098 CC60     		str	r4, [r1, #12]
 4673 009a 1FE0     		b	.L297
 4674              	.L329:
1874:Drivers/STM32U5xx_HAL_Driver/Src/stm32u5xx_ll_usb.c ****           }
 4675              		.loc 1 1874 13 is_stmt 1 view .LVU1526
1874:Drivers/STM32U5xx_HAL_Driver/Src/stm32u5xx_ll_usb.c ****           }
 4676              		.loc 1 1874 34 is_stmt 0 view .LVU1527
 4677 009c 0224     		movs	r4, #2
 4678 009e CC60     		str	r4, [r1, #12]
1856:Drivers/STM32U5xx_HAL_Driver/Src/stm32u5xx_ll_usb.c **** 
 4679              		.loc 1 1856 17 view .LVU1528
 4680 00a0 0124     		movs	r4, #1
 4681 00a2 1BE0     		b	.L297
 4682              	.L299:
1883:Drivers/STM32U5xx_HAL_Driver/Src/stm32u5xx_ll_usb.c **** 
 4683              		.loc 1 1883 11 is_stmt 1 view .LVU1529
1883:Drivers/STM32U5xx_HAL_Driver/Src/stm32u5xx_ll_usb.c **** 
 4684              		.loc 1 1883 24 is_stmt 0 view .LVU1530
 4685 00a4 CC61     		str	r4, [r1, #28]
1885:Drivers/STM32U5xx_HAL_Driver/Src/stm32u5xx_ll_usb.c ****           {
 4686              		.loc 1 1885 11 is_stmt 1 view .LVU1531
1885:Drivers/STM32U5xx_HAL_Driver/Src/stm32u5xx_ll_usb.c ****           {
 4687              		.loc 1 1885 18 is_stmt 0 view .LVU1532
 4688 00a6 CC68     		ldr	r4, [r1, #12]
1885:Drivers/STM32U5xx_HAL_Driver/Src/stm32u5xx_ll_usb.c ****           {
 4689              		.loc 1 1885 54 view .LVU1533
 4690 00a8 013C     		subs	r4, r4, #1
1885:Drivers/STM32U5xx_HAL_Driver/Src/stm32u5xx_ll_usb.c ****           {
 4691              		.loc 1 1885 14 view .LVU1534
 4692 00aa 012C     		cmp	r4, #1
 4693 00ac 03D9     		bls	.L301
1887:Drivers/STM32U5xx_HAL_Driver/Src/stm32u5xx_ll_usb.c ****           }
 4694              		.loc 1 1887 13 is_stmt 1 view .LVU1535
1887:Drivers/STM32U5xx_HAL_Driver/Src/stm32u5xx_ll_usb.c ****           }
 4695              		.loc 1 1887 34 is_stmt 0 view .LVU1536
 4696 00ae 0424     		movs	r4, #4
 4697 00b0 CC60     		str	r4, [r1, #12]
1856:Drivers/STM32U5xx_HAL_Driver/Src/stm32u5xx_ll_usb.c **** 
 4698              		.loc 1 1856 17 view .LVU1537
ARM GAS  /tmp/cc0vokHo.s 			page 142


 4699 00b2 0124     		movs	r4, #1
 4700 00b4 12E0     		b	.L297
 4701              	.L301:
1891:Drivers/STM32U5xx_HAL_Driver/Src/stm32u5xx_ll_usb.c ****           }
 4702              		.loc 1 1891 13 is_stmt 1 view .LVU1538
1891:Drivers/STM32U5xx_HAL_Driver/Src/stm32u5xx_ll_usb.c ****           }
 4703              		.loc 1 1891 34 is_stmt 0 view .LVU1539
 4704 00b6 0324     		movs	r4, #3
 4705 00b8 CC60     		str	r4, [r1, #12]
1856:Drivers/STM32U5xx_HAL_Driver/Src/stm32u5xx_ll_usb.c **** 
 4706              		.loc 1 1856 17 view .LVU1540
 4707 00ba 0124     		movs	r4, #1
 4708 00bc 0EE0     		b	.L297
 4709              	.L328:
1897:Drivers/STM32U5xx_HAL_Driver/Src/stm32u5xx_ll_usb.c ****         {
 4710              		.loc 1 1897 31 discriminator 1 view .LVU1541
 4711 00be 0D6A     		ldr	r5, [r1, #32]
1897:Drivers/STM32U5xx_HAL_Driver/Src/stm32u5xx_ll_usb.c ****         {
 4712              		.loc 1 1897 46 discriminator 1 view .LVU1542
 4713 00c0 8C8A     		ldrh	r4, [r1, #20]
1897:Drivers/STM32U5xx_HAL_Driver/Src/stm32u5xx_ll_usb.c ****         {
 4714              		.loc 1 1897 25 discriminator 1 view .LVU1543
 4715 00c2 A542     		cmp	r5, r4
 4716 00c4 D9D9     		bls	.L302
1899:Drivers/STM32U5xx_HAL_Driver/Src/stm32u5xx_ll_usb.c ****         }
 4717              		.loc 1 1899 11 is_stmt 1 view .LVU1544
1899:Drivers/STM32U5xx_HAL_Driver/Src/stm32u5xx_ll_usb.c ****         }
 4718              		.loc 1 1899 24 is_stmt 0 view .LVU1545
 4719 00c6 CC61     		str	r4, [r1, #28]
1856:Drivers/STM32U5xx_HAL_Driver/Src/stm32u5xx_ll_usb.c **** 
 4720              		.loc 1 1856 17 view .LVU1546
 4721 00c8 0124     		movs	r4, #1
1899:Drivers/STM32U5xx_HAL_Driver/Src/stm32u5xx_ll_usb.c ****         }
 4722              		.loc 1 1899 24 view .LVU1547
 4723 00ca 07E0     		b	.L297
 4724              	.LVL363:
 4725              	.L322:
1923:Drivers/STM32U5xx_HAL_Driver/Src/stm32u5xx_ll_usb.c ****     }
 4726              		.loc 1 1923 19 view .LVU1548
 4727 00cc 0124     		movs	r4, #1
 4728              	.L303:
 4729              	.LVL364:
1930:Drivers/STM32U5xx_HAL_Driver/Src/stm32u5xx_ll_usb.c ****     {
 4730              		.loc 1 1930 5 is_stmt 1 view .LVU1549
1930:Drivers/STM32U5xx_HAL_Driver/Src/stm32u5xx_ll_usb.c ****     {
 4731              		.loc 1 1930 11 is_stmt 0 view .LVU1550
 4732 00ce 8E78     		ldrb	r6, [r1, #2]	@ zero_extendqisi2
1930:Drivers/STM32U5xx_HAL_Driver/Src/stm32u5xx_ll_usb.c ****     {
 4733              		.loc 1 1930 8 view .LVU1551
 4734 00d0 002E     		cmp	r6, #0
 4735 00d2 5FD0     		beq	.L304
1932:Drivers/STM32U5xx_HAL_Driver/Src/stm32u5xx_ll_usb.c ****     }
 4736              		.loc 1 1932 7 is_stmt 1 view .LVU1552
1932:Drivers/STM32U5xx_HAL_Driver/Src/stm32u5xx_ll_usb.c ****     }
 4737              		.loc 1 1932 48 is_stmt 0 view .LVU1553
 4738 00d4 8D8A     		ldrh	r5, [r1, #20]
1932:Drivers/STM32U5xx_HAL_Driver/Src/stm32u5xx_ll_usb.c ****     }
ARM GAS  /tmp/cc0vokHo.s 			page 143


 4739              		.loc 1 1932 44 view .LVU1554
 4740 00d6 04FB05F5 		mul	r5, r4, r5
1932:Drivers/STM32U5xx_HAL_Driver/Src/stm32u5xx_ll_usb.c ****     }
 4741              		.loc 1 1932 20 view .LVU1555
 4742 00da CD61     		str	r5, [r1, #28]
 4743              	.LVL365:
 4744              	.L297:
1941:Drivers/STM32U5xx_HAL_Driver/Src/stm32u5xx_ll_usb.c ****                             (((uint32_t)num_packets << 19) & USB_OTG_HCTSIZ_PKTCNT) |
 4745              		.loc 1 1941 3 is_stmt 1 view .LVU1556
1941:Drivers/STM32U5xx_HAL_Driver/Src/stm32u5xx_ll_usb.c ****                             (((uint32_t)num_packets << 19) & USB_OTG_HCTSIZ_PKTCNT) |
 4746              		.loc 1 1941 43 is_stmt 0 view .LVU1557
 4747 00dc CD69     		ldr	r5, [r1, #28]
 4748 00de C5F3120C 		ubfx	ip, r5, #0, #19
1942:Drivers/STM32U5xx_HAL_Driver/Src/stm32u5xx_ll_usb.c ****                             (((uint32_t)hc->data_pid << 29) & USB_OTG_HCTSIZ_DPID);
 4749              		.loc 1 1942 60 view .LVU1558
 4750 00e2 6F4D     		ldr	r5, .L332
 4751 00e4 05EAC444 		and	r4, r5, r4, lsl #19
 4752              	.LVL366:
1941:Drivers/STM32U5xx_HAL_Driver/Src/stm32u5xx_ll_usb.c ****                             (((uint32_t)num_packets << 19) & USB_OTG_HCTSIZ_PKTCNT) |
 4753              		.loc 1 1941 68 view .LVU1559
 4754 00e8 4CEA040C 		orr	ip, ip, r4
1943:Drivers/STM32U5xx_HAL_Driver/Src/stm32u5xx_ll_usb.c **** 
 4755              		.loc 1 1943 43 view .LVU1560
 4756 00ec 8C7D     		ldrb	r4, [r1, #22]	@ zero_extendqisi2
1943:Drivers/STM32U5xx_HAL_Driver/Src/stm32u5xx_ll_usb.c **** 
 4757              		.loc 1 1943 54 view .LVU1561
 4758 00ee 6407     		lsls	r4, r4, #29
1943:Drivers/STM32U5xx_HAL_Driver/Src/stm32u5xx_ll_usb.c **** 
 4759              		.loc 1 1943 61 view .LVU1562
 4760 00f0 04F0C044 		and	r4, r4, #1610612736
1941:Drivers/STM32U5xx_HAL_Driver/Src/stm32u5xx_ll_usb.c ****                             (((uint32_t)num_packets << 19) & USB_OTG_HCTSIZ_PKTCNT) |
 4761              		.loc 1 1941 3 view .LVU1563
 4762 00f4 00EB4313 		add	r3, r0, r3, lsl #5
 4763              	.LVL367:
1941:Drivers/STM32U5xx_HAL_Driver/Src/stm32u5xx_ll_usb.c ****                             (((uint32_t)num_packets << 19) & USB_OTG_HCTSIZ_PKTCNT) |
 4764              		.loc 1 1941 3 view .LVU1564
 4765 00f8 03F5A06E 		add	lr, r3, #1280
1942:Drivers/STM32U5xx_HAL_Driver/Src/stm32u5xx_ll_usb.c ****                             (((uint32_t)hc->data_pid << 29) & USB_OTG_HCTSIZ_DPID);
 4766              		.loc 1 1942 85 view .LVU1565
 4767 00fc 4CEA0404 		orr	r4, ip, r4
1941:Drivers/STM32U5xx_HAL_Driver/Src/stm32u5xx_ll_usb.c ****                             (((uint32_t)num_packets << 19) & USB_OTG_HCTSIZ_PKTCNT) |
 4768              		.loc 1 1941 27 view .LVU1566
 4769 0100 CEF81040 		str	r4, [lr, #16]
1945:Drivers/STM32U5xx_HAL_Driver/Src/stm32u5xx_ll_usb.c ****   {
 4770              		.loc 1 1945 3 is_stmt 1 view .LVU1567
1945:Drivers/STM32U5xx_HAL_Driver/Src/stm32u5xx_ll_usb.c ****   {
 4771              		.loc 1 1945 6 is_stmt 0 view .LVU1568
 4772 0104 12B1     		cbz	r2, .L305
1948:Drivers/STM32U5xx_HAL_Driver/Src/stm32u5xx_ll_usb.c ****   }
 4773              		.loc 1 1948 5 is_stmt 1 view .LVU1569
1948:Drivers/STM32U5xx_HAL_Driver/Src/stm32u5xx_ll_usb.c ****   }
 4774              		.loc 1 1948 42 is_stmt 0 view .LVU1570
 4775 0106 8C69     		ldr	r4, [r1, #24]
1948:Drivers/STM32U5xx_HAL_Driver/Src/stm32u5xx_ll_usb.c ****   }
 4776              		.loc 1 1948 28 view .LVU1571
 4777 0108 CEF81440 		str	r4, [lr, #20]
 4778              	.L305:
ARM GAS  /tmp/cc0vokHo.s 			page 144


1951:Drivers/STM32U5xx_HAL_Driver/Src/stm32u5xx_ll_usb.c ****   USBx_HC(ch_num)->HCCHAR &= ~USB_OTG_HCCHAR_ODDFRM;
 4779              		.loc 1 1951 3 is_stmt 1 view .LVU1572
1951:Drivers/STM32U5xx_HAL_Driver/Src/stm32u5xx_ll_usb.c ****   USBx_HC(ch_num)->HCCHAR &= ~USB_OTG_HCCHAR_ODDFRM;
 4780              		.loc 1 1951 29 is_stmt 0 view .LVU1573
 4781 010c 00F5806C 		add	ip, r0, #1024
1951:Drivers/STM32U5xx_HAL_Driver/Src/stm32u5xx_ll_usb.c ****   USBx_HC(ch_num)->HCCHAR &= ~USB_OTG_HCCHAR_ODDFRM;
 4782              		.loc 1 1951 38 view .LVU1574
 4783 0110 DCF80840 		ldr	r4, [ip, #8]
1951:Drivers/STM32U5xx_HAL_Driver/Src/stm32u5xx_ll_usb.c ****   USBx_HC(ch_num)->HCCHAR &= ~USB_OTG_HCCHAR_ODDFRM;
 4784              		.loc 1 1951 67 view .LVU1575
 4785 0114 14F0010F 		tst	r4, #1
 4786 0118 0CBF     		ite	eq
 4787 011a 0126     		moveq	r6, #1
 4788 011c 0026     		movne	r6, #0
 4789              	.LVL368:
1952:Drivers/STM32U5xx_HAL_Driver/Src/stm32u5xx_ll_usb.c ****   USBx_HC(ch_num)->HCCHAR |= (uint32_t)is_oddframe << 29;
 4790              		.loc 1 1952 3 is_stmt 1 view .LVU1576
1952:Drivers/STM32U5xx_HAL_Driver/Src/stm32u5xx_ll_usb.c ****   USBx_HC(ch_num)->HCCHAR |= (uint32_t)is_oddframe << 29;
 4791              		.loc 1 1952 27 is_stmt 0 view .LVU1577
 4792 011e D3F80055 		ldr	r5, [r3, #1280]
 4793 0122 25F00055 		bic	r5, r5, #536870912
 4794 0126 C3F80055 		str	r5, [r3, #1280]
1953:Drivers/STM32U5xx_HAL_Driver/Src/stm32u5xx_ll_usb.c **** 
 4795              		.loc 1 1953 3 is_stmt 1 view .LVU1578
1953:Drivers/STM32U5xx_HAL_Driver/Src/stm32u5xx_ll_usb.c **** 
 4796              		.loc 1 1953 27 is_stmt 0 view .LVU1579
 4797 012a D3F80045 		ldr	r4, [r3, #1280]
 4798 012e 44EA4674 		orr	r4, r4, r6, lsl #29
 4799 0132 C3F80045 		str	r4, [r3, #1280]
1955:Drivers/STM32U5xx_HAL_Driver/Src/stm32u5xx_ll_usb.c ****   {
 4800              		.loc 1 1955 3 is_stmt 1 view .LVU1580
1955:Drivers/STM32U5xx_HAL_Driver/Src/stm32u5xx_ll_usb.c ****   {
 4801              		.loc 1 1955 9 is_stmt 0 view .LVU1581
 4802 0136 8C79     		ldrb	r4, [r1, #6]	@ zero_extendqisi2
1955:Drivers/STM32U5xx_HAL_Driver/Src/stm32u5xx_ll_usb.c ****   {
 4803              		.loc 1 1955 6 view .LVU1582
 4804 0138 012C     		cmp	r4, #1
 4805 013a 2DD0     		beq	.L330
2011:Drivers/STM32U5xx_HAL_Driver/Src/stm32u5xx_ll_usb.c ****   }
 4806              		.loc 1 2011 5 is_stmt 1 view .LVU1583
2011:Drivers/STM32U5xx_HAL_Driver/Src/stm32u5xx_ll_usb.c ****   }
 4807              		.loc 1 2011 39 is_stmt 0 view .LVU1584
 4808 013c 0024     		movs	r4, #0
 4809 013e CEF80440 		str	r4, [lr, #4]
 4810              	.L310:
2015:Drivers/STM32U5xx_HAL_Driver/Src/stm32u5xx_ll_usb.c ****   tmpreg &= ~USB_OTG_HCCHAR_CHDIS;
 4811              		.loc 1 2015 3 is_stmt 1 view .LVU1585
2015:Drivers/STM32U5xx_HAL_Driver/Src/stm32u5xx_ll_usb.c ****   tmpreg &= ~USB_OTG_HCCHAR_CHDIS;
 4812              		.loc 1 2015 27 is_stmt 0 view .LVU1586
 4813 0142 D3F80045 		ldr	r4, [r3, #1280]
2015:Drivers/STM32U5xx_HAL_Driver/Src/stm32u5xx_ll_usb.c ****   tmpreg &= ~USB_OTG_HCCHAR_CHDIS;
 4814              		.loc 1 2015 10 view .LVU1587
 4815 0146 0394     		str	r4, [sp, #12]
2016:Drivers/STM32U5xx_HAL_Driver/Src/stm32u5xx_ll_usb.c **** 
 4816              		.loc 1 2016 3 is_stmt 1 view .LVU1588
2016:Drivers/STM32U5xx_HAL_Driver/Src/stm32u5xx_ll_usb.c **** 
 4817              		.loc 1 2016 10 is_stmt 0 view .LVU1589
ARM GAS  /tmp/cc0vokHo.s 			page 145


 4818 0148 039C     		ldr	r4, [sp, #12]
 4819 014a 24F08044 		bic	r4, r4, #1073741824
 4820 014e 0394     		str	r4, [sp, #12]
2019:Drivers/STM32U5xx_HAL_Driver/Src/stm32u5xx_ll_usb.c ****   {
 4821              		.loc 1 2019 3 is_stmt 1 view .LVU1590
2019:Drivers/STM32U5xx_HAL_Driver/Src/stm32u5xx_ll_usb.c ****   {
 4822              		.loc 1 2019 9 is_stmt 0 view .LVU1591
 4823 0150 8C78     		ldrb	r4, [r1, #2]	@ zero_extendqisi2
2019:Drivers/STM32U5xx_HAL_Driver/Src/stm32u5xx_ll_usb.c ****   {
 4824              		.loc 1 2019 6 view .LVU1592
 4825 0152 002C     		cmp	r4, #0
 4826 0154 7DD0     		beq	.L316
2021:Drivers/STM32U5xx_HAL_Driver/Src/stm32u5xx_ll_usb.c ****   }
 4827              		.loc 1 2021 5 is_stmt 1 view .LVU1593
2021:Drivers/STM32U5xx_HAL_Driver/Src/stm32u5xx_ll_usb.c ****   }
 4828              		.loc 1 2021 12 is_stmt 0 view .LVU1594
 4829 0156 039C     		ldr	r4, [sp, #12]
 4830 0158 44F40044 		orr	r4, r4, #32768
 4831 015c 0394     		str	r4, [sp, #12]
 4832              	.L317:
2027:Drivers/STM32U5xx_HAL_Driver/Src/stm32u5xx_ll_usb.c ****   USBx_HC(ch_num)->HCCHAR = tmpreg;
 4833              		.loc 1 2027 3 is_stmt 1 view .LVU1595
2027:Drivers/STM32U5xx_HAL_Driver/Src/stm32u5xx_ll_usb.c ****   USBx_HC(ch_num)->HCCHAR = tmpreg;
 4834              		.loc 1 2027 10 is_stmt 0 view .LVU1596
 4835 015e 039C     		ldr	r4, [sp, #12]
 4836 0160 44F00044 		orr	r4, r4, #-2147483648
 4837 0164 0394     		str	r4, [sp, #12]
2028:Drivers/STM32U5xx_HAL_Driver/Src/stm32u5xx_ll_usb.c **** 
 4838              		.loc 1 2028 3 is_stmt 1 view .LVU1597
2028:Drivers/STM32U5xx_HAL_Driver/Src/stm32u5xx_ll_usb.c **** 
 4839              		.loc 1 2028 27 is_stmt 0 view .LVU1598
 4840 0166 039C     		ldr	r4, [sp, #12]
 4841 0168 C3F80045 		str	r4, [r3, #1280]
2030:Drivers/STM32U5xx_HAL_Driver/Src/stm32u5xx_ll_usb.c ****   {
 4842              		.loc 1 2030 3 is_stmt 1 view .LVU1599
2030:Drivers/STM32U5xx_HAL_Driver/Src/stm32u5xx_ll_usb.c ****   {
 4843              		.loc 1 2030 6 is_stmt 0 view .LVU1600
 4844 016c 002A     		cmp	r2, #0
 4845 016e 40F08780 		bne	.L294
2035:Drivers/STM32U5xx_HAL_Driver/Src/stm32u5xx_ll_usb.c ****   {
 4846              		.loc 1 2035 3 is_stmt 1 view .LVU1601
2035:Drivers/STM32U5xx_HAL_Driver/Src/stm32u5xx_ll_usb.c ****   {
 4847              		.loc 1 2035 10 is_stmt 0 view .LVU1602
 4848 0172 8B78     		ldrb	r3, [r1, #2]	@ zero_extendqisi2
2035:Drivers/STM32U5xx_HAL_Driver/Src/stm32u5xx_ll_usb.c ****   {
 4849              		.loc 1 2035 6 view .LVU1603
 4850 0174 002B     		cmp	r3, #0
 4851 0176 40F08380 		bne	.L294
2035:Drivers/STM32U5xx_HAL_Driver/Src/stm32u5xx_ll_usb.c ****   {
 4852              		.loc 1 2035 34 discriminator 1 view .LVU1604
 4853 017a 0B6A     		ldr	r3, [r1, #32]
2035:Drivers/STM32U5xx_HAL_Driver/Src/stm32u5xx_ll_usb.c ****   {
 4854              		.loc 1 2035 28 discriminator 1 view .LVU1605
 4855 017c 002B     		cmp	r3, #0
 4856 017e 7FD0     		beq	.L294
2035:Drivers/STM32U5xx_HAL_Driver/Src/stm32u5xx_ll_usb.c ****   {
 4857              		.loc 1 2035 57 discriminator 2 view .LVU1606
ARM GAS  /tmp/cc0vokHo.s 			page 146


 4858 0180 CA79     		ldrb	r2, [r1, #7]	@ zero_extendqisi2
 4859              	.LVL369:
2035:Drivers/STM32U5xx_HAL_Driver/Src/stm32u5xx_ll_usb.c ****   {
 4860              		.loc 1 2035 51 discriminator 2 view .LVU1607
 4861 0182 002A     		cmp	r2, #0
 4862 0184 7CD1     		bne	.L294
2037:Drivers/STM32U5xx_HAL_Driver/Src/stm32u5xx_ll_usb.c ****     {
 4863              		.loc 1 2037 5 is_stmt 1 view .LVU1608
2037:Drivers/STM32U5xx_HAL_Driver/Src/stm32u5xx_ll_usb.c ****     {
 4864              		.loc 1 2037 15 is_stmt 0 view .LVU1609
 4865 0186 8A7C     		ldrb	r2, [r1, #18]	@ zero_extendqisi2
2037:Drivers/STM32U5xx_HAL_Driver/Src/stm32u5xx_ll_usb.c ****     {
 4866              		.loc 1 2037 5 view .LVU1610
 4867 0188 032A     		cmp	r2, #3
 4868 018a 72D8     		bhi	.L318
 4869 018c DFE802F0 		tbb	[pc, r2]
 4870              	.L320:
 4871 0190 66       		.byte	(.L321-.L320)/2
 4872 0191 7B       		.byte	(.L319-.L320)/2
 4873 0192 66       		.byte	(.L321-.L320)/2
 4874 0193 7B       		.byte	(.L319-.L320)/2
 4875              	.LVL370:
 4876              		.p2align 1
 4877              	.L304:
1936:Drivers/STM32U5xx_HAL_Driver/Src/stm32u5xx_ll_usb.c ****     }
 4878              		.loc 1 1936 7 is_stmt 1 view .LVU1611
1936:Drivers/STM32U5xx_HAL_Driver/Src/stm32u5xx_ll_usb.c ****     }
 4879              		.loc 1 1936 20 is_stmt 0 view .LVU1612
 4880 0194 CD61     		str	r5, [r1, #28]
 4881 0196 A1E7     		b	.L297
 4882              	.LVL371:
 4883              	.L330:
1958:Drivers/STM32U5xx_HAL_Driver/Src/stm32u5xx_ll_usb.c ****                                         (uint32_t)hc->hub_port_nbr | USB_OTG_HCSPLT_SPLITEN;
 4884              		.loc 1 1958 5 is_stmt 1 view .LVU1613
1958:Drivers/STM32U5xx_HAL_Driver/Src/stm32u5xx_ll_usb.c ****                                         (uint32_t)hc->hub_port_nbr | USB_OTG_HCSPLT_SPLITEN;
 4885              		.loc 1 1958 54 is_stmt 0 view .LVU1614
 4886 0198 4D7C     		ldrb	r5, [r1, #17]	@ zero_extendqisi2
1959:Drivers/STM32U5xx_HAL_Driver/Src/stm32u5xx_ll_usb.c **** 
 4887              		.loc 1 1959 53 view .LVU1615
 4888 019a 0C7C     		ldrb	r4, [r1, #16]	@ zero_extendqisi2
1958:Drivers/STM32U5xx_HAL_Driver/Src/stm32u5xx_ll_usb.c ****                                         (uint32_t)hc->hub_port_nbr | USB_OTG_HCSPLT_SPLITEN;
 4889              		.loc 1 1958 96 view .LVU1616
 4890 019c 44EAC514 		orr	r4, r4, r5, lsl #7
1959:Drivers/STM32U5xx_HAL_Driver/Src/stm32u5xx_ll_usb.c **** 
 4891              		.loc 1 1959 68 view .LVU1617
 4892 01a0 44F00044 		orr	r4, r4, #-2147483648
1958:Drivers/STM32U5xx_HAL_Driver/Src/stm32u5xx_ll_usb.c ****                                         (uint32_t)hc->hub_port_nbr | USB_OTG_HCSPLT_SPLITEN;
 4893              		.loc 1 1958 39 view .LVU1618
 4894 01a4 CEF80440 		str	r4, [lr, #4]
1962:Drivers/STM32U5xx_HAL_Driver/Src/stm32u5xx_ll_usb.c ****                                             USB_OTG_HCINTMSK_NYET);
 4895              		.loc 1 1962 5 is_stmt 1 view .LVU1619
1962:Drivers/STM32U5xx_HAL_Driver/Src/stm32u5xx_ll_usb.c ****                                             USB_OTG_HCINTMSK_NYET);
 4896              		.loc 1 1962 41 is_stmt 0 view .LVU1620
 4897 01a8 DEF80C40 		ldr	r4, [lr, #12]
 4898 01ac 44F06004 		orr	r4, r4, #96
 4899 01b0 CEF80C40 		str	r4, [lr, #12]
1965:Drivers/STM32U5xx_HAL_Driver/Src/stm32u5xx_ll_usb.c ****     {
ARM GAS  /tmp/cc0vokHo.s 			page 147


 4900              		.loc 1 1965 5 is_stmt 1 view .LVU1621
1965:Drivers/STM32U5xx_HAL_Driver/Src/stm32u5xx_ll_usb.c ****     {
 4901              		.loc 1 1965 12 is_stmt 0 view .LVU1622
 4902 01b4 CC79     		ldrb	r4, [r1, #7]	@ zero_extendqisi2
1965:Drivers/STM32U5xx_HAL_Driver/Src/stm32u5xx_ll_usb.c ****     {
 4903              		.loc 1 1965 8 view .LVU1623
 4904 01b6 012C     		cmp	r4, #1
 4905 01b8 12D0     		beq	.L331
 4906              	.L307:
1971:Drivers/STM32U5xx_HAL_Driver/Src/stm32u5xx_ll_usb.c ****         (hc->do_csplit == 1U) && (hc->ep_is_in == 1U))
 4907              		.loc 1 1971 5 is_stmt 1 view .LVU1624
1971:Drivers/STM32U5xx_HAL_Driver/Src/stm32u5xx_ll_usb.c ****         (hc->do_csplit == 1U) && (hc->ep_is_in == 1U))
 4908              		.loc 1 1971 13 is_stmt 0 view .LVU1625
 4909 01ba 8C7C     		ldrb	r4, [r1, #18]	@ zero_extendqisi2
1971:Drivers/STM32U5xx_HAL_Driver/Src/stm32u5xx_ll_usb.c ****         (hc->do_csplit == 1U) && (hc->ep_is_in == 1U))
 4910              		.loc 1 1971 8 view .LVU1626
 4911 01bc 012C     		cmp	r4, #1
 4912 01be 1FD0     		beq	.L308
1971:Drivers/STM32U5xx_HAL_Driver/Src/stm32u5xx_ll_usb.c ****         (hc->do_csplit == 1U) && (hc->ep_is_in == 1U))
 4913              		.loc 1 1971 40 discriminator 2 view .LVU1627
 4914 01c0 032C     		cmp	r4, #3
 4915 01c2 1DD0     		beq	.L308
 4916              	.L309:
1978:Drivers/STM32U5xx_HAL_Driver/Src/stm32u5xx_ll_usb.c ****     {
 4917              		.loc 1 1978 5 is_stmt 1 view .LVU1628
1978:Drivers/STM32U5xx_HAL_Driver/Src/stm32u5xx_ll_usb.c ****     {
 4918              		.loc 1 1978 12 is_stmt 0 view .LVU1629
 4919 01c4 8C7C     		ldrb	r4, [r1, #18]	@ zero_extendqisi2
1978:Drivers/STM32U5xx_HAL_Driver/Src/stm32u5xx_ll_usb.c ****     {
 4920              		.loc 1 1978 8 view .LVU1630
 4921 01c6 012C     		cmp	r4, #1
 4922 01c8 BBD1     		bne	.L310
1978:Drivers/STM32U5xx_HAL_Driver/Src/stm32u5xx_ll_usb.c ****     {
 4923              		.loc 1 1978 45 discriminator 1 view .LVU1631
 4924 01ca 8C78     		ldrb	r4, [r1, #2]	@ zero_extendqisi2
1978:Drivers/STM32U5xx_HAL_Driver/Src/stm32u5xx_ll_usb.c ****     {
 4925              		.loc 1 1978 39 discriminator 1 view .LVU1632
 4926 01cc 002C     		cmp	r4, #0
 4927 01ce B8D1     		bne	.L310
1981:Drivers/STM32U5xx_HAL_Driver/Src/stm32u5xx_ll_usb.c ****       {
 4928              		.loc 1 1981 7 is_stmt 1 view .LVU1633
1981:Drivers/STM32U5xx_HAL_Driver/Src/stm32u5xx_ll_usb.c ****       {
 4929              		.loc 1 1981 17 is_stmt 0 view .LVU1634
 4930 01d0 CC68     		ldr	r4, [r1, #12]
1981:Drivers/STM32U5xx_HAL_Driver/Src/stm32u5xx_ll_usb.c ****       {
 4931              		.loc 1 1981 7 view .LVU1635
 4932 01d2 013C     		subs	r4, r4, #1
 4933 01d4 032C     		cmp	r4, #3
 4934 01d6 B4D8     		bhi	.L310
 4935 01d8 DFE804F0 		tbb	[pc, r4]
 4936              	.L312:
 4937 01dc 1F       		.byte	(.L315-.L312)/2
 4938 01dd 26       		.byte	(.L314-.L312)/2
 4939 01de 2D       		.byte	(.L313-.L312)/2
 4940 01df 34       		.byte	(.L311-.L312)/2
 4941              		.p2align 1
 4942              	.L331:
ARM GAS  /tmp/cc0vokHo.s 			page 148


1965:Drivers/STM32U5xx_HAL_Driver/Src/stm32u5xx_ll_usb.c ****     {
 4943              		.loc 1 1965 37 discriminator 1 view .LVU1636
 4944 01e0 8C78     		ldrb	r4, [r1, #2]	@ zero_extendqisi2
1965:Drivers/STM32U5xx_HAL_Driver/Src/stm32u5xx_ll_usb.c ****     {
 4945              		.loc 1 1965 31 discriminator 1 view .LVU1637
 4946 01e2 002C     		cmp	r4, #0
 4947 01e4 E9D1     		bne	.L307
1967:Drivers/STM32U5xx_HAL_Driver/Src/stm32u5xx_ll_usb.c ****       USBx_HC((uint32_t)ch_num)->HCINTMSK |= USB_OTG_HCINTMSK_NYET;
 4948              		.loc 1 1967 7 is_stmt 1 view .LVU1638
1967:Drivers/STM32U5xx_HAL_Driver/Src/stm32u5xx_ll_usb.c ****       USBx_HC((uint32_t)ch_num)->HCINTMSK |= USB_OTG_HCINTMSK_NYET;
 4949              		.loc 1 1967 41 is_stmt 0 view .LVU1639
 4950 01e6 DEF80440 		ldr	r4, [lr, #4]
 4951 01ea 44F48034 		orr	r4, r4, #65536
 4952 01ee CEF80440 		str	r4, [lr, #4]
1968:Drivers/STM32U5xx_HAL_Driver/Src/stm32u5xx_ll_usb.c ****     }
 4953              		.loc 1 1968 7 is_stmt 1 view .LVU1640
1968:Drivers/STM32U5xx_HAL_Driver/Src/stm32u5xx_ll_usb.c ****     }
 4954              		.loc 1 1968 43 is_stmt 0 view .LVU1641
 4955 01f2 DEF80C40 		ldr	r4, [lr, #12]
 4956 01f6 44F04004 		orr	r4, r4, #64
 4957 01fa CEF80C40 		str	r4, [lr, #12]
 4958 01fe DCE7     		b	.L307
 4959              	.L308:
1972:Drivers/STM32U5xx_HAL_Driver/Src/stm32u5xx_ll_usb.c ****     {
 4960              		.loc 1 1972 12 discriminator 3 view .LVU1642
 4961 0200 CC79     		ldrb	r4, [r1, #7]	@ zero_extendqisi2
1971:Drivers/STM32U5xx_HAL_Driver/Src/stm32u5xx_ll_usb.c ****         (hc->do_csplit == 1U) && (hc->ep_is_in == 1U))
 4962              		.loc 1 1971 74 discriminator 3 view .LVU1643
 4963 0202 012C     		cmp	r4, #1
 4964 0204 DED1     		bne	.L309
1972:Drivers/STM32U5xx_HAL_Driver/Src/stm32u5xx_ll_usb.c ****     {
 4965              		.loc 1 1972 37 view .LVU1644
 4966 0206 8C78     		ldrb	r4, [r1, #2]	@ zero_extendqisi2
1972:Drivers/STM32U5xx_HAL_Driver/Src/stm32u5xx_ll_usb.c ****     {
 4967              		.loc 1 1972 31 view .LVU1645
 4968 0208 012C     		cmp	r4, #1
 4969 020a DBD1     		bne	.L309
1974:Drivers/STM32U5xx_HAL_Driver/Src/stm32u5xx_ll_usb.c ****     }
 4970              		.loc 1 1974 7 is_stmt 1 view .LVU1646
1974:Drivers/STM32U5xx_HAL_Driver/Src/stm32u5xx_ll_usb.c ****     }
 4971              		.loc 1 1974 41 is_stmt 0 view .LVU1647
 4972 020c DEF80440 		ldr	r4, [lr, #4]
 4973 0210 44F48034 		orr	r4, r4, #65536
 4974 0214 CEF80440 		str	r4, [lr, #4]
 4975 0218 D4E7     		b	.L309
 4976              	.L315:
1985:Drivers/STM32U5xx_HAL_Driver/Src/stm32u5xx_ll_usb.c ****           break;
 4977              		.loc 1 1985 11 is_stmt 1 view .LVU1648
1985:Drivers/STM32U5xx_HAL_Driver/Src/stm32u5xx_ll_usb.c ****           break;
 4978              		.loc 1 1985 45 is_stmt 0 view .LVU1649
 4979 021a DEF80440 		ldr	r4, [lr, #4]
 4980 021e 44F40044 		orr	r4, r4, #32768
 4981 0222 CEF80440 		str	r4, [lr, #4]
1986:Drivers/STM32U5xx_HAL_Driver/Src/stm32u5xx_ll_usb.c **** 
 4982              		.loc 1 1986 11 is_stmt 1 view .LVU1650
 4983 0226 8CE7     		b	.L310
 4984              	.L314:
ARM GAS  /tmp/cc0vokHo.s 			page 149


1990:Drivers/STM32U5xx_HAL_Driver/Src/stm32u5xx_ll_usb.c ****           break;
 4985              		.loc 1 1990 11 view .LVU1651
1990:Drivers/STM32U5xx_HAL_Driver/Src/stm32u5xx_ll_usb.c ****           break;
 4986              		.loc 1 1990 45 is_stmt 0 view .LVU1652
 4987 0228 DEF80440 		ldr	r4, [lr, #4]
 4988 022c 44F00E04 		orr	r4, r4, #14
 4989 0230 CEF80440 		str	r4, [lr, #4]
1991:Drivers/STM32U5xx_HAL_Driver/Src/stm32u5xx_ll_usb.c **** 
 4990              		.loc 1 1991 11 is_stmt 1 view .LVU1653
 4991 0234 85E7     		b	.L310
 4992              	.L313:
1995:Drivers/STM32U5xx_HAL_Driver/Src/stm32u5xx_ll_usb.c ****           break;
 4993              		.loc 1 1995 11 view .LVU1654
1995:Drivers/STM32U5xx_HAL_Driver/Src/stm32u5xx_ll_usb.c ****           break;
 4994              		.loc 1 1995 45 is_stmt 0 view .LVU1655
 4995 0236 DEF80440 		ldr	r4, [lr, #4]
 4996 023a 44F48044 		orr	r4, r4, #16384
 4997 023e CEF80440 		str	r4, [lr, #4]
1996:Drivers/STM32U5xx_HAL_Driver/Src/stm32u5xx_ll_usb.c **** 
 4998              		.loc 1 1996 11 is_stmt 1 view .LVU1656
 4999 0242 7EE7     		b	.L310
 5000              	.L311:
2000:Drivers/STM32U5xx_HAL_Driver/Src/stm32u5xx_ll_usb.c ****           break;
 5001              		.loc 1 2000 11 view .LVU1657
2000:Drivers/STM32U5xx_HAL_Driver/Src/stm32u5xx_ll_usb.c ****           break;
 5002              		.loc 1 2000 45 is_stmt 0 view .LVU1658
 5003 0244 DEF80440 		ldr	r4, [lr, #4]
 5004 0248 44F44044 		orr	r4, r4, #49152
 5005 024c CEF80440 		str	r4, [lr, #4]
2001:Drivers/STM32U5xx_HAL_Driver/Src/stm32u5xx_ll_usb.c **** 
 5006              		.loc 1 2001 11 is_stmt 1 view .LVU1659
 5007 0250 77E7     		b	.L310
 5008              	.L316:
2025:Drivers/STM32U5xx_HAL_Driver/Src/stm32u5xx_ll_usb.c ****   }
 5009              		.loc 1 2025 5 view .LVU1660
2025:Drivers/STM32U5xx_HAL_Driver/Src/stm32u5xx_ll_usb.c ****   }
 5010              		.loc 1 2025 12 is_stmt 0 view .LVU1661
 5011 0252 039C     		ldr	r4, [sp, #12]
 5012 0254 24F40044 		bic	r4, r4, #32768
 5013 0258 0394     		str	r4, [sp, #12]
 5014 025a 80E7     		b	.L317
 5015              	.LVL372:
 5016              	.L321:
2043:Drivers/STM32U5xx_HAL_Driver/Src/stm32u5xx_ll_usb.c **** 
 5017              		.loc 1 2043 9 is_stmt 1 view .LVU1662
2043:Drivers/STM32U5xx_HAL_Driver/Src/stm32u5xx_ll_usb.c **** 
 5018              		.loc 1 2043 46 is_stmt 0 view .LVU1663
 5019 025c 0333     		adds	r3, r3, #3
 5020              	.LVL373:
2046:Drivers/STM32U5xx_HAL_Driver/Src/stm32u5xx_ll_usb.c ****         {
 5021              		.loc 1 2046 9 is_stmt 1 view .LVU1664
2046:Drivers/STM32U5xx_HAL_Driver/Src/stm32u5xx_ll_usb.c ****         {
 5022              		.loc 1 2046 30 is_stmt 0 view .LVU1665
 5023 025e C26A     		ldr	r2, [r0, #44]
2046:Drivers/STM32U5xx_HAL_Driver/Src/stm32u5xx_ll_usb.c ****         {
 5024              		.loc 1 2046 41 view .LVU1666
 5025 0260 92B2     		uxth	r2, r2
ARM GAS  /tmp/cc0vokHo.s 			page 150


2046:Drivers/STM32U5xx_HAL_Driver/Src/stm32u5xx_ll_usb.c ****         {
 5026              		.loc 1 2046 12 view .LVU1667
 5027 0262 C3F38F03 		ubfx	r3, r3, #2, #16
 5028              	.LVL374:
2046:Drivers/STM32U5xx_HAL_Driver/Src/stm32u5xx_ll_usb.c ****         {
 5029              		.loc 1 2046 12 view .LVU1668
 5030 0266 9342     		cmp	r3, r2
 5031 0268 03D9     		bls	.L318
2049:Drivers/STM32U5xx_HAL_Driver/Src/stm32u5xx_ll_usb.c ****         }
 5032              		.loc 1 2049 11 is_stmt 1 view .LVU1669
2049:Drivers/STM32U5xx_HAL_Driver/Src/stm32u5xx_ll_usb.c ****         }
 5033              		.loc 1 2049 25 is_stmt 0 view .LVU1670
 5034 026a 8369     		ldr	r3, [r0, #24]
 5035 026c 43F02003 		orr	r3, r3, #32
 5036 0270 8361     		str	r3, [r0, #24]
 5037              	.LVL375:
 5038              	.L318:
2070:Drivers/STM32U5xx_HAL_Driver/Src/stm32u5xx_ll_usb.c ****   }
 5039              		.loc 1 2070 5 is_stmt 1 view .LVU1671
2070:Drivers/STM32U5xx_HAL_Driver/Src/stm32u5xx_ll_usb.c ****   }
 5040              		.loc 1 2070 11 is_stmt 0 view .LVU1672
 5041 0272 0023     		movs	r3, #0
 5042 0274 0093     		str	r3, [sp]
 5043 0276 0B8C     		ldrh	r3, [r1, #32]
 5044 0278 4A78     		ldrb	r2, [r1, #1]	@ zero_extendqisi2
 5045 027a 8969     		ldr	r1, [r1, #24]
 5046              	.LVL376:
2070:Drivers/STM32U5xx_HAL_Driver/Src/stm32u5xx_ll_usb.c ****   }
 5047              		.loc 1 2070 11 view .LVU1673
 5048 027c FFF7FEFF 		bl	USB_WritePacket
 5049              	.LVL377:
 5050              	.L294:
2074:Drivers/STM32U5xx_HAL_Driver/Src/stm32u5xx_ll_usb.c **** 
 5051              		.loc 1 2074 1 view .LVU1674
 5052 0280 0020     		movs	r0, #0
 5053 0282 04B0     		add	sp, sp, #16
 5054              	.LCFI65:
 5055              		.cfi_remember_state
 5056              		.cfi_def_cfa_offset 16
 5057              		@ sp needed
 5058 0284 70BD     		pop	{r4, r5, r6, pc}
 5059              	.LVL378:
 5060              	.L319:
 5061              	.LCFI66:
 5062              		.cfi_restore_state
2056:Drivers/STM32U5xx_HAL_Driver/Src/stm32u5xx_ll_usb.c ****         /* check if there is enough space in FIFO space */
 5063              		.loc 1 2056 9 is_stmt 1 view .LVU1675
2056:Drivers/STM32U5xx_HAL_Driver/Src/stm32u5xx_ll_usb.c ****         /* check if there is enough space in FIFO space */
 5064              		.loc 1 2056 46 is_stmt 0 view .LVU1676
 5065 0286 0333     		adds	r3, r3, #3
 5066              	.LVL379:
2058:Drivers/STM32U5xx_HAL_Driver/Src/stm32u5xx_ll_usb.c ****         {
 5067              		.loc 1 2058 9 is_stmt 1 view .LVU1677
2058:Drivers/STM32U5xx_HAL_Driver/Src/stm32u5xx_ll_usb.c ****         {
 5068              		.loc 1 2058 35 is_stmt 0 view .LVU1678
 5069 0288 DCF81020 		ldr	r2, [ip, #16]
2058:Drivers/STM32U5xx_HAL_Driver/Src/stm32u5xx_ll_usb.c ****         {
ARM GAS  /tmp/cc0vokHo.s 			page 151


 5070              		.loc 1 2058 45 view .LVU1679
 5071 028c 92B2     		uxth	r2, r2
2058:Drivers/STM32U5xx_HAL_Driver/Src/stm32u5xx_ll_usb.c ****         {
 5072              		.loc 1 2058 12 view .LVU1680
 5073 028e C3F38F03 		ubfx	r3, r3, #2, #16
 5074              	.LVL380:
2058:Drivers/STM32U5xx_HAL_Driver/Src/stm32u5xx_ll_usb.c ****         {
 5075              		.loc 1 2058 12 view .LVU1681
 5076 0292 9A42     		cmp	r2, r3
 5077 0294 EDD2     		bcs	.L318
2061:Drivers/STM32U5xx_HAL_Driver/Src/stm32u5xx_ll_usb.c ****         }
 5078              		.loc 1 2061 11 is_stmt 1 view .LVU1682
2061:Drivers/STM32U5xx_HAL_Driver/Src/stm32u5xx_ll_usb.c ****         }
 5079              		.loc 1 2061 25 is_stmt 0 view .LVU1683
 5080 0296 8369     		ldr	r3, [r0, #24]
 5081 0298 43F08063 		orr	r3, r3, #67108864
 5082 029c 8361     		str	r3, [r0, #24]
 5083              	.LVL381:
2061:Drivers/STM32U5xx_HAL_Driver/Src/stm32u5xx_ll_usb.c ****         }
 5084              		.loc 1 2061 25 view .LVU1684
 5085 029e E8E7     		b	.L318
 5086              	.L333:
 5087              		.align	2
 5088              	.L332:
 5089 02a0 0000F81F 		.word	536346624
 5090              		.cfi_endproc
 5091              	.LFE387:
 5093              		.section	.text.USB_StopHost,"ax",%progbits
 5094              		.align	1
 5095              		.global	USB_StopHost
 5096              		.syntax unified
 5097              		.thumb
 5098              		.thumb_func
 5100              	USB_StopHost:
 5101              	.LVL382:
 5102              	.LFB391:
2197:Drivers/STM32U5xx_HAL_Driver/Src/stm32u5xx_ll_usb.c **** 
2198:Drivers/STM32U5xx_HAL_Driver/Src/stm32u5xx_ll_usb.c **** /**
2199:Drivers/STM32U5xx_HAL_Driver/Src/stm32u5xx_ll_usb.c ****   * @brief  Stop Host Core
2200:Drivers/STM32U5xx_HAL_Driver/Src/stm32u5xx_ll_usb.c ****   * @param  USBx  Selected device
2201:Drivers/STM32U5xx_HAL_Driver/Src/stm32u5xx_ll_usb.c ****   * @retval HAL state
2202:Drivers/STM32U5xx_HAL_Driver/Src/stm32u5xx_ll_usb.c ****   */
2203:Drivers/STM32U5xx_HAL_Driver/Src/stm32u5xx_ll_usb.c **** HAL_StatusTypeDef USB_StopHost(USB_OTG_GlobalTypeDef *USBx)
2204:Drivers/STM32U5xx_HAL_Driver/Src/stm32u5xx_ll_usb.c **** {
 5103              		.loc 1 2204 1 is_stmt 1 view -0
 5104              		.cfi_startproc
 5105              		@ args = 0, pretend = 0, frame = 8
 5106              		@ frame_needed = 0, uses_anonymous_args = 0
 5107              		.loc 1 2204 1 is_stmt 0 view .LVU1686
 5108 0000 30B5     		push	{r4, r5, lr}
 5109              	.LCFI67:
 5110              		.cfi_def_cfa_offset 12
 5111              		.cfi_offset 4, -12
 5112              		.cfi_offset 5, -8
 5113              		.cfi_offset 14, -4
 5114 0002 83B0     		sub	sp, sp, #12
 5115              	.LCFI68:
ARM GAS  /tmp/cc0vokHo.s 			page 152


 5116              		.cfi_def_cfa_offset 24
 5117 0004 0446     		mov	r4, r0
2205:Drivers/STM32U5xx_HAL_Driver/Src/stm32u5xx_ll_usb.c ****   HAL_StatusTypeDef ret = HAL_OK;
 5118              		.loc 1 2205 3 is_stmt 1 view .LVU1687
 5119              	.LVL383:
2206:Drivers/STM32U5xx_HAL_Driver/Src/stm32u5xx_ll_usb.c ****   uint32_t USBx_BASE = (uint32_t)USBx;
 5120              		.loc 1 2206 3 view .LVU1688
2207:Drivers/STM32U5xx_HAL_Driver/Src/stm32u5xx_ll_usb.c ****   __IO uint32_t count = 0U;
 5121              		.loc 1 2207 3 view .LVU1689
 5122              		.loc 1 2207 17 is_stmt 0 view .LVU1690
 5123 0006 0023     		movs	r3, #0
 5124 0008 0193     		str	r3, [sp, #4]
2208:Drivers/STM32U5xx_HAL_Driver/Src/stm32u5xx_ll_usb.c ****   uint32_t value;
 5125              		.loc 1 2208 3 is_stmt 1 view .LVU1691
2209:Drivers/STM32U5xx_HAL_Driver/Src/stm32u5xx_ll_usb.c ****   uint32_t i;
 5126              		.loc 1 2209 3 view .LVU1692
2210:Drivers/STM32U5xx_HAL_Driver/Src/stm32u5xx_ll_usb.c **** 
2211:Drivers/STM32U5xx_HAL_Driver/Src/stm32u5xx_ll_usb.c ****   (void)USB_DisableGlobalInt(USBx);
 5127              		.loc 1 2211 3 view .LVU1693
 5128              		.loc 1 2211 9 is_stmt 0 view .LVU1694
 5129 000a FFF7FEFF 		bl	USB_DisableGlobalInt
 5130              	.LVL384:
2212:Drivers/STM32U5xx_HAL_Driver/Src/stm32u5xx_ll_usb.c **** 
2213:Drivers/STM32U5xx_HAL_Driver/Src/stm32u5xx_ll_usb.c ****   /* Flush USB FIFO */
2214:Drivers/STM32U5xx_HAL_Driver/Src/stm32u5xx_ll_usb.c ****   if (USB_FlushTxFifo(USBx, 0x10U) != HAL_OK) /* all Tx FIFOs */
 5131              		.loc 1 2214 3 is_stmt 1 view .LVU1695
 5132              		.loc 1 2214 7 is_stmt 0 view .LVU1696
 5133 000e 1021     		movs	r1, #16
 5134 0010 2046     		mov	r0, r4
 5135 0012 FFF7FEFF 		bl	USB_FlushTxFifo
 5136              	.LVL385:
 5137              		.loc 1 2214 6 view .LVU1697
 5138 0016 0546     		mov	r5, r0
 5139 0018 00B1     		cbz	r0, .L335
2215:Drivers/STM32U5xx_HAL_Driver/Src/stm32u5xx_ll_usb.c ****   {
2216:Drivers/STM32U5xx_HAL_Driver/Src/stm32u5xx_ll_usb.c ****     ret = HAL_ERROR;
 5140              		.loc 1 2216 9 view .LVU1698
 5141 001a 0125     		movs	r5, #1
 5142              	.L335:
 5143              	.LVL386:
2217:Drivers/STM32U5xx_HAL_Driver/Src/stm32u5xx_ll_usb.c ****   }
2218:Drivers/STM32U5xx_HAL_Driver/Src/stm32u5xx_ll_usb.c **** 
2219:Drivers/STM32U5xx_HAL_Driver/Src/stm32u5xx_ll_usb.c ****   if (USB_FlushRxFifo(USBx) != HAL_OK)
 5144              		.loc 1 2219 3 is_stmt 1 view .LVU1699
 5145              		.loc 1 2219 7 is_stmt 0 view .LVU1700
 5146 001c 2046     		mov	r0, r4
 5147 001e FFF7FEFF 		bl	USB_FlushRxFifo
 5148              	.LVL387:
 5149              		.loc 1 2219 6 view .LVU1701
 5150 0022 00B1     		cbz	r0, .L336
2220:Drivers/STM32U5xx_HAL_Driver/Src/stm32u5xx_ll_usb.c ****   {
2221:Drivers/STM32U5xx_HAL_Driver/Src/stm32u5xx_ll_usb.c ****     ret = HAL_ERROR;
 5151              		.loc 1 2221 9 view .LVU1702
 5152 0024 0125     		movs	r5, #1
 5153              	.LVL388:
 5154              	.L336:
2222:Drivers/STM32U5xx_HAL_Driver/Src/stm32u5xx_ll_usb.c ****   }
ARM GAS  /tmp/cc0vokHo.s 			page 153


2223:Drivers/STM32U5xx_HAL_Driver/Src/stm32u5xx_ll_usb.c **** 
2224:Drivers/STM32U5xx_HAL_Driver/Src/stm32u5xx_ll_usb.c ****   /* Flush out any leftover queued requests. */
2225:Drivers/STM32U5xx_HAL_Driver/Src/stm32u5xx_ll_usb.c ****   for (i = 0U; i <= 15U; i++)
 5155              		.loc 1 2225 3 is_stmt 1 view .LVU1703
 5156              		.loc 1 2225 10 is_stmt 0 view .LVU1704
 5157 0026 0022     		movs	r2, #0
 5158              		.loc 1 2225 3 view .LVU1705
 5159 0028 0AE0     		b	.L337
 5160              	.LVL389:
 5161              	.L338:
2226:Drivers/STM32U5xx_HAL_Driver/Src/stm32u5xx_ll_usb.c ****   {
2227:Drivers/STM32U5xx_HAL_Driver/Src/stm32u5xx_ll_usb.c ****     value = USBx_HC(i)->HCCHAR;
 5162              		.loc 1 2227 5 is_stmt 1 discriminator 3 view .LVU1706
 5163              		.loc 1 2227 13 is_stmt 0 discriminator 3 view .LVU1707
 5164 002a 04EB4211 		add	r1, r4, r2, lsl #5
 5165              		.loc 1 2227 11 discriminator 3 view .LVU1708
 5166 002e D1F80035 		ldr	r3, [r1, #1280]
 5167              	.LVL390:
2228:Drivers/STM32U5xx_HAL_Driver/Src/stm32u5xx_ll_usb.c ****     value |=  USB_OTG_HCCHAR_CHDIS;
 5168              		.loc 1 2228 5 is_stmt 1 discriminator 3 view .LVU1709
2229:Drivers/STM32U5xx_HAL_Driver/Src/stm32u5xx_ll_usb.c ****     value &= ~USB_OTG_HCCHAR_CHENA;
 5169              		.loc 1 2229 5 discriminator 3 view .LVU1710
2230:Drivers/STM32U5xx_HAL_Driver/Src/stm32u5xx_ll_usb.c ****     value &= ~USB_OTG_HCCHAR_EPDIR;
 5170              		.loc 1 2230 5 discriminator 3 view .LVU1711
 5171 0032 23F08023 		bic	r3, r3, #-2147450880
 5172              	.LVL391:
 5173              		.loc 1 2230 11 is_stmt 0 discriminator 3 view .LVU1712
 5174 0036 43F08043 		orr	r3, r3, #1073741824
 5175              	.LVL392:
2231:Drivers/STM32U5xx_HAL_Driver/Src/stm32u5xx_ll_usb.c ****     USBx_HC(i)->HCCHAR = value;
 5176              		.loc 1 2231 5 is_stmt 1 discriminator 3 view .LVU1713
 5177              		.loc 1 2231 24 is_stmt 0 discriminator 3 view .LVU1714
 5178 003a C1F80035 		str	r3, [r1, #1280]
2225:Drivers/STM32U5xx_HAL_Driver/Src/stm32u5xx_ll_usb.c ****   {
 5179              		.loc 1 2225 26 is_stmt 1 discriminator 3 view .LVU1715
2225:Drivers/STM32U5xx_HAL_Driver/Src/stm32u5xx_ll_usb.c ****   {
 5180              		.loc 1 2225 27 is_stmt 0 discriminator 3 view .LVU1716
 5181 003e 0132     		adds	r2, r2, #1
 5182              	.LVL393:
 5183              	.L337:
2225:Drivers/STM32U5xx_HAL_Driver/Src/stm32u5xx_ll_usb.c ****   {
 5184              		.loc 1 2225 16 is_stmt 1 discriminator 1 view .LVU1717
2225:Drivers/STM32U5xx_HAL_Driver/Src/stm32u5xx_ll_usb.c ****   {
 5185              		.loc 1 2225 3 is_stmt 0 discriminator 1 view .LVU1718
 5186 0040 0F2A     		cmp	r2, #15
 5187 0042 F2D9     		bls	.L338
2232:Drivers/STM32U5xx_HAL_Driver/Src/stm32u5xx_ll_usb.c ****   }
2233:Drivers/STM32U5xx_HAL_Driver/Src/stm32u5xx_ll_usb.c **** 
2234:Drivers/STM32U5xx_HAL_Driver/Src/stm32u5xx_ll_usb.c ****   /* Halt all channels to put them into a known state. */
2235:Drivers/STM32U5xx_HAL_Driver/Src/stm32u5xx_ll_usb.c ****   for (i = 0U; i <= 15U; i++)
 5188              		.loc 1 2235 10 view .LVU1719
 5189 0044 0021     		movs	r1, #0
 5190 0046 00E0     		b	.L339
 5191              	.LVL394:
 5192              	.L340:
 5193              		.loc 1 2235 26 is_stmt 1 discriminator 2 view .LVU1720
 5194              		.loc 1 2235 27 is_stmt 0 discriminator 2 view .LVU1721
ARM GAS  /tmp/cc0vokHo.s 			page 154


 5195 0048 0131     		adds	r1, r1, #1
 5196              	.LVL395:
 5197              	.L339:
 5198              		.loc 1 2235 16 is_stmt 1 discriminator 1 view .LVU1722
 5199              		.loc 1 2235 3 is_stmt 0 discriminator 1 view .LVU1723
 5200 004a 0F29     		cmp	r1, #15
 5201 004c 16D8     		bhi	.L346
2236:Drivers/STM32U5xx_HAL_Driver/Src/stm32u5xx_ll_usb.c ****   {
2237:Drivers/STM32U5xx_HAL_Driver/Src/stm32u5xx_ll_usb.c ****     value = USBx_HC(i)->HCCHAR;
 5202              		.loc 1 2237 5 is_stmt 1 view .LVU1724
 5203              		.loc 1 2237 13 is_stmt 0 view .LVU1725
 5204 004e 04EB4110 		add	r0, r4, r1, lsl #5
 5205 0052 00F5A062 		add	r2, r0, #1280
 5206              		.loc 1 2237 11 view .LVU1726
 5207 0056 D0F80035 		ldr	r3, [r0, #1280]
 5208              	.LVL396:
2238:Drivers/STM32U5xx_HAL_Driver/Src/stm32u5xx_ll_usb.c ****     value |= USB_OTG_HCCHAR_CHDIS;
 5209              		.loc 1 2238 5 is_stmt 1 view .LVU1727
2239:Drivers/STM32U5xx_HAL_Driver/Src/stm32u5xx_ll_usb.c ****     value |= USB_OTG_HCCHAR_CHENA;
 5210              		.loc 1 2239 5 view .LVU1728
2240:Drivers/STM32U5xx_HAL_Driver/Src/stm32u5xx_ll_usb.c ****     value &= ~USB_OTG_HCCHAR_EPDIR;
 5211              		.loc 1 2240 5 view .LVU1729
 5212 005a 23F40043 		bic	r3, r3, #32768
 5213              	.LVL397:
 5214              		.loc 1 2240 11 is_stmt 0 view .LVU1730
 5215 005e 43F04043 		orr	r3, r3, #-1073741824
 5216              	.LVL398:
2241:Drivers/STM32U5xx_HAL_Driver/Src/stm32u5xx_ll_usb.c ****     USBx_HC(i)->HCCHAR = value;
 5217              		.loc 1 2241 5 is_stmt 1 view .LVU1731
 5218              		.loc 1 2241 24 is_stmt 0 view .LVU1732
 5219 0062 C0F80035 		str	r3, [r0, #1280]
 5220              	.LVL399:
 5221              	.L341:
2242:Drivers/STM32U5xx_HAL_Driver/Src/stm32u5xx_ll_usb.c **** 
2243:Drivers/STM32U5xx_HAL_Driver/Src/stm32u5xx_ll_usb.c ****     do
 5222              		.loc 1 2243 5 is_stmt 1 view .LVU1733
2244:Drivers/STM32U5xx_HAL_Driver/Src/stm32u5xx_ll_usb.c ****     {
2245:Drivers/STM32U5xx_HAL_Driver/Src/stm32u5xx_ll_usb.c ****       count++;
 5223              		.loc 1 2245 7 view .LVU1734
 5224              		.loc 1 2245 12 is_stmt 0 view .LVU1735
 5225 0066 019B     		ldr	r3, [sp, #4]
 5226 0068 0133     		adds	r3, r3, #1
 5227 006a 0193     		str	r3, [sp, #4]
2246:Drivers/STM32U5xx_HAL_Driver/Src/stm32u5xx_ll_usb.c **** 
2247:Drivers/STM32U5xx_HAL_Driver/Src/stm32u5xx_ll_usb.c ****       if (count > 1000U)
 5228              		.loc 1 2247 7 is_stmt 1 view .LVU1736
 5229              		.loc 1 2247 17 is_stmt 0 view .LVU1737
 5230 006c 019B     		ldr	r3, [sp, #4]
 5231              		.loc 1 2247 10 view .LVU1738
 5232 006e B3F57A7F 		cmp	r3, #1000
 5233 0072 E9D8     		bhi	.L340
2248:Drivers/STM32U5xx_HAL_Driver/Src/stm32u5xx_ll_usb.c ****       {
2249:Drivers/STM32U5xx_HAL_Driver/Src/stm32u5xx_ll_usb.c ****         break;
2250:Drivers/STM32U5xx_HAL_Driver/Src/stm32u5xx_ll_usb.c ****       }
2251:Drivers/STM32U5xx_HAL_Driver/Src/stm32u5xx_ll_usb.c ****     } while ((USBx_HC(i)->HCCHAR & USB_OTG_HCCHAR_CHENA) == USB_OTG_HCCHAR_CHENA);
 5234              		.loc 1 2251 13 is_stmt 1 view .LVU1739
 5235              		.loc 1 2251 25 is_stmt 0 view .LVU1740
ARM GAS  /tmp/cc0vokHo.s 			page 155


 5236 0074 1368     		ldr	r3, [r2]
 5237              		.loc 1 2251 5 view .LVU1741
 5238 0076 002B     		cmp	r3, #0
 5239 0078 F5DB     		blt	.L341
 5240 007a E5E7     		b	.L340
 5241              	.L346:
2252:Drivers/STM32U5xx_HAL_Driver/Src/stm32u5xx_ll_usb.c ****   }
2253:Drivers/STM32U5xx_HAL_Driver/Src/stm32u5xx_ll_usb.c **** 
2254:Drivers/STM32U5xx_HAL_Driver/Src/stm32u5xx_ll_usb.c ****   /* Clear any pending Host interrupts */
2255:Drivers/STM32U5xx_HAL_Driver/Src/stm32u5xx_ll_usb.c ****   USBx_HOST->HAINT = CLEAR_INTERRUPT_MASK;
 5242              		.loc 1 2255 3 is_stmt 1 view .LVU1742
 5243              		.loc 1 2255 20 is_stmt 0 view .LVU1743
 5244 007c 4FF0FF33 		mov	r3, #-1
 5245 0080 C4F81434 		str	r3, [r4, #1044]
2256:Drivers/STM32U5xx_HAL_Driver/Src/stm32u5xx_ll_usb.c ****   USBx->GINTSTS = CLEAR_INTERRUPT_MASK;
 5246              		.loc 1 2256 3 is_stmt 1 view .LVU1744
 5247              		.loc 1 2256 17 is_stmt 0 view .LVU1745
 5248 0084 6361     		str	r3, [r4, #20]
2257:Drivers/STM32U5xx_HAL_Driver/Src/stm32u5xx_ll_usb.c **** 
2258:Drivers/STM32U5xx_HAL_Driver/Src/stm32u5xx_ll_usb.c ****   (void)USB_EnableGlobalInt(USBx);
 5249              		.loc 1 2258 3 is_stmt 1 view .LVU1746
 5250              		.loc 1 2258 9 is_stmt 0 view .LVU1747
 5251 0086 2046     		mov	r0, r4
 5252 0088 FFF7FEFF 		bl	USB_EnableGlobalInt
 5253              	.LVL400:
2259:Drivers/STM32U5xx_HAL_Driver/Src/stm32u5xx_ll_usb.c **** 
2260:Drivers/STM32U5xx_HAL_Driver/Src/stm32u5xx_ll_usb.c ****   return ret;
 5254              		.loc 1 2260 3 is_stmt 1 view .LVU1748
2261:Drivers/STM32U5xx_HAL_Driver/Src/stm32u5xx_ll_usb.c **** }
 5255              		.loc 1 2261 1 is_stmt 0 view .LVU1749
 5256 008c 2846     		mov	r0, r5
 5257 008e 03B0     		add	sp, sp, #12
 5258              	.LCFI69:
 5259              		.cfi_def_cfa_offset 12
 5260              		@ sp needed
 5261 0090 30BD     		pop	{r4, r5, pc}
 5262              		.loc 1 2261 1 view .LVU1750
 5263              		.cfi_endproc
 5264              	.LFE391:
 5266              		.section	.text.USB_ActivateRemoteWakeup,"ax",%progbits
 5267              		.align	1
 5268              		.global	USB_ActivateRemoteWakeup
 5269              		.syntax unified
 5270              		.thumb
 5271              		.thumb_func
 5273              	USB_ActivateRemoteWakeup:
 5274              	.LVL401:
 5275              	.LFB392:
2262:Drivers/STM32U5xx_HAL_Driver/Src/stm32u5xx_ll_usb.c **** 
2263:Drivers/STM32U5xx_HAL_Driver/Src/stm32u5xx_ll_usb.c **** /**
2264:Drivers/STM32U5xx_HAL_Driver/Src/stm32u5xx_ll_usb.c ****   * @brief  USB_ActivateRemoteWakeup active remote wakeup signalling
2265:Drivers/STM32U5xx_HAL_Driver/Src/stm32u5xx_ll_usb.c ****   * @param  USBx Selected device
2266:Drivers/STM32U5xx_HAL_Driver/Src/stm32u5xx_ll_usb.c ****   * @retval HAL status
2267:Drivers/STM32U5xx_HAL_Driver/Src/stm32u5xx_ll_usb.c ****   */
2268:Drivers/STM32U5xx_HAL_Driver/Src/stm32u5xx_ll_usb.c **** HAL_StatusTypeDef USB_ActivateRemoteWakeup(USB_OTG_GlobalTypeDef *USBx)
2269:Drivers/STM32U5xx_HAL_Driver/Src/stm32u5xx_ll_usb.c **** {
 5276              		.loc 1 2269 1 is_stmt 1 view -0
ARM GAS  /tmp/cc0vokHo.s 			page 156


 5277              		.cfi_startproc
 5278              		@ args = 0, pretend = 0, frame = 0
 5279              		@ frame_needed = 0, uses_anonymous_args = 0
 5280              		@ link register save eliminated.
2270:Drivers/STM32U5xx_HAL_Driver/Src/stm32u5xx_ll_usb.c ****   uint32_t USBx_BASE = (uint32_t)USBx;
 5281              		.loc 1 2270 3 view .LVU1752
2271:Drivers/STM32U5xx_HAL_Driver/Src/stm32u5xx_ll_usb.c **** 
2272:Drivers/STM32U5xx_HAL_Driver/Src/stm32u5xx_ll_usb.c ****   if ((USBx_DEVICE->DSTS & USB_OTG_DSTS_SUSPSTS) == USB_OTG_DSTS_SUSPSTS)
 5282              		.loc 1 2272 3 view .LVU1753
 5283              		.loc 1 2272 19 is_stmt 0 view .LVU1754
 5284 0000 D0F80838 		ldr	r3, [r0, #2056]
 5285              		.loc 1 2272 8 view .LVU1755
 5286 0004 00F50060 		add	r0, r0, #2048
 5287              	.LVL402:
 5288              		.loc 1 2272 6 view .LVU1756
 5289 0008 13F0010F 		tst	r3, #1
 5290 000c 03D0     		beq	.L348
2273:Drivers/STM32U5xx_HAL_Driver/Src/stm32u5xx_ll_usb.c ****   {
2274:Drivers/STM32U5xx_HAL_Driver/Src/stm32u5xx_ll_usb.c ****     /* active Remote wakeup signalling */
2275:Drivers/STM32U5xx_HAL_Driver/Src/stm32u5xx_ll_usb.c ****     USBx_DEVICE->DCTL |= USB_OTG_DCTL_RWUSIG;
 5291              		.loc 1 2275 5 is_stmt 1 view .LVU1757
 5292              		.loc 1 2275 23 is_stmt 0 view .LVU1758
 5293 000e 4368     		ldr	r3, [r0, #4]
 5294 0010 43F00103 		orr	r3, r3, #1
 5295 0014 4360     		str	r3, [r0, #4]
 5296              	.L348:
2276:Drivers/STM32U5xx_HAL_Driver/Src/stm32u5xx_ll_usb.c ****   }
2277:Drivers/STM32U5xx_HAL_Driver/Src/stm32u5xx_ll_usb.c **** 
2278:Drivers/STM32U5xx_HAL_Driver/Src/stm32u5xx_ll_usb.c ****   return HAL_OK;
 5297              		.loc 1 2278 3 is_stmt 1 view .LVU1759
2279:Drivers/STM32U5xx_HAL_Driver/Src/stm32u5xx_ll_usb.c **** }
 5298              		.loc 1 2279 1 is_stmt 0 view .LVU1760
 5299 0016 0020     		movs	r0, #0
 5300              	.LVL403:
 5301              		.loc 1 2279 1 view .LVU1761
 5302 0018 7047     		bx	lr
 5303              		.cfi_endproc
 5304              	.LFE392:
 5306              		.section	.text.USB_DeActivateRemoteWakeup,"ax",%progbits
 5307              		.align	1
 5308              		.global	USB_DeActivateRemoteWakeup
 5309              		.syntax unified
 5310              		.thumb
 5311              		.thumb_func
 5313              	USB_DeActivateRemoteWakeup:
 5314              	.LVL404:
 5315              	.LFB393:
2280:Drivers/STM32U5xx_HAL_Driver/Src/stm32u5xx_ll_usb.c **** 
2281:Drivers/STM32U5xx_HAL_Driver/Src/stm32u5xx_ll_usb.c **** /**
2282:Drivers/STM32U5xx_HAL_Driver/Src/stm32u5xx_ll_usb.c ****   * @brief  USB_DeActivateRemoteWakeup de-active remote wakeup signalling
2283:Drivers/STM32U5xx_HAL_Driver/Src/stm32u5xx_ll_usb.c ****   * @param  USBx Selected device
2284:Drivers/STM32U5xx_HAL_Driver/Src/stm32u5xx_ll_usb.c ****   * @retval HAL status
2285:Drivers/STM32U5xx_HAL_Driver/Src/stm32u5xx_ll_usb.c ****   */
2286:Drivers/STM32U5xx_HAL_Driver/Src/stm32u5xx_ll_usb.c **** HAL_StatusTypeDef USB_DeActivateRemoteWakeup(USB_OTG_GlobalTypeDef *USBx)
2287:Drivers/STM32U5xx_HAL_Driver/Src/stm32u5xx_ll_usb.c **** {
 5316              		.loc 1 2287 1 is_stmt 1 view -0
 5317              		.cfi_startproc
ARM GAS  /tmp/cc0vokHo.s 			page 157


 5318              		@ args = 0, pretend = 0, frame = 0
 5319              		@ frame_needed = 0, uses_anonymous_args = 0
 5320              		@ link register save eliminated.
2288:Drivers/STM32U5xx_HAL_Driver/Src/stm32u5xx_ll_usb.c ****   uint32_t USBx_BASE = (uint32_t)USBx;
 5321              		.loc 1 2288 3 view .LVU1763
2289:Drivers/STM32U5xx_HAL_Driver/Src/stm32u5xx_ll_usb.c **** 
2290:Drivers/STM32U5xx_HAL_Driver/Src/stm32u5xx_ll_usb.c ****   /* active Remote wakeup signalling */
2291:Drivers/STM32U5xx_HAL_Driver/Src/stm32u5xx_ll_usb.c ****   USBx_DEVICE->DCTL &= ~(USB_OTG_DCTL_RWUSIG);
 5322              		.loc 1 2291 3 view .LVU1764
 5323              		.loc 1 2291 21 is_stmt 0 view .LVU1765
 5324 0000 D0F80438 		ldr	r3, [r0, #2052]
 5325 0004 23F00103 		bic	r3, r3, #1
 5326 0008 C0F80438 		str	r3, [r0, #2052]
2292:Drivers/STM32U5xx_HAL_Driver/Src/stm32u5xx_ll_usb.c **** 
2293:Drivers/STM32U5xx_HAL_Driver/Src/stm32u5xx_ll_usb.c ****   return HAL_OK;
 5327              		.loc 1 2293 3 is_stmt 1 view .LVU1766
2294:Drivers/STM32U5xx_HAL_Driver/Src/stm32u5xx_ll_usb.c **** }
 5328              		.loc 1 2294 1 is_stmt 0 view .LVU1767
 5329 000c 0020     		movs	r0, #0
 5330              	.LVL405:
 5331              		.loc 1 2294 1 view .LVU1768
 5332 000e 7047     		bx	lr
 5333              		.cfi_endproc
 5334              	.LFE393:
 5336              		.text
 5337              	.Letext0:
 5338              		.file 2 "/home/eddie/arm/arm_tools/arm-none-eabi/include/machine/_default_types.h"
 5339              		.file 3 "/home/eddie/arm/arm_tools/arm-none-eabi/include/sys/_stdint.h"
 5340              		.file 4 "Drivers/CMSIS/Include/cmsis_gcc.h"
 5341              		.file 5 "Drivers/CMSIS/Device/ST/STM32U5xx/Include/stm32u575xx.h"
 5342              		.file 6 "Drivers/STM32U5xx_HAL_Driver/Inc/stm32u5xx_hal_def.h"
 5343              		.file 7 "Drivers/STM32U5xx_HAL_Driver/Inc/stm32u5xx_ll_usb.h"
 5344              		.file 8 "Drivers/STM32U5xx_HAL_Driver/Inc/stm32u5xx_hal.h"
ARM GAS  /tmp/cc0vokHo.s 			page 158


DEFINED SYMBOLS
                            *ABS*:0000000000000000 stm32u5xx_ll_usb.c
     /tmp/cc0vokHo.s:21     .text.USB_CoreReset:0000000000000000 $t
     /tmp/cc0vokHo.s:26     .text.USB_CoreReset:0000000000000000 USB_CoreReset
     /tmp/cc0vokHo.s:122    .text.USB_CoreReset:000000000000004c $d
     /tmp/cc0vokHo.s:127    .text.USB_CoreInit:0000000000000000 $t
     /tmp/cc0vokHo.s:133    .text.USB_CoreInit:0000000000000000 USB_CoreInit
     /tmp/cc0vokHo.s:201    .text.USB_SetTurnaroundTime:0000000000000000 $t
     /tmp/cc0vokHo.s:207    .text.USB_SetTurnaroundTime:0000000000000000 USB_SetTurnaroundTime
     /tmp/cc0vokHo.s:387    .text.USB_SetTurnaroundTime:00000000000000a8 $d
     /tmp/cc0vokHo.s:406    .text.USB_EnableGlobalInt:0000000000000000 $t
     /tmp/cc0vokHo.s:412    .text.USB_EnableGlobalInt:0000000000000000 USB_EnableGlobalInt
     /tmp/cc0vokHo.s:435    .text.USB_DisableGlobalInt:0000000000000000 $t
     /tmp/cc0vokHo.s:441    .text.USB_DisableGlobalInt:0000000000000000 USB_DisableGlobalInt
     /tmp/cc0vokHo.s:464    .text.USB_FlushTxFifo:0000000000000000 $t
     /tmp/cc0vokHo.s:470    .text.USB_FlushTxFifo:0000000000000000 USB_FlushTxFifo
     /tmp/cc0vokHo.s:568    .text.USB_FlushTxFifo:000000000000004c $d
     /tmp/cc0vokHo.s:573    .text.USB_FlushRxFifo:0000000000000000 $t
     /tmp/cc0vokHo.s:579    .text.USB_FlushRxFifo:0000000000000000 USB_FlushRxFifo
     /tmp/cc0vokHo.s:673    .text.USB_FlushRxFifo:0000000000000048 $d
     /tmp/cc0vokHo.s:678    .text.USB_SetDevSpeed:0000000000000000 $t
     /tmp/cc0vokHo.s:684    .text.USB_SetDevSpeed:0000000000000000 USB_SetDevSpeed
     /tmp/cc0vokHo.s:710    .text.USB_DevInit:0000000000000000 $t
     /tmp/cc0vokHo.s:716    .text.USB_DevInit:0000000000000000 USB_DevInit
     /tmp/cc0vokHo.s:1038   .text.USB_DevInit:0000000000000160 $d
     /tmp/cc0vokHo.s:1043   .text.USB_GetDevSpeed:0000000000000000 $t
     /tmp/cc0vokHo.s:1049   .text.USB_GetDevSpeed:0000000000000000 USB_GetDevSpeed
     /tmp/cc0vokHo.s:1107   .text.USB_ActivateEndpoint:0000000000000000 $t
     /tmp/cc0vokHo.s:1113   .text.USB_ActivateEndpoint:0000000000000000 USB_ActivateEndpoint
     /tmp/cc0vokHo.s:1230   .text.USB_ActivateDedicatedEndpoint:0000000000000000 $t
     /tmp/cc0vokHo.s:1236   .text.USB_ActivateDedicatedEndpoint:0000000000000000 USB_ActivateDedicatedEndpoint
     /tmp/cc0vokHo.s:1361   .text.USB_DeactivateEndpoint:0000000000000000 $t
     /tmp/cc0vokHo.s:1367   .text.USB_DeactivateEndpoint:0000000000000000 USB_DeactivateEndpoint
     /tmp/cc0vokHo.s:1532   .text.USB_DeactivateEndpoint:00000000000000d8 $d
     /tmp/cc0vokHo.s:1538   .text.USB_DeactivateDedicatedEndpoint:0000000000000000 $t
     /tmp/cc0vokHo.s:1544   .text.USB_DeactivateDedicatedEndpoint:0000000000000000 USB_DeactivateDedicatedEndpoint
     /tmp/cc0vokHo.s:1667   .text.USB_EPStopXfer:0000000000000000 $t
     /tmp/cc0vokHo.s:1673   .text.USB_EPStopXfer:0000000000000000 USB_EPStopXfer
     /tmp/cc0vokHo.s:1831   .text.USB_WritePacket:0000000000000000 $t
     /tmp/cc0vokHo.s:1837   .text.USB_WritePacket:0000000000000000 USB_WritePacket
     /tmp/cc0vokHo.s:1908   .text.USB_EPStartXfer:0000000000000000 $t
     /tmp/cc0vokHo.s:1914   .text.USB_EPStartXfer:0000000000000000 USB_EPStartXfer
     /tmp/cc0vokHo.s:2361   .text.USB_EPStartXfer:0000000000000240 $d
     /tmp/cc0vokHo.s:2366   .text.USB_ReadPacket:0000000000000000 $t
     /tmp/cc0vokHo.s:2372   .text.USB_ReadPacket:0000000000000000 USB_ReadPacket
     /tmp/cc0vokHo.s:2482   .text.USB_EPSetStall:0000000000000000 $t
     /tmp/cc0vokHo.s:2488   .text.USB_EPSetStall:0000000000000000 USB_EPSetStall
     /tmp/cc0vokHo.s:2569   .text.USB_EPClearStall:0000000000000000 $t
     /tmp/cc0vokHo.s:2575   .text.USB_EPClearStall:0000000000000000 USB_EPClearStall
     /tmp/cc0vokHo.s:2658   .text.USB_StopDevice:0000000000000000 $t
     /tmp/cc0vokHo.s:2664   .text.USB_StopDevice:0000000000000000 USB_StopDevice
     /tmp/cc0vokHo.s:2747   .text.USB_SetDevAddress:0000000000000000 $t
     /tmp/cc0vokHo.s:2753   .text.USB_SetDevAddress:0000000000000000 USB_SetDevAddress
     /tmp/cc0vokHo.s:2788   .text.USB_DevConnect:0000000000000000 $t
     /tmp/cc0vokHo.s:2794   .text.USB_DevConnect:0000000000000000 USB_DevConnect
     /tmp/cc0vokHo.s:2823   .text.USB_DevDisconnect:0000000000000000 $t
     /tmp/cc0vokHo.s:2829   .text.USB_DevDisconnect:0000000000000000 USB_DevDisconnect
ARM GAS  /tmp/cc0vokHo.s 			page 159


     /tmp/cc0vokHo.s:2858   .text.USB_ReadInterrupts:0000000000000000 $t
     /tmp/cc0vokHo.s:2864   .text.USB_ReadInterrupts:0000000000000000 USB_ReadInterrupts
     /tmp/cc0vokHo.s:2891   .text.USB_ReadChInterrupts:0000000000000000 $t
     /tmp/cc0vokHo.s:2897   .text.USB_ReadChInterrupts:0000000000000000 USB_ReadChInterrupts
     /tmp/cc0vokHo.s:2928   .text.USB_ReadDevAllOutEpInterrupt:0000000000000000 $t
     /tmp/cc0vokHo.s:2934   .text.USB_ReadDevAllOutEpInterrupt:0000000000000000 USB_ReadDevAllOutEpInterrupt
     /tmp/cc0vokHo.s:2967   .text.USB_ReadDevAllInEpInterrupt:0000000000000000 $t
     /tmp/cc0vokHo.s:2973   .text.USB_ReadDevAllInEpInterrupt:0000000000000000 USB_ReadDevAllInEpInterrupt
     /tmp/cc0vokHo.s:3006   .text.USB_ReadDevOutEPInterrupt:0000000000000000 $t
     /tmp/cc0vokHo.s:3012   .text.USB_ReadDevOutEPInterrupt:0000000000000000 USB_ReadDevOutEPInterrupt
     /tmp/cc0vokHo.s:3046   .text.USB_ReadDevInEPInterrupt:0000000000000000 $t
     /tmp/cc0vokHo.s:3052   .text.USB_ReadDevInEPInterrupt:0000000000000000 USB_ReadDevInEPInterrupt
     /tmp/cc0vokHo.s:3113   .text.USB_ClearInterrupts:0000000000000000 $t
     /tmp/cc0vokHo.s:3119   .text.USB_ClearInterrupts:0000000000000000 USB_ClearInterrupts
     /tmp/cc0vokHo.s:3138   .text.USB_GetMode:0000000000000000 $t
     /tmp/cc0vokHo.s:3144   .text.USB_GetMode:0000000000000000 USB_GetMode
     /tmp/cc0vokHo.s:3163   .text.USB_SetCurrentMode:0000000000000000 $t
     /tmp/cc0vokHo.s:3169   .text.USB_SetCurrentMode:0000000000000000 USB_SetCurrentMode
     /tmp/cc0vokHo.s:3286   .text.USB_ActivateSetup:0000000000000000 $t
     /tmp/cc0vokHo.s:3292   .text.USB_ActivateSetup:0000000000000000 USB_ActivateSetup
     /tmp/cc0vokHo.s:3322   .text.USB_EP0_OutStart:0000000000000000 $t
     /tmp/cc0vokHo.s:3328   .text.USB_EP0_OutStart:0000000000000000 USB_EP0_OutStart
     /tmp/cc0vokHo.s:3411   .text.USB_EP0_OutStart:000000000000005c $d
     /tmp/cc0vokHo.s:3416   .text.USB_HostInit:0000000000000000 $t
     /tmp/cc0vokHo.s:3422   .text.USB_HostInit:0000000000000000 USB_HostInit
     /tmp/cc0vokHo.s:3629   .text.USB_HostInit:00000000000000e4 $d
     /tmp/cc0vokHo.s:3636   .text.USB_InitFSLSPClkSel:0000000000000000 $t
     /tmp/cc0vokHo.s:3642   .text.USB_InitFSLSPClkSel:0000000000000000 USB_InitFSLSPClkSel
     /tmp/cc0vokHo.s:3704   .text.USB_ResetPort:0000000000000000 $t
     /tmp/cc0vokHo.s:3710   .text.USB_ResetPort:0000000000000000 USB_ResetPort
     /tmp/cc0vokHo.s:3779   .text.USB_DriveVbus:0000000000000000 $t
     /tmp/cc0vokHo.s:3785   .text.USB_DriveVbus:0000000000000000 USB_DriveVbus
     /tmp/cc0vokHo.s:3864   .text.USB_GetHostSpeed:0000000000000000 $t
     /tmp/cc0vokHo.s:3870   .text.USB_GetHostSpeed:0000000000000000 USB_GetHostSpeed
     /tmp/cc0vokHo.s:3908   .text.USB_GetCurrentFrame:0000000000000000 $t
     /tmp/cc0vokHo.s:3914   .text.USB_GetCurrentFrame:0000000000000000 USB_GetCurrentFrame
     /tmp/cc0vokHo.s:3937   .text.USB_HC_Init:0000000000000000 $t
     /tmp/cc0vokHo.s:3943   .text.USB_HC_Init:0000000000000000 USB_HC_Init
     /tmp/cc0vokHo.s:3985   .text.USB_HC_Init:0000000000000022 $d
     /tmp/cc0vokHo.s:3989   .text.USB_HC_Init:0000000000000026 $t
     /tmp/cc0vokHo.s:4191   .text.USB_HC_ReadInterrupt:0000000000000000 $t
     /tmp/cc0vokHo.s:4197   .text.USB_HC_ReadInterrupt:0000000000000000 USB_HC_ReadInterrupt
     /tmp/cc0vokHo.s:4220   .text.USB_HC_Halt:0000000000000000 $t
     /tmp/cc0vokHo.s:4226   .text.USB_HC_Halt:0000000000000000 USB_HC_Halt
     /tmp/cc0vokHo.s:4438   .text.USB_DoPing:0000000000000000 $t
     /tmp/cc0vokHo.s:4444   .text.USB_DoPing:0000000000000000 USB_DoPing
     /tmp/cc0vokHo.s:4486   .text.USB_DoPing:0000000000000020 $d
     /tmp/cc0vokHo.s:4491   .text.USB_HC_StartXfer:0000000000000000 $t
     /tmp/cc0vokHo.s:4497   .text.USB_HC_StartXfer:0000000000000000 USB_HC_StartXfer
     /tmp/cc0vokHo.s:4871   .text.USB_HC_StartXfer:0000000000000190 $d
     /tmp/cc0vokHo.s:4876   .text.USB_HC_StartXfer:0000000000000194 $t
     /tmp/cc0vokHo.s:4937   .text.USB_HC_StartXfer:00000000000001dc $d
     /tmp/cc0vokHo.s:4941   .text.USB_HC_StartXfer:00000000000001e0 $t
     /tmp/cc0vokHo.s:5089   .text.USB_HC_StartXfer:00000000000002a0 $d
     /tmp/cc0vokHo.s:5094   .text.USB_StopHost:0000000000000000 $t
     /tmp/cc0vokHo.s:5100   .text.USB_StopHost:0000000000000000 USB_StopHost
     /tmp/cc0vokHo.s:5267   .text.USB_ActivateRemoteWakeup:0000000000000000 $t
ARM GAS  /tmp/cc0vokHo.s 			page 160


     /tmp/cc0vokHo.s:5273   .text.USB_ActivateRemoteWakeup:0000000000000000 USB_ActivateRemoteWakeup
     /tmp/cc0vokHo.s:5307   .text.USB_DeActivateRemoteWakeup:0000000000000000 $t
     /tmp/cc0vokHo.s:5313   .text.USB_DeActivateRemoteWakeup:0000000000000000 USB_DeActivateRemoteWakeup

UNDEFINED SYMBOLS
HAL_Delay
