ARM GAS  /tmp/ccudYRdF.s 			page 1


   1              		.cpu cortex-m33
   2              		.arch armv8-m.main
   3              		.fpu fpv4-sp-d16
   4              		.arch_extension dsp
   5              		.eabi_attribute 27, 1
   6              		.eabi_attribute 28, 1
   7              		.eabi_attribute 20, 1
   8              		.eabi_attribute 21, 1
   9              		.eabi_attribute 23, 3
  10              		.eabi_attribute 24, 1
  11              		.eabi_attribute 25, 1
  12              		.eabi_attribute 26, 1
  13              		.eabi_attribute 30, 1
  14              		.eabi_attribute 34, 1
  15              		.eabi_attribute 18, 4
  16              		.file	"stm32u5xx_hal_flash_ex.c"
  17              		.text
  18              	.Ltext0:
  19              		.cfi_sections	.debug_frame
  20              		.section	.text.FLASH_MassErase,"ax",%progbits
  21              		.align	1
  22              		.syntax unified
  23              		.thumb
  24              		.thumb_func
  26              	FLASH_MassErase:
  27              	.LVL0:
  28              	.LFB357:
  29              		.file 1 "Drivers/STM32U5xx_HAL_Driver/Src/stm32u5xx_hal_flash_ex.c"
   1:Drivers/STM32U5xx_HAL_Driver/Src/stm32u5xx_hal_flash_ex.c **** /**
   2:Drivers/STM32U5xx_HAL_Driver/Src/stm32u5xx_hal_flash_ex.c ****   ******************************************************************************
   3:Drivers/STM32U5xx_HAL_Driver/Src/stm32u5xx_hal_flash_ex.c ****   * @file    stm32u5xx_hal_flash_ex.c
   4:Drivers/STM32U5xx_HAL_Driver/Src/stm32u5xx_hal_flash_ex.c ****   * @author  MCD Application Team
   5:Drivers/STM32U5xx_HAL_Driver/Src/stm32u5xx_hal_flash_ex.c ****   * @brief   Extended FLASH HAL module driver.
   6:Drivers/STM32U5xx_HAL_Driver/Src/stm32u5xx_hal_flash_ex.c ****   *          This file provides firmware functions to manage the following
   7:Drivers/STM32U5xx_HAL_Driver/Src/stm32u5xx_hal_flash_ex.c ****   *          functionalities of the FLASH extended peripheral:
   8:Drivers/STM32U5xx_HAL_Driver/Src/stm32u5xx_hal_flash_ex.c ****   *           + Extended programming operations functions
   9:Drivers/STM32U5xx_HAL_Driver/Src/stm32u5xx_hal_flash_ex.c ****   *
  10:Drivers/STM32U5xx_HAL_Driver/Src/stm32u5xx_hal_flash_ex.c ****   ******************************************************************************
  11:Drivers/STM32U5xx_HAL_Driver/Src/stm32u5xx_hal_flash_ex.c ****   * @attention
  12:Drivers/STM32U5xx_HAL_Driver/Src/stm32u5xx_hal_flash_ex.c ****   *
  13:Drivers/STM32U5xx_HAL_Driver/Src/stm32u5xx_hal_flash_ex.c ****   * Copyright (c) 2021 STMicroelectronics.
  14:Drivers/STM32U5xx_HAL_Driver/Src/stm32u5xx_hal_flash_ex.c ****   * All rights reserved.
  15:Drivers/STM32U5xx_HAL_Driver/Src/stm32u5xx_hal_flash_ex.c ****   *
  16:Drivers/STM32U5xx_HAL_Driver/Src/stm32u5xx_hal_flash_ex.c ****   * This software is licensed under terms that can be found in the LICENSE file
  17:Drivers/STM32U5xx_HAL_Driver/Src/stm32u5xx_hal_flash_ex.c ****   * in the root directory of this software component.
  18:Drivers/STM32U5xx_HAL_Driver/Src/stm32u5xx_hal_flash_ex.c ****   * If no LICENSE file comes with this software, it is provided AS-IS.
  19:Drivers/STM32U5xx_HAL_Driver/Src/stm32u5xx_hal_flash_ex.c ****   *
  20:Drivers/STM32U5xx_HAL_Driver/Src/stm32u5xx_hal_flash_ex.c ****   ******************************************************************************
  21:Drivers/STM32U5xx_HAL_Driver/Src/stm32u5xx_hal_flash_ex.c ****  @verbatim
  22:Drivers/STM32U5xx_HAL_Driver/Src/stm32u5xx_hal_flash_ex.c ****  ==============================================================================
  23:Drivers/STM32U5xx_HAL_Driver/Src/stm32u5xx_hal_flash_ex.c ****                    ##### Flash Extended features #####
  24:Drivers/STM32U5xx_HAL_Driver/Src/stm32u5xx_hal_flash_ex.c ****  ==============================================================================
  25:Drivers/STM32U5xx_HAL_Driver/Src/stm32u5xx_hal_flash_ex.c **** 
  26:Drivers/STM32U5xx_HAL_Driver/Src/stm32u5xx_hal_flash_ex.c ****   [..] Comparing to other previous devices, the FLASH interface for STM32U5xx
  27:Drivers/STM32U5xx_HAL_Driver/Src/stm32u5xx_hal_flash_ex.c ****        devices contains the following additional features
  28:Drivers/STM32U5xx_HAL_Driver/Src/stm32u5xx_hal_flash_ex.c **** 
  29:Drivers/STM32U5xx_HAL_Driver/Src/stm32u5xx_hal_flash_ex.c ****        (+) Capacity up to 2 Mbyte with dual bank architecture supporting read-while-write
ARM GAS  /tmp/ccudYRdF.s 			page 2


  30:Drivers/STM32U5xx_HAL_Driver/Src/stm32u5xx_hal_flash_ex.c ****            capability (RWW)
  31:Drivers/STM32U5xx_HAL_Driver/Src/stm32u5xx_hal_flash_ex.c ****        (+) Dual bank memory organization
  32:Drivers/STM32U5xx_HAL_Driver/Src/stm32u5xx_hal_flash_ex.c ****        (+) Watermark-based secure area including the secure hide areas
  33:Drivers/STM32U5xx_HAL_Driver/Src/stm32u5xx_hal_flash_ex.c ****        (+) Block-based secure pages
  34:Drivers/STM32U5xx_HAL_Driver/Src/stm32u5xx_hal_flash_ex.c **** 
  35:Drivers/STM32U5xx_HAL_Driver/Src/stm32u5xx_hal_flash_ex.c ****                         ##### How to use this driver #####
  36:Drivers/STM32U5xx_HAL_Driver/Src/stm32u5xx_hal_flash_ex.c ****  ==============================================================================
  37:Drivers/STM32U5xx_HAL_Driver/Src/stm32u5xx_hal_flash_ex.c ****   [..] This driver provides functions to configure and program the FLASH memory
  38:Drivers/STM32U5xx_HAL_Driver/Src/stm32u5xx_hal_flash_ex.c ****        of all STM32U5xx devices. It includes:
  39:Drivers/STM32U5xx_HAL_Driver/Src/stm32u5xx_hal_flash_ex.c ****       (#) Flash Memory Erase functions:
  40:Drivers/STM32U5xx_HAL_Driver/Src/stm32u5xx_hal_flash_ex.c ****            (++) Lock and Unlock the FLASH interface using HAL_FLASH_Unlock() and
  41:Drivers/STM32U5xx_HAL_Driver/Src/stm32u5xx_hal_flash_ex.c ****                 HAL_FLASH_Lock() functions
  42:Drivers/STM32U5xx_HAL_Driver/Src/stm32u5xx_hal_flash_ex.c ****            (++) Erase function: page Erase and Bank/Mass Erase
  43:Drivers/STM32U5xx_HAL_Driver/Src/stm32u5xx_hal_flash_ex.c ****            (++) There are two modes of erase :
  44:Drivers/STM32U5xx_HAL_Driver/Src/stm32u5xx_hal_flash_ex.c ****              (+++) Polling Mode using HAL_FLASHEx_Erase()
  45:Drivers/STM32U5xx_HAL_Driver/Src/stm32u5xx_hal_flash_ex.c ****              (+++) Interrupt Mode using HAL_FLASHEx_Erase_IT()
  46:Drivers/STM32U5xx_HAL_Driver/Src/stm32u5xx_hal_flash_ex.c **** 
  47:Drivers/STM32U5xx_HAL_Driver/Src/stm32u5xx_hal_flash_ex.c ****       (#) Option Bytes Programming function: Use HAL_FLASHEx_OBProgram() to:
  48:Drivers/STM32U5xx_HAL_Driver/Src/stm32u5xx_hal_flash_ex.c ****         (++) Configure the write protection for each area
  49:Drivers/STM32U5xx_HAL_Driver/Src/stm32u5xx_hal_flash_ex.c ****         (++) Set the Read protection Level
  50:Drivers/STM32U5xx_HAL_Driver/Src/stm32u5xx_hal_flash_ex.c ****         (++) Program the user Option Bytes
  51:Drivers/STM32U5xx_HAL_Driver/Src/stm32u5xx_hal_flash_ex.c ****         (++) Configure the watermark security for each area including the secure hide areas
  52:Drivers/STM32U5xx_HAL_Driver/Src/stm32u5xx_hal_flash_ex.c ****         (++) Configure the boot lock (BOOT_LOCK)
  53:Drivers/STM32U5xx_HAL_Driver/Src/stm32u5xx_hal_flash_ex.c ****         (++) Configure the Boot addresses
  54:Drivers/STM32U5xx_HAL_Driver/Src/stm32u5xx_hal_flash_ex.c **** 
  55:Drivers/STM32U5xx_HAL_Driver/Src/stm32u5xx_hal_flash_ex.c ****       (#) Get Option Bytes Configuration function: Use HAL_FLASHEx_OBGetConfig() to:
  56:Drivers/STM32U5xx_HAL_Driver/Src/stm32u5xx_hal_flash_ex.c ****         (++) Get the value of a write protection area
  57:Drivers/STM32U5xx_HAL_Driver/Src/stm32u5xx_hal_flash_ex.c ****         (++) Know if the read protection is activated
  58:Drivers/STM32U5xx_HAL_Driver/Src/stm32u5xx_hal_flash_ex.c ****         (++) Get the value of the user Option Bytes
  59:Drivers/STM32U5xx_HAL_Driver/Src/stm32u5xx_hal_flash_ex.c ****         (++) Get the configuration of a watermark security area including the secure hide areas
  60:Drivers/STM32U5xx_HAL_Driver/Src/stm32u5xx_hal_flash_ex.c ****         (++) Get the boot lock (BOOT_LOCK) configuration
  61:Drivers/STM32U5xx_HAL_Driver/Src/stm32u5xx_hal_flash_ex.c ****         (++) Get the value of a boot address
  62:Drivers/STM32U5xx_HAL_Driver/Src/stm32u5xx_hal_flash_ex.c **** 
  63:Drivers/STM32U5xx_HAL_Driver/Src/stm32u5xx_hal_flash_ex.c ****       (#) Block-based secure / privilege area configuration function: Use HAL_FLASHEx_ConfigBBAttri
  64:Drivers/STM32U5xx_HAL_Driver/Src/stm32u5xx_hal_flash_ex.c ****         (++) Bit-field allowing to secure or un-secure each page
  65:Drivers/STM32U5xx_HAL_Driver/Src/stm32u5xx_hal_flash_ex.c ****         (++) Bit-field allowing to privilege or un-privilege each page
  66:Drivers/STM32U5xx_HAL_Driver/Src/stm32u5xx_hal_flash_ex.c **** 
  67:Drivers/STM32U5xx_HAL_Driver/Src/stm32u5xx_hal_flash_ex.c ****       (#) Get the block-based secure / privilege area configuration function: Use HAL_FLASHEx_GetBB
  68:Drivers/STM32U5xx_HAL_Driver/Src/stm32u5xx_hal_flash_ex.c ****         (++) Return the configuration of the block-based security and privilege for all the pages
  69:Drivers/STM32U5xx_HAL_Driver/Src/stm32u5xx_hal_flash_ex.c **** 
  70:Drivers/STM32U5xx_HAL_Driver/Src/stm32u5xx_hal_flash_ex.c ****       (#) Activation of the secure hide area function: Use HAL_FLASHEx_EnableSecHideProtection()
  71:Drivers/STM32U5xx_HAL_Driver/Src/stm32u5xx_hal_flash_ex.c ****         (++) Deny the access to the secure hide area
  72:Drivers/STM32U5xx_HAL_Driver/Src/stm32u5xx_hal_flash_ex.c **** 
  73:Drivers/STM32U5xx_HAL_Driver/Src/stm32u5xx_hal_flash_ex.c ****       (#) Privilege mode configuration function: Use HAL_FLASHEx_ConfigPrivMode()
  74:Drivers/STM32U5xx_HAL_Driver/Src/stm32u5xx_hal_flash_ex.c ****         (++) FLASH register can be protected against non-privilege accesses
  75:Drivers/STM32U5xx_HAL_Driver/Src/stm32u5xx_hal_flash_ex.c **** 
  76:Drivers/STM32U5xx_HAL_Driver/Src/stm32u5xx_hal_flash_ex.c ****       (#) Get the privilege mode configuration function: Use HAL_FLASHEx_GetPrivMode()
  77:Drivers/STM32U5xx_HAL_Driver/Src/stm32u5xx_hal_flash_ex.c ****         (++) Return if the FLASH registers are protected against non-privilege accesses
  78:Drivers/STM32U5xx_HAL_Driver/Src/stm32u5xx_hal_flash_ex.c **** 
  79:Drivers/STM32U5xx_HAL_Driver/Src/stm32u5xx_hal_flash_ex.c ****       (#) Security inversion configuration function: Use HAL_FLASHEx_ConfigSecInversion()
  80:Drivers/STM32U5xx_HAL_Driver/Src/stm32u5xx_hal_flash_ex.c ****         (++) FLASH secure state can be override
  81:Drivers/STM32U5xx_HAL_Driver/Src/stm32u5xx_hal_flash_ex.c **** 
  82:Drivers/STM32U5xx_HAL_Driver/Src/stm32u5xx_hal_flash_ex.c ****       (#) Get the security inversion configuration function: Use HAL_FLASHEx_GetSecInversion()
  83:Drivers/STM32U5xx_HAL_Driver/Src/stm32u5xx_hal_flash_ex.c ****         (++) Return if FLASH secure state is override
  84:Drivers/STM32U5xx_HAL_Driver/Src/stm32u5xx_hal_flash_ex.c **** 
  85:Drivers/STM32U5xx_HAL_Driver/Src/stm32u5xx_hal_flash_ex.c ****       (#) Enable bank low-power mode function: Use HAL_FLASHEx_EnablePowerDown()
  86:Drivers/STM32U5xx_HAL_Driver/Src/stm32u5xx_hal_flash_ex.c ****         (++) Enable low-power mode for Flash Bank 1 and/or Bank 2
ARM GAS  /tmp/ccudYRdF.s 			page 3


  87:Drivers/STM32U5xx_HAL_Driver/Src/stm32u5xx_hal_flash_ex.c **** 
  88:Drivers/STM32U5xx_HAL_Driver/Src/stm32u5xx_hal_flash_ex.c ****       (#) Enable low-power read mode function: Use HAL_FLASHEx_ConfigLowPowerRead()
  89:Drivers/STM32U5xx_HAL_Driver/Src/stm32u5xx_hal_flash_ex.c ****         (++) Enable low-power read mode for Flash memory
  90:Drivers/STM32U5xx_HAL_Driver/Src/stm32u5xx_hal_flash_ex.c **** 
  91:Drivers/STM32U5xx_HAL_Driver/Src/stm32u5xx_hal_flash_ex.c ****       (#) Get the low-power read mode configuration function: Use HAL_FLASHEx_GetLowPowerRead()
  92:Drivers/STM32U5xx_HAL_Driver/Src/stm32u5xx_hal_flash_ex.c ****         (++) Return if FLASH is in low-power read mode or normal read mode
  93:Drivers/STM32U5xx_HAL_Driver/Src/stm32u5xx_hal_flash_ex.c **** 
  94:Drivers/STM32U5xx_HAL_Driver/Src/stm32u5xx_hal_flash_ex.c ****       (#) Get Flash operation function: Use HAL_FLASHEx_GetOperation()
  95:Drivers/STM32U5xx_HAL_Driver/Src/stm32u5xx_hal_flash_ex.c ****         (++) Return information about the on-going Flash operation. After a
  96:Drivers/STM32U5xx_HAL_Driver/Src/stm32u5xx_hal_flash_ex.c ****              system reset, return information about the interrupted Flash operation, if any.
  97:Drivers/STM32U5xx_HAL_Driver/Src/stm32u5xx_hal_flash_ex.c **** 
  98:Drivers/STM32U5xx_HAL_Driver/Src/stm32u5xx_hal_flash_ex.c ****  @endverbatim
  99:Drivers/STM32U5xx_HAL_Driver/Src/stm32u5xx_hal_flash_ex.c ****   ******************************************************************************
 100:Drivers/STM32U5xx_HAL_Driver/Src/stm32u5xx_hal_flash_ex.c ****   */
 101:Drivers/STM32U5xx_HAL_Driver/Src/stm32u5xx_hal_flash_ex.c **** 
 102:Drivers/STM32U5xx_HAL_Driver/Src/stm32u5xx_hal_flash_ex.c **** /* Includes ------------------------------------------------------------------*/
 103:Drivers/STM32U5xx_HAL_Driver/Src/stm32u5xx_hal_flash_ex.c **** #include "stm32u5xx_hal.h"
 104:Drivers/STM32U5xx_HAL_Driver/Src/stm32u5xx_hal_flash_ex.c **** 
 105:Drivers/STM32U5xx_HAL_Driver/Src/stm32u5xx_hal_flash_ex.c **** /** @addtogroup STM32U5xx_HAL_Driver
 106:Drivers/STM32U5xx_HAL_Driver/Src/stm32u5xx_hal_flash_ex.c ****   * @{
 107:Drivers/STM32U5xx_HAL_Driver/Src/stm32u5xx_hal_flash_ex.c ****   */
 108:Drivers/STM32U5xx_HAL_Driver/Src/stm32u5xx_hal_flash_ex.c **** 
 109:Drivers/STM32U5xx_HAL_Driver/Src/stm32u5xx_hal_flash_ex.c **** /** @defgroup FLASHEx FLASHEx
 110:Drivers/STM32U5xx_HAL_Driver/Src/stm32u5xx_hal_flash_ex.c ****   * @brief FLASH Extended HAL module driver
 111:Drivers/STM32U5xx_HAL_Driver/Src/stm32u5xx_hal_flash_ex.c ****   * @{
 112:Drivers/STM32U5xx_HAL_Driver/Src/stm32u5xx_hal_flash_ex.c ****   */
 113:Drivers/STM32U5xx_HAL_Driver/Src/stm32u5xx_hal_flash_ex.c **** 
 114:Drivers/STM32U5xx_HAL_Driver/Src/stm32u5xx_hal_flash_ex.c **** #ifdef HAL_FLASH_MODULE_ENABLED
 115:Drivers/STM32U5xx_HAL_Driver/Src/stm32u5xx_hal_flash_ex.c **** 
 116:Drivers/STM32U5xx_HAL_Driver/Src/stm32u5xx_hal_flash_ex.c **** /* Private typedef -----------------------------------------------------------*/
 117:Drivers/STM32U5xx_HAL_Driver/Src/stm32u5xx_hal_flash_ex.c **** /* Private define ------------------------------------------------------------*/
 118:Drivers/STM32U5xx_HAL_Driver/Src/stm32u5xx_hal_flash_ex.c **** /* Private macro -------------------------------------------------------------*/
 119:Drivers/STM32U5xx_HAL_Driver/Src/stm32u5xx_hal_flash_ex.c **** /* Private variables ---------------------------------------------------------*/
 120:Drivers/STM32U5xx_HAL_Driver/Src/stm32u5xx_hal_flash_ex.c **** /* Private function prototypes -----------------------------------------------*/
 121:Drivers/STM32U5xx_HAL_Driver/Src/stm32u5xx_hal_flash_ex.c **** /** @defgroup FLASHEx_Private_Functions FLASHEx Private Functions
 122:Drivers/STM32U5xx_HAL_Driver/Src/stm32u5xx_hal_flash_ex.c ****   * @{
 123:Drivers/STM32U5xx_HAL_Driver/Src/stm32u5xx_hal_flash_ex.c ****   */
 124:Drivers/STM32U5xx_HAL_Driver/Src/stm32u5xx_hal_flash_ex.c **** static void              FLASH_MassErase(uint32_t Banks);
 125:Drivers/STM32U5xx_HAL_Driver/Src/stm32u5xx_hal_flash_ex.c **** static void              FLASH_OB_WRPConfig(uint32_t WRPArea, uint32_t WRPStartOffset, uint32_t WRP
 126:Drivers/STM32U5xx_HAL_Driver/Src/stm32u5xx_hal_flash_ex.c ****                                             FunctionalState WRPLock);
 127:Drivers/STM32U5xx_HAL_Driver/Src/stm32u5xx_hal_flash_ex.c **** static void              FLASH_OB_RDPConfig(uint32_t RDPLevel);
 128:Drivers/STM32U5xx_HAL_Driver/Src/stm32u5xx_hal_flash_ex.c **** static void              FLASH_OB_UserConfig(uint32_t UserType, uint32_t UserConfig);
 129:Drivers/STM32U5xx_HAL_Driver/Src/stm32u5xx_hal_flash_ex.c **** #if defined (__ARM_FEATURE_CMSE) && (__ARM_FEATURE_CMSE == 3U)
 130:Drivers/STM32U5xx_HAL_Driver/Src/stm32u5xx_hal_flash_ex.c **** static void              FLASH_OB_WMSECConfig(uint32_t WMSecConfig, uint32_t WMSecStartPage, uint32
 131:Drivers/STM32U5xx_HAL_Driver/Src/stm32u5xx_hal_flash_ex.c ****                                               uint32_t WMHDPEndPage);
 132:Drivers/STM32U5xx_HAL_Driver/Src/stm32u5xx_hal_flash_ex.c **** static void              FLASH_OB_BootLockConfig(uint32_t BootLockConfig);
 133:Drivers/STM32U5xx_HAL_Driver/Src/stm32u5xx_hal_flash_ex.c **** #endif /* __ARM_FEATURE_CMSE */
 134:Drivers/STM32U5xx_HAL_Driver/Src/stm32u5xx_hal_flash_ex.c **** static void              FLASH_OB_BootAddrConfig(uint32_t BootAddrConfig, uint32_t BootAddr);
 135:Drivers/STM32U5xx_HAL_Driver/Src/stm32u5xx_hal_flash_ex.c **** static void              FLASH_OB_GetWRP(uint32_t WRPArea, uint32_t *WRPStartOffset, uint32_t *WRPE
 136:Drivers/STM32U5xx_HAL_Driver/Src/stm32u5xx_hal_flash_ex.c ****                                          FunctionalState *WRPLock);
 137:Drivers/STM32U5xx_HAL_Driver/Src/stm32u5xx_hal_flash_ex.c **** static uint32_t          FLASH_OB_GetRDP(void);
 138:Drivers/STM32U5xx_HAL_Driver/Src/stm32u5xx_hal_flash_ex.c **** static uint32_t          FLASH_OB_GetUser(void);
 139:Drivers/STM32U5xx_HAL_Driver/Src/stm32u5xx_hal_flash_ex.c **** #if defined (__ARM_FEATURE_CMSE) && (__ARM_FEATURE_CMSE == 3U)
 140:Drivers/STM32U5xx_HAL_Driver/Src/stm32u5xx_hal_flash_ex.c **** static void              FLASH_OB_GetWMSEC(uint32_t *WMSecConfig, uint32_t *WMSecStartPage, uint32_
 141:Drivers/STM32U5xx_HAL_Driver/Src/stm32u5xx_hal_flash_ex.c ****                                            uint32_t *WMHDPEndPage);
 142:Drivers/STM32U5xx_HAL_Driver/Src/stm32u5xx_hal_flash_ex.c **** static uint32_t          FLASH_OB_GetBootLock(void);
 143:Drivers/STM32U5xx_HAL_Driver/Src/stm32u5xx_hal_flash_ex.c **** #endif /* __ARM_FEATURE_CMSE */
ARM GAS  /tmp/ccudYRdF.s 			page 4


 144:Drivers/STM32U5xx_HAL_Driver/Src/stm32u5xx_hal_flash_ex.c **** static void              FLASH_OB_GetBootAddr(uint32_t BootAddrConfig, uint32_t *BootAddr);
 145:Drivers/STM32U5xx_HAL_Driver/Src/stm32u5xx_hal_flash_ex.c **** static void              FLASH_OB_RDPKeyConfig(uint32_t RDPKeyType, uint32_t RDPKey1, uint32_t RDPK
 146:Drivers/STM32U5xx_HAL_Driver/Src/stm32u5xx_hal_flash_ex.c **** /**
 147:Drivers/STM32U5xx_HAL_Driver/Src/stm32u5xx_hal_flash_ex.c ****   * @}
 148:Drivers/STM32U5xx_HAL_Driver/Src/stm32u5xx_hal_flash_ex.c ****   */
 149:Drivers/STM32U5xx_HAL_Driver/Src/stm32u5xx_hal_flash_ex.c **** 
 150:Drivers/STM32U5xx_HAL_Driver/Src/stm32u5xx_hal_flash_ex.c **** /* Exported functions -------------------------------------------------------*/
 151:Drivers/STM32U5xx_HAL_Driver/Src/stm32u5xx_hal_flash_ex.c **** /** @defgroup FLASHEx_Exported_Functions FLASHEx Exported Functions
 152:Drivers/STM32U5xx_HAL_Driver/Src/stm32u5xx_hal_flash_ex.c ****   * @{
 153:Drivers/STM32U5xx_HAL_Driver/Src/stm32u5xx_hal_flash_ex.c ****   */
 154:Drivers/STM32U5xx_HAL_Driver/Src/stm32u5xx_hal_flash_ex.c **** 
 155:Drivers/STM32U5xx_HAL_Driver/Src/stm32u5xx_hal_flash_ex.c **** /** @defgroup FLASHEx_Exported_Functions_Group1 Extended IO operation functions
 156:Drivers/STM32U5xx_HAL_Driver/Src/stm32u5xx_hal_flash_ex.c ****   *  @brief   Extended IO operation functions
 157:Drivers/STM32U5xx_HAL_Driver/Src/stm32u5xx_hal_flash_ex.c ****   *
 158:Drivers/STM32U5xx_HAL_Driver/Src/stm32u5xx_hal_flash_ex.c **** @verbatim
 159:Drivers/STM32U5xx_HAL_Driver/Src/stm32u5xx_hal_flash_ex.c ****  ===============================================================================
 160:Drivers/STM32U5xx_HAL_Driver/Src/stm32u5xx_hal_flash_ex.c ****                 ##### Extended programming operation functions #####
 161:Drivers/STM32U5xx_HAL_Driver/Src/stm32u5xx_hal_flash_ex.c ****  ===============================================================================
 162:Drivers/STM32U5xx_HAL_Driver/Src/stm32u5xx_hal_flash_ex.c ****     [..]
 163:Drivers/STM32U5xx_HAL_Driver/Src/stm32u5xx_hal_flash_ex.c ****     This subsection provides a set of functions allowing to manage the Extended FLASH
 164:Drivers/STM32U5xx_HAL_Driver/Src/stm32u5xx_hal_flash_ex.c ****     programming operations Operations.
 165:Drivers/STM32U5xx_HAL_Driver/Src/stm32u5xx_hal_flash_ex.c **** 
 166:Drivers/STM32U5xx_HAL_Driver/Src/stm32u5xx_hal_flash_ex.c **** @endverbatim
 167:Drivers/STM32U5xx_HAL_Driver/Src/stm32u5xx_hal_flash_ex.c ****   * @{
 168:Drivers/STM32U5xx_HAL_Driver/Src/stm32u5xx_hal_flash_ex.c ****   */
 169:Drivers/STM32U5xx_HAL_Driver/Src/stm32u5xx_hal_flash_ex.c **** /**
 170:Drivers/STM32U5xx_HAL_Driver/Src/stm32u5xx_hal_flash_ex.c ****   * @brief  Perform a mass erase or erase the specified FLASH memory pages.
 171:Drivers/STM32U5xx_HAL_Driver/Src/stm32u5xx_hal_flash_ex.c ****   * @param[in]  pEraseInit pointer to an FLASH_EraseInitTypeDef structure that
 172:Drivers/STM32U5xx_HAL_Driver/Src/stm32u5xx_hal_flash_ex.c ****   *         contains the configuration information for the erasing.
 173:Drivers/STM32U5xx_HAL_Driver/Src/stm32u5xx_hal_flash_ex.c ****   *
 174:Drivers/STM32U5xx_HAL_Driver/Src/stm32u5xx_hal_flash_ex.c ****   * @param[out]  PageError pointer to variable that contains the configuration
 175:Drivers/STM32U5xx_HAL_Driver/Src/stm32u5xx_hal_flash_ex.c ****   *         information on faulty page in case of error (0xFFFFFFFF means that all
 176:Drivers/STM32U5xx_HAL_Driver/Src/stm32u5xx_hal_flash_ex.c ****   *         the pages have been correctly erased).
 177:Drivers/STM32U5xx_HAL_Driver/Src/stm32u5xx_hal_flash_ex.c ****   *
 178:Drivers/STM32U5xx_HAL_Driver/Src/stm32u5xx_hal_flash_ex.c ****   * @retval HAL Status
 179:Drivers/STM32U5xx_HAL_Driver/Src/stm32u5xx_hal_flash_ex.c ****   */
 180:Drivers/STM32U5xx_HAL_Driver/Src/stm32u5xx_hal_flash_ex.c **** HAL_StatusTypeDef HAL_FLASHEx_Erase(FLASH_EraseInitTypeDef *pEraseInit, uint32_t *PageError)
 181:Drivers/STM32U5xx_HAL_Driver/Src/stm32u5xx_hal_flash_ex.c **** {
 182:Drivers/STM32U5xx_HAL_Driver/Src/stm32u5xx_hal_flash_ex.c ****   HAL_StatusTypeDef status;
 183:Drivers/STM32U5xx_HAL_Driver/Src/stm32u5xx_hal_flash_ex.c ****   uint32_t page_index;
 184:Drivers/STM32U5xx_HAL_Driver/Src/stm32u5xx_hal_flash_ex.c ****   __IO uint32_t *reg_cr;
 185:Drivers/STM32U5xx_HAL_Driver/Src/stm32u5xx_hal_flash_ex.c **** 
 186:Drivers/STM32U5xx_HAL_Driver/Src/stm32u5xx_hal_flash_ex.c ****   /* Check the parameters */
 187:Drivers/STM32U5xx_HAL_Driver/Src/stm32u5xx_hal_flash_ex.c ****   assert_param(IS_FLASH_TYPEERASE(pEraseInit->TypeErase));
 188:Drivers/STM32U5xx_HAL_Driver/Src/stm32u5xx_hal_flash_ex.c **** 
 189:Drivers/STM32U5xx_HAL_Driver/Src/stm32u5xx_hal_flash_ex.c ****   /* Process Locked */
 190:Drivers/STM32U5xx_HAL_Driver/Src/stm32u5xx_hal_flash_ex.c ****   __HAL_LOCK(&pFlash);
 191:Drivers/STM32U5xx_HAL_Driver/Src/stm32u5xx_hal_flash_ex.c **** 
 192:Drivers/STM32U5xx_HAL_Driver/Src/stm32u5xx_hal_flash_ex.c ****   /* Reset error code */
 193:Drivers/STM32U5xx_HAL_Driver/Src/stm32u5xx_hal_flash_ex.c ****   pFlash.ErrorCode = HAL_FLASH_ERROR_NONE;
 194:Drivers/STM32U5xx_HAL_Driver/Src/stm32u5xx_hal_flash_ex.c **** 
 195:Drivers/STM32U5xx_HAL_Driver/Src/stm32u5xx_hal_flash_ex.c ****   /* Wait for last operation to be completed */
 196:Drivers/STM32U5xx_HAL_Driver/Src/stm32u5xx_hal_flash_ex.c ****   status = FLASH_WaitForLastOperation(FLASH_TIMEOUT_VALUE);
 197:Drivers/STM32U5xx_HAL_Driver/Src/stm32u5xx_hal_flash_ex.c **** 
 198:Drivers/STM32U5xx_HAL_Driver/Src/stm32u5xx_hal_flash_ex.c ****   if (status == HAL_OK)
 199:Drivers/STM32U5xx_HAL_Driver/Src/stm32u5xx_hal_flash_ex.c ****   {
 200:Drivers/STM32U5xx_HAL_Driver/Src/stm32u5xx_hal_flash_ex.c ****     /* Current operation type */
ARM GAS  /tmp/ccudYRdF.s 			page 5


 201:Drivers/STM32U5xx_HAL_Driver/Src/stm32u5xx_hal_flash_ex.c ****     pFlash.ProcedureOnGoing = pEraseInit->TypeErase;
 202:Drivers/STM32U5xx_HAL_Driver/Src/stm32u5xx_hal_flash_ex.c **** 
 203:Drivers/STM32U5xx_HAL_Driver/Src/stm32u5xx_hal_flash_ex.c ****     /* Access to SECCR or NSCR depends on operation type */
 204:Drivers/STM32U5xx_HAL_Driver/Src/stm32u5xx_hal_flash_ex.c ****     reg_cr = IS_FLASH_SECURE_OPERATION() ? &(FLASH->SECCR) : &(FLASH->NSCR);
 205:Drivers/STM32U5xx_HAL_Driver/Src/stm32u5xx_hal_flash_ex.c **** 
 206:Drivers/STM32U5xx_HAL_Driver/Src/stm32u5xx_hal_flash_ex.c ****     if ((pEraseInit->TypeErase & (~FLASH_NON_SECURE_MASK)) == FLASH_TYPEERASE_MASSERASE)
 207:Drivers/STM32U5xx_HAL_Driver/Src/stm32u5xx_hal_flash_ex.c ****     {
 208:Drivers/STM32U5xx_HAL_Driver/Src/stm32u5xx_hal_flash_ex.c ****       /* Mass erase to be done */
 209:Drivers/STM32U5xx_HAL_Driver/Src/stm32u5xx_hal_flash_ex.c ****       FLASH_MassErase(pEraseInit->Banks);
 210:Drivers/STM32U5xx_HAL_Driver/Src/stm32u5xx_hal_flash_ex.c **** 
 211:Drivers/STM32U5xx_HAL_Driver/Src/stm32u5xx_hal_flash_ex.c ****       /* Wait for last operation to be completed */
 212:Drivers/STM32U5xx_HAL_Driver/Src/stm32u5xx_hal_flash_ex.c ****       status = FLASH_WaitForLastOperation(FLASH_TIMEOUT_VALUE);
 213:Drivers/STM32U5xx_HAL_Driver/Src/stm32u5xx_hal_flash_ex.c ****     }
 214:Drivers/STM32U5xx_HAL_Driver/Src/stm32u5xx_hal_flash_ex.c ****     else
 215:Drivers/STM32U5xx_HAL_Driver/Src/stm32u5xx_hal_flash_ex.c ****     {
 216:Drivers/STM32U5xx_HAL_Driver/Src/stm32u5xx_hal_flash_ex.c ****       /*Initialization of PageError variable*/
 217:Drivers/STM32U5xx_HAL_Driver/Src/stm32u5xx_hal_flash_ex.c ****       *PageError = 0xFFFFFFFFU;
 218:Drivers/STM32U5xx_HAL_Driver/Src/stm32u5xx_hal_flash_ex.c **** 
 219:Drivers/STM32U5xx_HAL_Driver/Src/stm32u5xx_hal_flash_ex.c ****       for (page_index = pEraseInit->Page; page_index < (pEraseInit->Page + pEraseInit->NbPages); pa
 220:Drivers/STM32U5xx_HAL_Driver/Src/stm32u5xx_hal_flash_ex.c ****       {
 221:Drivers/STM32U5xx_HAL_Driver/Src/stm32u5xx_hal_flash_ex.c ****         FLASH_PageErase(page_index, pEraseInit->Banks);
 222:Drivers/STM32U5xx_HAL_Driver/Src/stm32u5xx_hal_flash_ex.c **** 
 223:Drivers/STM32U5xx_HAL_Driver/Src/stm32u5xx_hal_flash_ex.c ****         /* Wait for last operation to be completed */
 224:Drivers/STM32U5xx_HAL_Driver/Src/stm32u5xx_hal_flash_ex.c ****         status = FLASH_WaitForLastOperation(FLASH_TIMEOUT_VALUE);
 225:Drivers/STM32U5xx_HAL_Driver/Src/stm32u5xx_hal_flash_ex.c **** 
 226:Drivers/STM32U5xx_HAL_Driver/Src/stm32u5xx_hal_flash_ex.c ****         if (status != HAL_OK)
 227:Drivers/STM32U5xx_HAL_Driver/Src/stm32u5xx_hal_flash_ex.c ****         {
 228:Drivers/STM32U5xx_HAL_Driver/Src/stm32u5xx_hal_flash_ex.c ****           /* In case of error, stop erase procedure and return the faulty page */
 229:Drivers/STM32U5xx_HAL_Driver/Src/stm32u5xx_hal_flash_ex.c ****           *PageError = page_index;
 230:Drivers/STM32U5xx_HAL_Driver/Src/stm32u5xx_hal_flash_ex.c ****           break;
 231:Drivers/STM32U5xx_HAL_Driver/Src/stm32u5xx_hal_flash_ex.c ****         }
 232:Drivers/STM32U5xx_HAL_Driver/Src/stm32u5xx_hal_flash_ex.c ****       }
 233:Drivers/STM32U5xx_HAL_Driver/Src/stm32u5xx_hal_flash_ex.c ****     }
 234:Drivers/STM32U5xx_HAL_Driver/Src/stm32u5xx_hal_flash_ex.c **** 
 235:Drivers/STM32U5xx_HAL_Driver/Src/stm32u5xx_hal_flash_ex.c ****     /* If the erase operation is completed, disable the associated bits */
 236:Drivers/STM32U5xx_HAL_Driver/Src/stm32u5xx_hal_flash_ex.c ****     CLEAR_BIT((*reg_cr), (pEraseInit->TypeErase) & (~(FLASH_NON_SECURE_MASK)));
 237:Drivers/STM32U5xx_HAL_Driver/Src/stm32u5xx_hal_flash_ex.c ****   }
 238:Drivers/STM32U5xx_HAL_Driver/Src/stm32u5xx_hal_flash_ex.c **** 
 239:Drivers/STM32U5xx_HAL_Driver/Src/stm32u5xx_hal_flash_ex.c ****   /* Process Unlocked */
 240:Drivers/STM32U5xx_HAL_Driver/Src/stm32u5xx_hal_flash_ex.c ****   __HAL_UNLOCK(&pFlash);
 241:Drivers/STM32U5xx_HAL_Driver/Src/stm32u5xx_hal_flash_ex.c **** 
 242:Drivers/STM32U5xx_HAL_Driver/Src/stm32u5xx_hal_flash_ex.c ****   return status;
 243:Drivers/STM32U5xx_HAL_Driver/Src/stm32u5xx_hal_flash_ex.c **** }
 244:Drivers/STM32U5xx_HAL_Driver/Src/stm32u5xx_hal_flash_ex.c **** 
 245:Drivers/STM32U5xx_HAL_Driver/Src/stm32u5xx_hal_flash_ex.c **** /**
 246:Drivers/STM32U5xx_HAL_Driver/Src/stm32u5xx_hal_flash_ex.c ****   * @brief  Perform a mass erase or erase the specified FLASH memory pages with interrupt enabled.
 247:Drivers/STM32U5xx_HAL_Driver/Src/stm32u5xx_hal_flash_ex.c ****   * @param  pEraseInit pointer to an FLASH_EraseInitTypeDef structure that
 248:Drivers/STM32U5xx_HAL_Driver/Src/stm32u5xx_hal_flash_ex.c ****   *         contains the configuration information for the erasing.
 249:Drivers/STM32U5xx_HAL_Driver/Src/stm32u5xx_hal_flash_ex.c ****   *
 250:Drivers/STM32U5xx_HAL_Driver/Src/stm32u5xx_hal_flash_ex.c ****   * @retval HAL Status
 251:Drivers/STM32U5xx_HAL_Driver/Src/stm32u5xx_hal_flash_ex.c ****   */
 252:Drivers/STM32U5xx_HAL_Driver/Src/stm32u5xx_hal_flash_ex.c **** HAL_StatusTypeDef HAL_FLASHEx_Erase_IT(FLASH_EraseInitTypeDef *pEraseInit)
 253:Drivers/STM32U5xx_HAL_Driver/Src/stm32u5xx_hal_flash_ex.c **** {
 254:Drivers/STM32U5xx_HAL_Driver/Src/stm32u5xx_hal_flash_ex.c ****   HAL_StatusTypeDef status;
 255:Drivers/STM32U5xx_HAL_Driver/Src/stm32u5xx_hal_flash_ex.c ****   __IO uint32_t *reg_cr;
 256:Drivers/STM32U5xx_HAL_Driver/Src/stm32u5xx_hal_flash_ex.c **** 
 257:Drivers/STM32U5xx_HAL_Driver/Src/stm32u5xx_hal_flash_ex.c ****   /* Check the parameters */
ARM GAS  /tmp/ccudYRdF.s 			page 6


 258:Drivers/STM32U5xx_HAL_Driver/Src/stm32u5xx_hal_flash_ex.c ****   assert_param(IS_FLASH_TYPEERASE(pEraseInit->TypeErase));
 259:Drivers/STM32U5xx_HAL_Driver/Src/stm32u5xx_hal_flash_ex.c **** 
 260:Drivers/STM32U5xx_HAL_Driver/Src/stm32u5xx_hal_flash_ex.c ****   /* Process Locked */
 261:Drivers/STM32U5xx_HAL_Driver/Src/stm32u5xx_hal_flash_ex.c ****   __HAL_LOCK(&pFlash);
 262:Drivers/STM32U5xx_HAL_Driver/Src/stm32u5xx_hal_flash_ex.c **** 
 263:Drivers/STM32U5xx_HAL_Driver/Src/stm32u5xx_hal_flash_ex.c ****   /* Reset error code */
 264:Drivers/STM32U5xx_HAL_Driver/Src/stm32u5xx_hal_flash_ex.c ****   pFlash.ErrorCode = HAL_FLASH_ERROR_NONE;
 265:Drivers/STM32U5xx_HAL_Driver/Src/stm32u5xx_hal_flash_ex.c **** 
 266:Drivers/STM32U5xx_HAL_Driver/Src/stm32u5xx_hal_flash_ex.c ****   /* Wait for last operation to be completed */
 267:Drivers/STM32U5xx_HAL_Driver/Src/stm32u5xx_hal_flash_ex.c ****   status = FLASH_WaitForLastOperation(FLASH_TIMEOUT_VALUE);
 268:Drivers/STM32U5xx_HAL_Driver/Src/stm32u5xx_hal_flash_ex.c **** 
 269:Drivers/STM32U5xx_HAL_Driver/Src/stm32u5xx_hal_flash_ex.c ****   if (status != HAL_OK)
 270:Drivers/STM32U5xx_HAL_Driver/Src/stm32u5xx_hal_flash_ex.c ****   {
 271:Drivers/STM32U5xx_HAL_Driver/Src/stm32u5xx_hal_flash_ex.c ****     /* Process Unlocked */
 272:Drivers/STM32U5xx_HAL_Driver/Src/stm32u5xx_hal_flash_ex.c ****     __HAL_UNLOCK(&pFlash);
 273:Drivers/STM32U5xx_HAL_Driver/Src/stm32u5xx_hal_flash_ex.c ****   }
 274:Drivers/STM32U5xx_HAL_Driver/Src/stm32u5xx_hal_flash_ex.c ****   else
 275:Drivers/STM32U5xx_HAL_Driver/Src/stm32u5xx_hal_flash_ex.c ****   {
 276:Drivers/STM32U5xx_HAL_Driver/Src/stm32u5xx_hal_flash_ex.c ****     /* Set internal variables used by the IRQ handler */
 277:Drivers/STM32U5xx_HAL_Driver/Src/stm32u5xx_hal_flash_ex.c ****     pFlash.ProcedureOnGoing = pEraseInit->TypeErase;
 278:Drivers/STM32U5xx_HAL_Driver/Src/stm32u5xx_hal_flash_ex.c ****     pFlash.Bank = pEraseInit->Banks;
 279:Drivers/STM32U5xx_HAL_Driver/Src/stm32u5xx_hal_flash_ex.c **** 
 280:Drivers/STM32U5xx_HAL_Driver/Src/stm32u5xx_hal_flash_ex.c ****     /* Access to SECCR or NSCR depends on operation type */
 281:Drivers/STM32U5xx_HAL_Driver/Src/stm32u5xx_hal_flash_ex.c ****     reg_cr = IS_FLASH_SECURE_OPERATION() ? &(FLASH->SECCR) : &(FLASH->NSCR);
 282:Drivers/STM32U5xx_HAL_Driver/Src/stm32u5xx_hal_flash_ex.c **** 
 283:Drivers/STM32U5xx_HAL_Driver/Src/stm32u5xx_hal_flash_ex.c ****     /* Enable End of Operation and Error interrupts */
 284:Drivers/STM32U5xx_HAL_Driver/Src/stm32u5xx_hal_flash_ex.c ****     (*reg_cr) |= (FLASH_IT_EOP | FLASH_IT_OPERR);
 285:Drivers/STM32U5xx_HAL_Driver/Src/stm32u5xx_hal_flash_ex.c **** 
 286:Drivers/STM32U5xx_HAL_Driver/Src/stm32u5xx_hal_flash_ex.c ****     if ((pEraseInit->TypeErase & (~FLASH_NON_SECURE_MASK)) == FLASH_TYPEERASE_MASSERASE)
 287:Drivers/STM32U5xx_HAL_Driver/Src/stm32u5xx_hal_flash_ex.c ****     {
 288:Drivers/STM32U5xx_HAL_Driver/Src/stm32u5xx_hal_flash_ex.c ****       /* Mass erase to be done */
 289:Drivers/STM32U5xx_HAL_Driver/Src/stm32u5xx_hal_flash_ex.c ****       FLASH_MassErase(pEraseInit->Banks);
 290:Drivers/STM32U5xx_HAL_Driver/Src/stm32u5xx_hal_flash_ex.c ****     }
 291:Drivers/STM32U5xx_HAL_Driver/Src/stm32u5xx_hal_flash_ex.c ****     else
 292:Drivers/STM32U5xx_HAL_Driver/Src/stm32u5xx_hal_flash_ex.c ****     {
 293:Drivers/STM32U5xx_HAL_Driver/Src/stm32u5xx_hal_flash_ex.c ****       /* Erase by page to be done */
 294:Drivers/STM32U5xx_HAL_Driver/Src/stm32u5xx_hal_flash_ex.c ****       pFlash.NbPagesToErase = pEraseInit->NbPages;
 295:Drivers/STM32U5xx_HAL_Driver/Src/stm32u5xx_hal_flash_ex.c ****       pFlash.Page = pEraseInit->Page;
 296:Drivers/STM32U5xx_HAL_Driver/Src/stm32u5xx_hal_flash_ex.c **** 
 297:Drivers/STM32U5xx_HAL_Driver/Src/stm32u5xx_hal_flash_ex.c ****       /* Erase first page and wait for IT */
 298:Drivers/STM32U5xx_HAL_Driver/Src/stm32u5xx_hal_flash_ex.c ****       FLASH_PageErase(pEraseInit->Page, pEraseInit->Banks);
 299:Drivers/STM32U5xx_HAL_Driver/Src/stm32u5xx_hal_flash_ex.c ****     }
 300:Drivers/STM32U5xx_HAL_Driver/Src/stm32u5xx_hal_flash_ex.c ****   }
 301:Drivers/STM32U5xx_HAL_Driver/Src/stm32u5xx_hal_flash_ex.c **** 
 302:Drivers/STM32U5xx_HAL_Driver/Src/stm32u5xx_hal_flash_ex.c ****   return status;
 303:Drivers/STM32U5xx_HAL_Driver/Src/stm32u5xx_hal_flash_ex.c **** }
 304:Drivers/STM32U5xx_HAL_Driver/Src/stm32u5xx_hal_flash_ex.c **** 
 305:Drivers/STM32U5xx_HAL_Driver/Src/stm32u5xx_hal_flash_ex.c **** /**
 306:Drivers/STM32U5xx_HAL_Driver/Src/stm32u5xx_hal_flash_ex.c ****   * @brief  Program Option bytes.
 307:Drivers/STM32U5xx_HAL_Driver/Src/stm32u5xx_hal_flash_ex.c ****   * @param  pOBInit pointer to an FLASH_OBInitStruct structure that
 308:Drivers/STM32U5xx_HAL_Driver/Src/stm32u5xx_hal_flash_ex.c ****   *         contains the configuration information for the programming.
 309:Drivers/STM32U5xx_HAL_Driver/Src/stm32u5xx_hal_flash_ex.c ****   *
 310:Drivers/STM32U5xx_HAL_Driver/Src/stm32u5xx_hal_flash_ex.c ****   * @note   To configure any option bytes, the option lock bit OPTLOCK must be
 311:Drivers/STM32U5xx_HAL_Driver/Src/stm32u5xx_hal_flash_ex.c ****   *         cleared with the call of HAL_FLASH_OB_Unlock() function.
 312:Drivers/STM32U5xx_HAL_Driver/Src/stm32u5xx_hal_flash_ex.c ****   * @note   New option bytes configuration will be taken into account in two cases:
 313:Drivers/STM32U5xx_HAL_Driver/Src/stm32u5xx_hal_flash_ex.c ****   *         - after an option bytes launch through the call of HAL_FLASH_OB_Launch()
 314:Drivers/STM32U5xx_HAL_Driver/Src/stm32u5xx_hal_flash_ex.c ****   *         - after a power reset (BOR reset or exit from Standby/Shutdown modes)
ARM GAS  /tmp/ccudYRdF.s 			page 7


 315:Drivers/STM32U5xx_HAL_Driver/Src/stm32u5xx_hal_flash_ex.c ****   *
 316:Drivers/STM32U5xx_HAL_Driver/Src/stm32u5xx_hal_flash_ex.c ****   * @retval HAL Status
 317:Drivers/STM32U5xx_HAL_Driver/Src/stm32u5xx_hal_flash_ex.c ****   */
 318:Drivers/STM32U5xx_HAL_Driver/Src/stm32u5xx_hal_flash_ex.c **** HAL_StatusTypeDef HAL_FLASHEx_OBProgram(FLASH_OBProgramInitTypeDef *pOBInit)
 319:Drivers/STM32U5xx_HAL_Driver/Src/stm32u5xx_hal_flash_ex.c **** {
 320:Drivers/STM32U5xx_HAL_Driver/Src/stm32u5xx_hal_flash_ex.c ****   HAL_StatusTypeDef status;
 321:Drivers/STM32U5xx_HAL_Driver/Src/stm32u5xx_hal_flash_ex.c **** 
 322:Drivers/STM32U5xx_HAL_Driver/Src/stm32u5xx_hal_flash_ex.c ****   /* Check the parameters */
 323:Drivers/STM32U5xx_HAL_Driver/Src/stm32u5xx_hal_flash_ex.c ****   assert_param(IS_OPTIONBYTE(pOBInit->OptionType));
 324:Drivers/STM32U5xx_HAL_Driver/Src/stm32u5xx_hal_flash_ex.c **** 
 325:Drivers/STM32U5xx_HAL_Driver/Src/stm32u5xx_hal_flash_ex.c ****   /* Process Locked */
 326:Drivers/STM32U5xx_HAL_Driver/Src/stm32u5xx_hal_flash_ex.c ****   __HAL_LOCK(&pFlash);
 327:Drivers/STM32U5xx_HAL_Driver/Src/stm32u5xx_hal_flash_ex.c **** 
 328:Drivers/STM32U5xx_HAL_Driver/Src/stm32u5xx_hal_flash_ex.c ****   /* Reset error code */
 329:Drivers/STM32U5xx_HAL_Driver/Src/stm32u5xx_hal_flash_ex.c ****   pFlash.ErrorCode = HAL_FLASH_ERROR_NONE;
 330:Drivers/STM32U5xx_HAL_Driver/Src/stm32u5xx_hal_flash_ex.c **** 
 331:Drivers/STM32U5xx_HAL_Driver/Src/stm32u5xx_hal_flash_ex.c ****   /* Wait for last operation to be completed */
 332:Drivers/STM32U5xx_HAL_Driver/Src/stm32u5xx_hal_flash_ex.c ****   status = FLASH_WaitForLastOperation(FLASH_TIMEOUT_VALUE);
 333:Drivers/STM32U5xx_HAL_Driver/Src/stm32u5xx_hal_flash_ex.c **** 
 334:Drivers/STM32U5xx_HAL_Driver/Src/stm32u5xx_hal_flash_ex.c ****   if (status == HAL_OK)
 335:Drivers/STM32U5xx_HAL_Driver/Src/stm32u5xx_hal_flash_ex.c ****   {
 336:Drivers/STM32U5xx_HAL_Driver/Src/stm32u5xx_hal_flash_ex.c ****     /* Write protection configuration */
 337:Drivers/STM32U5xx_HAL_Driver/Src/stm32u5xx_hal_flash_ex.c ****     if ((pOBInit->OptionType & OPTIONBYTE_WRP) != 0U)
 338:Drivers/STM32U5xx_HAL_Driver/Src/stm32u5xx_hal_flash_ex.c ****     {
 339:Drivers/STM32U5xx_HAL_Driver/Src/stm32u5xx_hal_flash_ex.c ****       /* Configure of Write protection on the selected area */
 340:Drivers/STM32U5xx_HAL_Driver/Src/stm32u5xx_hal_flash_ex.c ****       FLASH_OB_WRPConfig(pOBInit->WRPArea, pOBInit->WRPStartOffset, pOBInit->WRPEndOffset, pOBInit-
 341:Drivers/STM32U5xx_HAL_Driver/Src/stm32u5xx_hal_flash_ex.c ****     }
 342:Drivers/STM32U5xx_HAL_Driver/Src/stm32u5xx_hal_flash_ex.c **** 
 343:Drivers/STM32U5xx_HAL_Driver/Src/stm32u5xx_hal_flash_ex.c ****     /* Read protection configuration */
 344:Drivers/STM32U5xx_HAL_Driver/Src/stm32u5xx_hal_flash_ex.c ****     if ((pOBInit->OptionType & OPTIONBYTE_RDP) != 0U)
 345:Drivers/STM32U5xx_HAL_Driver/Src/stm32u5xx_hal_flash_ex.c ****     {
 346:Drivers/STM32U5xx_HAL_Driver/Src/stm32u5xx_hal_flash_ex.c ****       /* Configure the Read protection level */
 347:Drivers/STM32U5xx_HAL_Driver/Src/stm32u5xx_hal_flash_ex.c ****       FLASH_OB_RDPConfig(pOBInit->RDPLevel);
 348:Drivers/STM32U5xx_HAL_Driver/Src/stm32u5xx_hal_flash_ex.c ****     }
 349:Drivers/STM32U5xx_HAL_Driver/Src/stm32u5xx_hal_flash_ex.c **** 
 350:Drivers/STM32U5xx_HAL_Driver/Src/stm32u5xx_hal_flash_ex.c ****     /* Read protection key configuration */
 351:Drivers/STM32U5xx_HAL_Driver/Src/stm32u5xx_hal_flash_ex.c ****     if ((pOBInit->OptionType & OPTIONBYTE_RDPKEY) != 0U)
 352:Drivers/STM32U5xx_HAL_Driver/Src/stm32u5xx_hal_flash_ex.c ****     {
 353:Drivers/STM32U5xx_HAL_Driver/Src/stm32u5xx_hal_flash_ex.c ****       /* Configure the Read protection key */
 354:Drivers/STM32U5xx_HAL_Driver/Src/stm32u5xx_hal_flash_ex.c ****       FLASH_OB_RDPKeyConfig(pOBInit->RDPKeyType, pOBInit->RDPKey1, pOBInit->RDPKey2);
 355:Drivers/STM32U5xx_HAL_Driver/Src/stm32u5xx_hal_flash_ex.c ****     }
 356:Drivers/STM32U5xx_HAL_Driver/Src/stm32u5xx_hal_flash_ex.c **** 
 357:Drivers/STM32U5xx_HAL_Driver/Src/stm32u5xx_hal_flash_ex.c ****     /* User Configuration */
 358:Drivers/STM32U5xx_HAL_Driver/Src/stm32u5xx_hal_flash_ex.c ****     if ((pOBInit->OptionType & OPTIONBYTE_USER) != 0U)
 359:Drivers/STM32U5xx_HAL_Driver/Src/stm32u5xx_hal_flash_ex.c ****     {
 360:Drivers/STM32U5xx_HAL_Driver/Src/stm32u5xx_hal_flash_ex.c ****       /* Configure the user option bytes */
 361:Drivers/STM32U5xx_HAL_Driver/Src/stm32u5xx_hal_flash_ex.c ****       FLASH_OB_UserConfig(pOBInit->USERType, pOBInit->USERConfig);
 362:Drivers/STM32U5xx_HAL_Driver/Src/stm32u5xx_hal_flash_ex.c ****     }
 363:Drivers/STM32U5xx_HAL_Driver/Src/stm32u5xx_hal_flash_ex.c **** 
 364:Drivers/STM32U5xx_HAL_Driver/Src/stm32u5xx_hal_flash_ex.c **** #if defined (__ARM_FEATURE_CMSE) && (__ARM_FEATURE_CMSE == 3U)
 365:Drivers/STM32U5xx_HAL_Driver/Src/stm32u5xx_hal_flash_ex.c ****     /* Watermark secure configuration */
 366:Drivers/STM32U5xx_HAL_Driver/Src/stm32u5xx_hal_flash_ex.c ****     if ((pOBInit->OptionType & OPTIONBYTE_WMSEC) != 0U)
 367:Drivers/STM32U5xx_HAL_Driver/Src/stm32u5xx_hal_flash_ex.c ****     {
 368:Drivers/STM32U5xx_HAL_Driver/Src/stm32u5xx_hal_flash_ex.c ****       /* Configure the watermark-based secure area */
 369:Drivers/STM32U5xx_HAL_Driver/Src/stm32u5xx_hal_flash_ex.c ****       FLASH_OB_WMSECConfig(pOBInit->WMSecConfig, pOBInit->WMSecStartPage, pOBInit->WMSecEndPage,
 370:Drivers/STM32U5xx_HAL_Driver/Src/stm32u5xx_hal_flash_ex.c ****                            pOBInit->WMHDPEndPage);
 371:Drivers/STM32U5xx_HAL_Driver/Src/stm32u5xx_hal_flash_ex.c ****     }
ARM GAS  /tmp/ccudYRdF.s 			page 8


 372:Drivers/STM32U5xx_HAL_Driver/Src/stm32u5xx_hal_flash_ex.c **** 
 373:Drivers/STM32U5xx_HAL_Driver/Src/stm32u5xx_hal_flash_ex.c ****     /* Unique boot entry point configuration */
 374:Drivers/STM32U5xx_HAL_Driver/Src/stm32u5xx_hal_flash_ex.c ****     if ((pOBInit->OptionType & OPTIONBYTE_BOOT_LOCK) != 0U)
 375:Drivers/STM32U5xx_HAL_Driver/Src/stm32u5xx_hal_flash_ex.c ****     {
 376:Drivers/STM32U5xx_HAL_Driver/Src/stm32u5xx_hal_flash_ex.c ****       /* Configure the unique boot entry point */
 377:Drivers/STM32U5xx_HAL_Driver/Src/stm32u5xx_hal_flash_ex.c ****       FLASH_OB_BootLockConfig(pOBInit->BootLock);
 378:Drivers/STM32U5xx_HAL_Driver/Src/stm32u5xx_hal_flash_ex.c ****     }
 379:Drivers/STM32U5xx_HAL_Driver/Src/stm32u5xx_hal_flash_ex.c **** #endif /* __ARM_FEATURE_CMSE */
 380:Drivers/STM32U5xx_HAL_Driver/Src/stm32u5xx_hal_flash_ex.c **** 
 381:Drivers/STM32U5xx_HAL_Driver/Src/stm32u5xx_hal_flash_ex.c ****     /* Boot address configuration */
 382:Drivers/STM32U5xx_HAL_Driver/Src/stm32u5xx_hal_flash_ex.c ****     if ((pOBInit->OptionType & OPTIONBYTE_BOOTADDR) != 0U)
 383:Drivers/STM32U5xx_HAL_Driver/Src/stm32u5xx_hal_flash_ex.c ****     {
 384:Drivers/STM32U5xx_HAL_Driver/Src/stm32u5xx_hal_flash_ex.c ****       /* Configure the boot address */
 385:Drivers/STM32U5xx_HAL_Driver/Src/stm32u5xx_hal_flash_ex.c ****       FLASH_OB_BootAddrConfig(pOBInit->BootAddrConfig, pOBInit->BootAddr);
 386:Drivers/STM32U5xx_HAL_Driver/Src/stm32u5xx_hal_flash_ex.c ****     }
 387:Drivers/STM32U5xx_HAL_Driver/Src/stm32u5xx_hal_flash_ex.c **** 
 388:Drivers/STM32U5xx_HAL_Driver/Src/stm32u5xx_hal_flash_ex.c ****     /* Set OPTSTRT Bit */
 389:Drivers/STM32U5xx_HAL_Driver/Src/stm32u5xx_hal_flash_ex.c ****     SET_BIT(FLASH->NSCR, FLASH_NSCR_OPTSTRT);
 390:Drivers/STM32U5xx_HAL_Driver/Src/stm32u5xx_hal_flash_ex.c **** 
 391:Drivers/STM32U5xx_HAL_Driver/Src/stm32u5xx_hal_flash_ex.c ****     /* Wait for last operation to be completed */
 392:Drivers/STM32U5xx_HAL_Driver/Src/stm32u5xx_hal_flash_ex.c ****     status = FLASH_WaitForLastOperation(FLASH_TIMEOUT_VALUE);
 393:Drivers/STM32U5xx_HAL_Driver/Src/stm32u5xx_hal_flash_ex.c ****   }
 394:Drivers/STM32U5xx_HAL_Driver/Src/stm32u5xx_hal_flash_ex.c **** 
 395:Drivers/STM32U5xx_HAL_Driver/Src/stm32u5xx_hal_flash_ex.c ****   /* Process Unlocked */
 396:Drivers/STM32U5xx_HAL_Driver/Src/stm32u5xx_hal_flash_ex.c ****   __HAL_UNLOCK(&pFlash);
 397:Drivers/STM32U5xx_HAL_Driver/Src/stm32u5xx_hal_flash_ex.c **** 
 398:Drivers/STM32U5xx_HAL_Driver/Src/stm32u5xx_hal_flash_ex.c ****   return status;
 399:Drivers/STM32U5xx_HAL_Driver/Src/stm32u5xx_hal_flash_ex.c **** }
 400:Drivers/STM32U5xx_HAL_Driver/Src/stm32u5xx_hal_flash_ex.c **** 
 401:Drivers/STM32U5xx_HAL_Driver/Src/stm32u5xx_hal_flash_ex.c **** /**
 402:Drivers/STM32U5xx_HAL_Driver/Src/stm32u5xx_hal_flash_ex.c ****   * @brief  Get the Option bytes configuration.
 403:Drivers/STM32U5xx_HAL_Driver/Src/stm32u5xx_hal_flash_ex.c ****   * @param  pOBInit pointer to an FLASH_OBInitStruct structure that contains the
 404:Drivers/STM32U5xx_HAL_Driver/Src/stm32u5xx_hal_flash_ex.c ****   *                  configuration information.
 405:Drivers/STM32U5xx_HAL_Driver/Src/stm32u5xx_hal_flash_ex.c ****   * @note   The fields pOBInit->WRPArea, pOBInit->WMSecConfig and pOBInit->BootAddrConfig
 406:Drivers/STM32U5xx_HAL_Driver/Src/stm32u5xx_hal_flash_ex.c ****   *         should indicate which area/address is requested for the WRP, WM Security or
 407:Drivers/STM32U5xx_HAL_Driver/Src/stm32u5xx_hal_flash_ex.c ****   *         Boot Address, else no information will be returned
 408:Drivers/STM32U5xx_HAL_Driver/Src/stm32u5xx_hal_flash_ex.c ****   *
 409:Drivers/STM32U5xx_HAL_Driver/Src/stm32u5xx_hal_flash_ex.c ****   * @retval None
 410:Drivers/STM32U5xx_HAL_Driver/Src/stm32u5xx_hal_flash_ex.c ****   */
 411:Drivers/STM32U5xx_HAL_Driver/Src/stm32u5xx_hal_flash_ex.c **** void HAL_FLASHEx_OBGetConfig(FLASH_OBProgramInitTypeDef *pOBInit)
 412:Drivers/STM32U5xx_HAL_Driver/Src/stm32u5xx_hal_flash_ex.c **** {
 413:Drivers/STM32U5xx_HAL_Driver/Src/stm32u5xx_hal_flash_ex.c ****   pOBInit->OptionType = (OPTIONBYTE_RDP | OPTIONBYTE_USER);
 414:Drivers/STM32U5xx_HAL_Driver/Src/stm32u5xx_hal_flash_ex.c **** 
 415:Drivers/STM32U5xx_HAL_Driver/Src/stm32u5xx_hal_flash_ex.c ****   if ((pOBInit->WRPArea == OB_WRPAREA_BANK1_AREAA) || (pOBInit->WRPArea == OB_WRPAREA_BANK1_AREAB) 
 416:Drivers/STM32U5xx_HAL_Driver/Src/stm32u5xx_hal_flash_ex.c ****       (pOBInit->WRPArea == OB_WRPAREA_BANK2_AREAA) || (pOBInit->WRPArea == OB_WRPAREA_BANK2_AREAB))
 417:Drivers/STM32U5xx_HAL_Driver/Src/stm32u5xx_hal_flash_ex.c ****   {
 418:Drivers/STM32U5xx_HAL_Driver/Src/stm32u5xx_hal_flash_ex.c ****     pOBInit->OptionType |= OPTIONBYTE_WRP;
 419:Drivers/STM32U5xx_HAL_Driver/Src/stm32u5xx_hal_flash_ex.c ****     /* Get write protection on the selected area */
 420:Drivers/STM32U5xx_HAL_Driver/Src/stm32u5xx_hal_flash_ex.c ****     FLASH_OB_GetWRP(pOBInit->WRPArea, &(pOBInit->WRPStartOffset), &(pOBInit->WRPEndOffset), &(pOBIn
 421:Drivers/STM32U5xx_HAL_Driver/Src/stm32u5xx_hal_flash_ex.c ****   }
 422:Drivers/STM32U5xx_HAL_Driver/Src/stm32u5xx_hal_flash_ex.c **** 
 423:Drivers/STM32U5xx_HAL_Driver/Src/stm32u5xx_hal_flash_ex.c ****   /* Get Read protection level */
 424:Drivers/STM32U5xx_HAL_Driver/Src/stm32u5xx_hal_flash_ex.c ****   pOBInit->RDPLevel = FLASH_OB_GetRDP();
 425:Drivers/STM32U5xx_HAL_Driver/Src/stm32u5xx_hal_flash_ex.c **** 
 426:Drivers/STM32U5xx_HAL_Driver/Src/stm32u5xx_hal_flash_ex.c ****   /* Get the user option bytes */
 427:Drivers/STM32U5xx_HAL_Driver/Src/stm32u5xx_hal_flash_ex.c ****   pOBInit->USERConfig = FLASH_OB_GetUser();
 428:Drivers/STM32U5xx_HAL_Driver/Src/stm32u5xx_hal_flash_ex.c **** 
ARM GAS  /tmp/ccudYRdF.s 			page 9


 429:Drivers/STM32U5xx_HAL_Driver/Src/stm32u5xx_hal_flash_ex.c **** #if defined (__ARM_FEATURE_CMSE) && (__ARM_FEATURE_CMSE == 3U)
 430:Drivers/STM32U5xx_HAL_Driver/Src/stm32u5xx_hal_flash_ex.c ****   /* Get the configuration of the watermark secure area for the selected area */
 431:Drivers/STM32U5xx_HAL_Driver/Src/stm32u5xx_hal_flash_ex.c ****   if ((pOBInit->WMSecConfig == OB_WMSEC_AREA1) || (pOBInit->WMSecConfig == OB_WMSEC_AREA2))
 432:Drivers/STM32U5xx_HAL_Driver/Src/stm32u5xx_hal_flash_ex.c ****   {
 433:Drivers/STM32U5xx_HAL_Driver/Src/stm32u5xx_hal_flash_ex.c ****     pOBInit->OptionType |= OPTIONBYTE_WMSEC;
 434:Drivers/STM32U5xx_HAL_Driver/Src/stm32u5xx_hal_flash_ex.c ****     FLASH_OB_GetWMSEC(&(pOBInit->WMSecConfig), &(pOBInit->WMSecStartPage), &(pOBInit->WMSecEndPage)
 435:Drivers/STM32U5xx_HAL_Driver/Src/stm32u5xx_hal_flash_ex.c ****                       &(pOBInit->WMHDPEndPage));
 436:Drivers/STM32U5xx_HAL_Driver/Src/stm32u5xx_hal_flash_ex.c ****   }
 437:Drivers/STM32U5xx_HAL_Driver/Src/stm32u5xx_hal_flash_ex.c **** 
 438:Drivers/STM32U5xx_HAL_Driver/Src/stm32u5xx_hal_flash_ex.c ****   pOBInit->OptionType |= OPTIONBYTE_BOOT_LOCK;
 439:Drivers/STM32U5xx_HAL_Driver/Src/stm32u5xx_hal_flash_ex.c **** 
 440:Drivers/STM32U5xx_HAL_Driver/Src/stm32u5xx_hal_flash_ex.c ****   /* Get the configuration of the unique boot entry point */
 441:Drivers/STM32U5xx_HAL_Driver/Src/stm32u5xx_hal_flash_ex.c ****   pOBInit->BootLock = FLASH_OB_GetBootLock();
 442:Drivers/STM32U5xx_HAL_Driver/Src/stm32u5xx_hal_flash_ex.c **** #endif /* __ARM_FEATURE_CMSE */
 443:Drivers/STM32U5xx_HAL_Driver/Src/stm32u5xx_hal_flash_ex.c **** 
 444:Drivers/STM32U5xx_HAL_Driver/Src/stm32u5xx_hal_flash_ex.c ****   /* Get the value of the selected boot address */
 445:Drivers/STM32U5xx_HAL_Driver/Src/stm32u5xx_hal_flash_ex.c **** #if defined (__ARM_FEATURE_CMSE) && (__ARM_FEATURE_CMSE == 3U)
 446:Drivers/STM32U5xx_HAL_Driver/Src/stm32u5xx_hal_flash_ex.c ****   if ((pOBInit->BootAddrConfig == OB_BOOTADDR_NS0) || (pOBInit->BootAddrConfig == OB_BOOTADDR_NS1) 
 447:Drivers/STM32U5xx_HAL_Driver/Src/stm32u5xx_hal_flash_ex.c ****       (pOBInit->BootAddrConfig == OB_BOOTADDR_SEC0))
 448:Drivers/STM32U5xx_HAL_Driver/Src/stm32u5xx_hal_flash_ex.c **** #else
 449:Drivers/STM32U5xx_HAL_Driver/Src/stm32u5xx_hal_flash_ex.c ****   if ((pOBInit->BootAddrConfig == OB_BOOTADDR_NS0) || (pOBInit->BootAddrConfig == OB_BOOTADDR_NS1))
 450:Drivers/STM32U5xx_HAL_Driver/Src/stm32u5xx_hal_flash_ex.c **** #endif /* __ARM_FEATURE_CMSE */
 451:Drivers/STM32U5xx_HAL_Driver/Src/stm32u5xx_hal_flash_ex.c ****   {
 452:Drivers/STM32U5xx_HAL_Driver/Src/stm32u5xx_hal_flash_ex.c ****     pOBInit->OptionType |= OPTIONBYTE_BOOTADDR;
 453:Drivers/STM32U5xx_HAL_Driver/Src/stm32u5xx_hal_flash_ex.c ****     FLASH_OB_GetBootAddr(pOBInit->BootAddrConfig, &(pOBInit->BootAddr));
 454:Drivers/STM32U5xx_HAL_Driver/Src/stm32u5xx_hal_flash_ex.c ****   }
 455:Drivers/STM32U5xx_HAL_Driver/Src/stm32u5xx_hal_flash_ex.c **** }
 456:Drivers/STM32U5xx_HAL_Driver/Src/stm32u5xx_hal_flash_ex.c **** 
 457:Drivers/STM32U5xx_HAL_Driver/Src/stm32u5xx_hal_flash_ex.c **** /**
 458:Drivers/STM32U5xx_HAL_Driver/Src/stm32u5xx_hal_flash_ex.c ****   * @brief  Configure the block-based secure area.
 459:Drivers/STM32U5xx_HAL_Driver/Src/stm32u5xx_hal_flash_ex.c ****   *
 460:Drivers/STM32U5xx_HAL_Driver/Src/stm32u5xx_hal_flash_ex.c ****   * @param  pBBAttributes pointer to an FLASH_BBAttributesTypeDef structure that
 461:Drivers/STM32U5xx_HAL_Driver/Src/stm32u5xx_hal_flash_ex.c ****   *         contains the configuration information for the programming.
 462:Drivers/STM32U5xx_HAL_Driver/Src/stm32u5xx_hal_flash_ex.c ****   *
 463:Drivers/STM32U5xx_HAL_Driver/Src/stm32u5xx_hal_flash_ex.c ****   * @note   The field pBBAttributes->Bank should indicate which area is requested
 464:Drivers/STM32U5xx_HAL_Driver/Src/stm32u5xx_hal_flash_ex.c ****   *         for the block-based attributes.
 465:Drivers/STM32U5xx_HAL_Driver/Src/stm32u5xx_hal_flash_ex.c ****   * @note   The field pBBAttributes->BBAttributesType should indicate which
 466:Drivers/STM32U5xx_HAL_Driver/Src/stm32u5xx_hal_flash_ex.c ****   *         block-base attribute type is requested: Secure or Privilege.
 467:Drivers/STM32U5xx_HAL_Driver/Src/stm32u5xx_hal_flash_ex.c ****   *
 468:Drivers/STM32U5xx_HAL_Driver/Src/stm32u5xx_hal_flash_ex.c ****   * @retval HAL Status
 469:Drivers/STM32U5xx_HAL_Driver/Src/stm32u5xx_hal_flash_ex.c ****   */
 470:Drivers/STM32U5xx_HAL_Driver/Src/stm32u5xx_hal_flash_ex.c **** HAL_StatusTypeDef HAL_FLASHEx_ConfigBBAttributes(FLASH_BBAttributesTypeDef *pBBAttributes)
 471:Drivers/STM32U5xx_HAL_Driver/Src/stm32u5xx_hal_flash_ex.c **** {
 472:Drivers/STM32U5xx_HAL_Driver/Src/stm32u5xx_hal_flash_ex.c ****   HAL_StatusTypeDef status;
 473:Drivers/STM32U5xx_HAL_Driver/Src/stm32u5xx_hal_flash_ex.c ****   uint8_t index;
 474:Drivers/STM32U5xx_HAL_Driver/Src/stm32u5xx_hal_flash_ex.c ****   __IO uint32_t *reg;
 475:Drivers/STM32U5xx_HAL_Driver/Src/stm32u5xx_hal_flash_ex.c **** 
 476:Drivers/STM32U5xx_HAL_Driver/Src/stm32u5xx_hal_flash_ex.c ****   /* Check the parameters */
 477:Drivers/STM32U5xx_HAL_Driver/Src/stm32u5xx_hal_flash_ex.c ****   assert_param(IS_FLASH_BANK_EXCLUSIVE(pBBAttributes->Bank));
 478:Drivers/STM32U5xx_HAL_Driver/Src/stm32u5xx_hal_flash_ex.c ****   assert_param(IS_FLASH_BB_EXCLUSIVE(pBBAttributes->BBAttributesType));
 479:Drivers/STM32U5xx_HAL_Driver/Src/stm32u5xx_hal_flash_ex.c **** 
 480:Drivers/STM32U5xx_HAL_Driver/Src/stm32u5xx_hal_flash_ex.c ****   /* Wait for last operation to be completed */
 481:Drivers/STM32U5xx_HAL_Driver/Src/stm32u5xx_hal_flash_ex.c ****   status = FLASH_WaitForLastOperation(FLASH_TIMEOUT_VALUE);
 482:Drivers/STM32U5xx_HAL_Driver/Src/stm32u5xx_hal_flash_ex.c **** 
 483:Drivers/STM32U5xx_HAL_Driver/Src/stm32u5xx_hal_flash_ex.c ****   if (status == HAL_OK)
 484:Drivers/STM32U5xx_HAL_Driver/Src/stm32u5xx_hal_flash_ex.c ****   {
 485:Drivers/STM32U5xx_HAL_Driver/Src/stm32u5xx_hal_flash_ex.c ****     /* Set the first Block-Based register to write */
ARM GAS  /tmp/ccudYRdF.s 			page 10


 486:Drivers/STM32U5xx_HAL_Driver/Src/stm32u5xx_hal_flash_ex.c **** #if defined (__ARM_FEATURE_CMSE) && (__ARM_FEATURE_CMSE == 3U)
 487:Drivers/STM32U5xx_HAL_Driver/Src/stm32u5xx_hal_flash_ex.c ****     if (pBBAttributes->BBAttributesType == FLASH_BB_SEC)
 488:Drivers/STM32U5xx_HAL_Driver/Src/stm32u5xx_hal_flash_ex.c ****     {
 489:Drivers/STM32U5xx_HAL_Driver/Src/stm32u5xx_hal_flash_ex.c ****       if (pBBAttributes->Bank == FLASH_BANK_1)
 490:Drivers/STM32U5xx_HAL_Driver/Src/stm32u5xx_hal_flash_ex.c ****       {
 491:Drivers/STM32U5xx_HAL_Driver/Src/stm32u5xx_hal_flash_ex.c ****         reg = &(FLASH->SECBB1R1);
 492:Drivers/STM32U5xx_HAL_Driver/Src/stm32u5xx_hal_flash_ex.c ****       }
 493:Drivers/STM32U5xx_HAL_Driver/Src/stm32u5xx_hal_flash_ex.c ****       else
 494:Drivers/STM32U5xx_HAL_Driver/Src/stm32u5xx_hal_flash_ex.c ****       {
 495:Drivers/STM32U5xx_HAL_Driver/Src/stm32u5xx_hal_flash_ex.c ****         reg = &(FLASH->SECBB2R1);
 496:Drivers/STM32U5xx_HAL_Driver/Src/stm32u5xx_hal_flash_ex.c ****       }
 497:Drivers/STM32U5xx_HAL_Driver/Src/stm32u5xx_hal_flash_ex.c ****     }
 498:Drivers/STM32U5xx_HAL_Driver/Src/stm32u5xx_hal_flash_ex.c ****     else
 499:Drivers/STM32U5xx_HAL_Driver/Src/stm32u5xx_hal_flash_ex.c **** #endif /* __ARM_FEATURE_CMSE */
 500:Drivers/STM32U5xx_HAL_Driver/Src/stm32u5xx_hal_flash_ex.c ****     {
 501:Drivers/STM32U5xx_HAL_Driver/Src/stm32u5xx_hal_flash_ex.c ****       if (pBBAttributes->Bank == FLASH_BANK_1)
 502:Drivers/STM32U5xx_HAL_Driver/Src/stm32u5xx_hal_flash_ex.c ****       {
 503:Drivers/STM32U5xx_HAL_Driver/Src/stm32u5xx_hal_flash_ex.c ****         reg = &(FLASH->PRIVBB1R1);
 504:Drivers/STM32U5xx_HAL_Driver/Src/stm32u5xx_hal_flash_ex.c ****       }
 505:Drivers/STM32U5xx_HAL_Driver/Src/stm32u5xx_hal_flash_ex.c ****       else
 506:Drivers/STM32U5xx_HAL_Driver/Src/stm32u5xx_hal_flash_ex.c ****       {
 507:Drivers/STM32U5xx_HAL_Driver/Src/stm32u5xx_hal_flash_ex.c ****         reg = &(FLASH->PRIVBB2R1);
 508:Drivers/STM32U5xx_HAL_Driver/Src/stm32u5xx_hal_flash_ex.c ****       }
 509:Drivers/STM32U5xx_HAL_Driver/Src/stm32u5xx_hal_flash_ex.c ****     }
 510:Drivers/STM32U5xx_HAL_Driver/Src/stm32u5xx_hal_flash_ex.c **** 
 511:Drivers/STM32U5xx_HAL_Driver/Src/stm32u5xx_hal_flash_ex.c ****     /* Modify the register values and check that new attributes are taken in account */
 512:Drivers/STM32U5xx_HAL_Driver/Src/stm32u5xx_hal_flash_ex.c ****     for (index = 0; index < FLASH_BLOCKBASED_NB_REG; index++)
 513:Drivers/STM32U5xx_HAL_Driver/Src/stm32u5xx_hal_flash_ex.c ****     {
 514:Drivers/STM32U5xx_HAL_Driver/Src/stm32u5xx_hal_flash_ex.c ****       *reg = pBBAttributes->BBAttributes_array[index];
 515:Drivers/STM32U5xx_HAL_Driver/Src/stm32u5xx_hal_flash_ex.c ****       if ((*reg) != pBBAttributes->BBAttributes_array[index])
 516:Drivers/STM32U5xx_HAL_Driver/Src/stm32u5xx_hal_flash_ex.c ****       {
 517:Drivers/STM32U5xx_HAL_Driver/Src/stm32u5xx_hal_flash_ex.c ****         status = HAL_ERROR;
 518:Drivers/STM32U5xx_HAL_Driver/Src/stm32u5xx_hal_flash_ex.c ****       }
 519:Drivers/STM32U5xx_HAL_Driver/Src/stm32u5xx_hal_flash_ex.c ****       reg++;
 520:Drivers/STM32U5xx_HAL_Driver/Src/stm32u5xx_hal_flash_ex.c ****     }
 521:Drivers/STM32U5xx_HAL_Driver/Src/stm32u5xx_hal_flash_ex.c **** 
 522:Drivers/STM32U5xx_HAL_Driver/Src/stm32u5xx_hal_flash_ex.c ****     /* ISB instruction is called to be sure next instructions are performed with correct attributes
 523:Drivers/STM32U5xx_HAL_Driver/Src/stm32u5xx_hal_flash_ex.c ****     __ISB();
 524:Drivers/STM32U5xx_HAL_Driver/Src/stm32u5xx_hal_flash_ex.c ****   }
 525:Drivers/STM32U5xx_HAL_Driver/Src/stm32u5xx_hal_flash_ex.c **** 
 526:Drivers/STM32U5xx_HAL_Driver/Src/stm32u5xx_hal_flash_ex.c ****   /* Process Unlocked */
 527:Drivers/STM32U5xx_HAL_Driver/Src/stm32u5xx_hal_flash_ex.c ****   __HAL_UNLOCK(&pFlash);
 528:Drivers/STM32U5xx_HAL_Driver/Src/stm32u5xx_hal_flash_ex.c **** 
 529:Drivers/STM32U5xx_HAL_Driver/Src/stm32u5xx_hal_flash_ex.c ****   return status;
 530:Drivers/STM32U5xx_HAL_Driver/Src/stm32u5xx_hal_flash_ex.c **** }
 531:Drivers/STM32U5xx_HAL_Driver/Src/stm32u5xx_hal_flash_ex.c **** 
 532:Drivers/STM32U5xx_HAL_Driver/Src/stm32u5xx_hal_flash_ex.c **** /**
 533:Drivers/STM32U5xx_HAL_Driver/Src/stm32u5xx_hal_flash_ex.c ****   * @brief  Return the block-based attributes.
 534:Drivers/STM32U5xx_HAL_Driver/Src/stm32u5xx_hal_flash_ex.c ****   *
 535:Drivers/STM32U5xx_HAL_Driver/Src/stm32u5xx_hal_flash_ex.c ****   * @param  pBBAttributes [in/out] pointer to an FLASH_BBAttributesTypeDef structure
 536:Drivers/STM32U5xx_HAL_Driver/Src/stm32u5xx_hal_flash_ex.c ****   *                 that contains the configuration information.
 537:Drivers/STM32U5xx_HAL_Driver/Src/stm32u5xx_hal_flash_ex.c ****   * @note   The field pBBAttributes->Bank should indicate which area is requested
 538:Drivers/STM32U5xx_HAL_Driver/Src/stm32u5xx_hal_flash_ex.c ****   *         for the block-based attributes.
 539:Drivers/STM32U5xx_HAL_Driver/Src/stm32u5xx_hal_flash_ex.c ****   * @note   The field pBBAttributes->BBAttributesType should indicate which
 540:Drivers/STM32U5xx_HAL_Driver/Src/stm32u5xx_hal_flash_ex.c ****   *         block-base attribute type is requested: Secure or Privilege.
 541:Drivers/STM32U5xx_HAL_Driver/Src/stm32u5xx_hal_flash_ex.c ****   *
 542:Drivers/STM32U5xx_HAL_Driver/Src/stm32u5xx_hal_flash_ex.c ****   * @retval None
ARM GAS  /tmp/ccudYRdF.s 			page 11


 543:Drivers/STM32U5xx_HAL_Driver/Src/stm32u5xx_hal_flash_ex.c ****   */
 544:Drivers/STM32U5xx_HAL_Driver/Src/stm32u5xx_hal_flash_ex.c **** void HAL_FLASHEx_GetConfigBBAttributes(FLASH_BBAttributesTypeDef *pBBAttributes)
 545:Drivers/STM32U5xx_HAL_Driver/Src/stm32u5xx_hal_flash_ex.c **** {
 546:Drivers/STM32U5xx_HAL_Driver/Src/stm32u5xx_hal_flash_ex.c ****   uint8_t index;
 547:Drivers/STM32U5xx_HAL_Driver/Src/stm32u5xx_hal_flash_ex.c ****   __IO uint32_t *reg;
 548:Drivers/STM32U5xx_HAL_Driver/Src/stm32u5xx_hal_flash_ex.c **** 
 549:Drivers/STM32U5xx_HAL_Driver/Src/stm32u5xx_hal_flash_ex.c ****   /* Check the parameters */
 550:Drivers/STM32U5xx_HAL_Driver/Src/stm32u5xx_hal_flash_ex.c ****   assert_param(IS_FLASH_BANK_EXCLUSIVE(pBBAttributes->Bank));
 551:Drivers/STM32U5xx_HAL_Driver/Src/stm32u5xx_hal_flash_ex.c ****   assert_param(IS_FLASH_BB_EXCLUSIVE(pBBAttributes->BBAttributesType));
 552:Drivers/STM32U5xx_HAL_Driver/Src/stm32u5xx_hal_flash_ex.c **** 
 553:Drivers/STM32U5xx_HAL_Driver/Src/stm32u5xx_hal_flash_ex.c ****   /* Set the first Block-Based register to read */
 554:Drivers/STM32U5xx_HAL_Driver/Src/stm32u5xx_hal_flash_ex.c ****   if (pBBAttributes->BBAttributesType == FLASH_BB_SEC)
 555:Drivers/STM32U5xx_HAL_Driver/Src/stm32u5xx_hal_flash_ex.c ****   {
 556:Drivers/STM32U5xx_HAL_Driver/Src/stm32u5xx_hal_flash_ex.c ****     if (pBBAttributes->Bank == FLASH_BANK_1)
 557:Drivers/STM32U5xx_HAL_Driver/Src/stm32u5xx_hal_flash_ex.c ****     {
 558:Drivers/STM32U5xx_HAL_Driver/Src/stm32u5xx_hal_flash_ex.c ****       reg = &(FLASH->SECBB1R1);
 559:Drivers/STM32U5xx_HAL_Driver/Src/stm32u5xx_hal_flash_ex.c ****     }
 560:Drivers/STM32U5xx_HAL_Driver/Src/stm32u5xx_hal_flash_ex.c ****     else
 561:Drivers/STM32U5xx_HAL_Driver/Src/stm32u5xx_hal_flash_ex.c ****     {
 562:Drivers/STM32U5xx_HAL_Driver/Src/stm32u5xx_hal_flash_ex.c ****       reg = &(FLASH->SECBB2R1);
 563:Drivers/STM32U5xx_HAL_Driver/Src/stm32u5xx_hal_flash_ex.c ****     }
 564:Drivers/STM32U5xx_HAL_Driver/Src/stm32u5xx_hal_flash_ex.c ****   }
 565:Drivers/STM32U5xx_HAL_Driver/Src/stm32u5xx_hal_flash_ex.c ****   else
 566:Drivers/STM32U5xx_HAL_Driver/Src/stm32u5xx_hal_flash_ex.c ****   {
 567:Drivers/STM32U5xx_HAL_Driver/Src/stm32u5xx_hal_flash_ex.c ****     if (pBBAttributes->Bank == FLASH_BANK_1)
 568:Drivers/STM32U5xx_HAL_Driver/Src/stm32u5xx_hal_flash_ex.c ****     {
 569:Drivers/STM32U5xx_HAL_Driver/Src/stm32u5xx_hal_flash_ex.c ****       reg = &(FLASH->PRIVBB1R1);
 570:Drivers/STM32U5xx_HAL_Driver/Src/stm32u5xx_hal_flash_ex.c ****     }
 571:Drivers/STM32U5xx_HAL_Driver/Src/stm32u5xx_hal_flash_ex.c ****     else
 572:Drivers/STM32U5xx_HAL_Driver/Src/stm32u5xx_hal_flash_ex.c ****     {
 573:Drivers/STM32U5xx_HAL_Driver/Src/stm32u5xx_hal_flash_ex.c ****       reg = &(FLASH->PRIVBB2R1);
 574:Drivers/STM32U5xx_HAL_Driver/Src/stm32u5xx_hal_flash_ex.c ****     }
 575:Drivers/STM32U5xx_HAL_Driver/Src/stm32u5xx_hal_flash_ex.c ****   }
 576:Drivers/STM32U5xx_HAL_Driver/Src/stm32u5xx_hal_flash_ex.c **** 
 577:Drivers/STM32U5xx_HAL_Driver/Src/stm32u5xx_hal_flash_ex.c ****   /* Read the register values */
 578:Drivers/STM32U5xx_HAL_Driver/Src/stm32u5xx_hal_flash_ex.c ****   for (index = 0; index < FLASH_BLOCKBASED_NB_REG; index++)
 579:Drivers/STM32U5xx_HAL_Driver/Src/stm32u5xx_hal_flash_ex.c ****   {
 580:Drivers/STM32U5xx_HAL_Driver/Src/stm32u5xx_hal_flash_ex.c ****     pBBAttributes->BBAttributes_array[index] = (*reg);
 581:Drivers/STM32U5xx_HAL_Driver/Src/stm32u5xx_hal_flash_ex.c ****     reg++;
 582:Drivers/STM32U5xx_HAL_Driver/Src/stm32u5xx_hal_flash_ex.c ****   }
 583:Drivers/STM32U5xx_HAL_Driver/Src/stm32u5xx_hal_flash_ex.c **** }
 584:Drivers/STM32U5xx_HAL_Driver/Src/stm32u5xx_hal_flash_ex.c **** 
 585:Drivers/STM32U5xx_HAL_Driver/Src/stm32u5xx_hal_flash_ex.c **** #if defined (__ARM_FEATURE_CMSE) && (__ARM_FEATURE_CMSE == 3U)
 586:Drivers/STM32U5xx_HAL_Driver/Src/stm32u5xx_hal_flash_ex.c **** /**
 587:Drivers/STM32U5xx_HAL_Driver/Src/stm32u5xx_hal_flash_ex.c ****   * @brief  Activation of the protection of the secure hide area.
 588:Drivers/STM32U5xx_HAL_Driver/Src/stm32u5xx_hal_flash_ex.c ****   *
 589:Drivers/STM32U5xx_HAL_Driver/Src/stm32u5xx_hal_flash_ex.c ****   * @param  Banks indicate the bank concerned by the activation
 590:Drivers/STM32U5xx_HAL_Driver/Src/stm32u5xx_hal_flash_ex.c ****   *          This parameter can be one of the following values:
 591:Drivers/STM32U5xx_HAL_Driver/Src/stm32u5xx_hal_flash_ex.c ****   *            @arg FLASH_BANK_1: Bank1 to be protected
 592:Drivers/STM32U5xx_HAL_Driver/Src/stm32u5xx_hal_flash_ex.c ****   *            @arg FLASH_BANK_2: Bank2 to be protected
 593:Drivers/STM32U5xx_HAL_Driver/Src/stm32u5xx_hal_flash_ex.c ****   *            @arg FLASH_BANK_BOTH: Bank1 and Bank2 to be protected
 594:Drivers/STM32U5xx_HAL_Driver/Src/stm32u5xx_hal_flash_ex.c ****   *
 595:Drivers/STM32U5xx_HAL_Driver/Src/stm32u5xx_hal_flash_ex.c ****   * @retval None
 596:Drivers/STM32U5xx_HAL_Driver/Src/stm32u5xx_hal_flash_ex.c ****   */
 597:Drivers/STM32U5xx_HAL_Driver/Src/stm32u5xx_hal_flash_ex.c **** void HAL_FLASHEx_EnableSecHideProtection(uint32_t Banks)
 598:Drivers/STM32U5xx_HAL_Driver/Src/stm32u5xx_hal_flash_ex.c **** {
 599:Drivers/STM32U5xx_HAL_Driver/Src/stm32u5xx_hal_flash_ex.c ****   /* Check the parameters */
ARM GAS  /tmp/ccudYRdF.s 			page 12


 600:Drivers/STM32U5xx_HAL_Driver/Src/stm32u5xx_hal_flash_ex.c ****   assert_param(IS_FLASH_BANK(Banks));
 601:Drivers/STM32U5xx_HAL_Driver/Src/stm32u5xx_hal_flash_ex.c **** 
 602:Drivers/STM32U5xx_HAL_Driver/Src/stm32u5xx_hal_flash_ex.c ****   if ((Banks & FLASH_BANK_1) != 0U)
 603:Drivers/STM32U5xx_HAL_Driver/Src/stm32u5xx_hal_flash_ex.c ****   {
 604:Drivers/STM32U5xx_HAL_Driver/Src/stm32u5xx_hal_flash_ex.c ****     SET_BIT(FLASH->SECHDPCR, FLASH_SECHDPCR_HDP1_ACCDIS);
 605:Drivers/STM32U5xx_HAL_Driver/Src/stm32u5xx_hal_flash_ex.c ****   }
 606:Drivers/STM32U5xx_HAL_Driver/Src/stm32u5xx_hal_flash_ex.c **** 
 607:Drivers/STM32U5xx_HAL_Driver/Src/stm32u5xx_hal_flash_ex.c ****   if ((Banks & FLASH_BANK_2) != 0U)
 608:Drivers/STM32U5xx_HAL_Driver/Src/stm32u5xx_hal_flash_ex.c ****   {
 609:Drivers/STM32U5xx_HAL_Driver/Src/stm32u5xx_hal_flash_ex.c ****     SET_BIT(FLASH->SECHDPCR, FLASH_SECHDPCR_HDP2_ACCDIS);
 610:Drivers/STM32U5xx_HAL_Driver/Src/stm32u5xx_hal_flash_ex.c ****   }
 611:Drivers/STM32U5xx_HAL_Driver/Src/stm32u5xx_hal_flash_ex.c **** }
 612:Drivers/STM32U5xx_HAL_Driver/Src/stm32u5xx_hal_flash_ex.c **** #endif /* __ARM_FEATURE_CMSE */
 613:Drivers/STM32U5xx_HAL_Driver/Src/stm32u5xx_hal_flash_ex.c **** 
 614:Drivers/STM32U5xx_HAL_Driver/Src/stm32u5xx_hal_flash_ex.c **** /**
 615:Drivers/STM32U5xx_HAL_Driver/Src/stm32u5xx_hal_flash_ex.c ****   * @}
 616:Drivers/STM32U5xx_HAL_Driver/Src/stm32u5xx_hal_flash_ex.c ****   */
 617:Drivers/STM32U5xx_HAL_Driver/Src/stm32u5xx_hal_flash_ex.c **** 
 618:Drivers/STM32U5xx_HAL_Driver/Src/stm32u5xx_hal_flash_ex.c **** /** @addtogroup FLASHEx_Exported_Functions_Group2 FLASHEx Exported Functions Group2
 619:Drivers/STM32U5xx_HAL_Driver/Src/stm32u5xx_hal_flash_ex.c ****   * @{
 620:Drivers/STM32U5xx_HAL_Driver/Src/stm32u5xx_hal_flash_ex.c ****   */
 621:Drivers/STM32U5xx_HAL_Driver/Src/stm32u5xx_hal_flash_ex.c **** 
 622:Drivers/STM32U5xx_HAL_Driver/Src/stm32u5xx_hal_flash_ex.c **** /**
 623:Drivers/STM32U5xx_HAL_Driver/Src/stm32u5xx_hal_flash_ex.c ****   * @brief  Configuration of the privilege attribute.
 624:Drivers/STM32U5xx_HAL_Driver/Src/stm32u5xx_hal_flash_ex.c ****   *
 625:Drivers/STM32U5xx_HAL_Driver/Src/stm32u5xx_hal_flash_ex.c ****   * @param  PrivMode indicate privilege mode configuration
 626:Drivers/STM32U5xx_HAL_Driver/Src/stm32u5xx_hal_flash_ex.c ****   *         This parameter can be one of the following values:
 627:Drivers/STM32U5xx_HAL_Driver/Src/stm32u5xx_hal_flash_ex.c ****   *            @arg FLASH_SPRIV_GRANTED:  access to secure Flash registers is granted to privileged
 628:Drivers/STM32U5xx_HAL_Driver/Src/stm32u5xx_hal_flash_ex.c ****   *                                       or unprivileged access
 629:Drivers/STM32U5xx_HAL_Driver/Src/stm32u5xx_hal_flash_ex.c ****   *            @arg FLASH_SPRIV_DENIED:   access to secure Flash registers is denied
 630:Drivers/STM32U5xx_HAL_Driver/Src/stm32u5xx_hal_flash_ex.c ****   *                                       to unprivileged access
 631:Drivers/STM32U5xx_HAL_Driver/Src/stm32u5xx_hal_flash_ex.c ****   *            @arg FLASH_NSPRIV_GRANTED: access to non-secure Flash registers is granted to privil
 632:Drivers/STM32U5xx_HAL_Driver/Src/stm32u5xx_hal_flash_ex.c ****   *                                       or unprivileged access
 633:Drivers/STM32U5xx_HAL_Driver/Src/stm32u5xx_hal_flash_ex.c ****   *            @arg FLASH_NSPRIV_DENIED:  access to non-secure Flash registers is denied
 634:Drivers/STM32U5xx_HAL_Driver/Src/stm32u5xx_hal_flash_ex.c ****   *                                       to unprivilege access
 635:Drivers/STM32U5xx_HAL_Driver/Src/stm32u5xx_hal_flash_ex.c ****   *
 636:Drivers/STM32U5xx_HAL_Driver/Src/stm32u5xx_hal_flash_ex.c ****   * @retval None
 637:Drivers/STM32U5xx_HAL_Driver/Src/stm32u5xx_hal_flash_ex.c ****   */
 638:Drivers/STM32U5xx_HAL_Driver/Src/stm32u5xx_hal_flash_ex.c **** void HAL_FLASHEx_ConfigPrivMode(uint32_t PrivMode)
 639:Drivers/STM32U5xx_HAL_Driver/Src/stm32u5xx_hal_flash_ex.c **** {
 640:Drivers/STM32U5xx_HAL_Driver/Src/stm32u5xx_hal_flash_ex.c ****   /* Check the parameters */
 641:Drivers/STM32U5xx_HAL_Driver/Src/stm32u5xx_hal_flash_ex.c ****   assert_param(IS_FLASH_CFGPRIVMODE(PrivMode));
 642:Drivers/STM32U5xx_HAL_Driver/Src/stm32u5xx_hal_flash_ex.c **** 
 643:Drivers/STM32U5xx_HAL_Driver/Src/stm32u5xx_hal_flash_ex.c ****   MODIFY_REG(FLASH->PRIVCFGR, (FLASH_PRIVCFGR_SPRIV | FLASH_PRIVCFGR_NSPRIV), PrivMode);
 644:Drivers/STM32U5xx_HAL_Driver/Src/stm32u5xx_hal_flash_ex.c **** }
 645:Drivers/STM32U5xx_HAL_Driver/Src/stm32u5xx_hal_flash_ex.c **** 
 646:Drivers/STM32U5xx_HAL_Driver/Src/stm32u5xx_hal_flash_ex.c **** /**
 647:Drivers/STM32U5xx_HAL_Driver/Src/stm32u5xx_hal_flash_ex.c ****   * @brief  Return the value of the privilege attribute.
 648:Drivers/STM32U5xx_HAL_Driver/Src/stm32u5xx_hal_flash_ex.c ****   *
 649:Drivers/STM32U5xx_HAL_Driver/Src/stm32u5xx_hal_flash_ex.c ****   * @retval  It indicates the privilege mode configuration.
 650:Drivers/STM32U5xx_HAL_Driver/Src/stm32u5xx_hal_flash_ex.c ****   *          This return value can be one of the following values:
 651:Drivers/STM32U5xx_HAL_Driver/Src/stm32u5xx_hal_flash_ex.c ****   *            @arg FLASH_SPRIV_GRANTED:  access to secure Flash registers is granted to privileged
 652:Drivers/STM32U5xx_HAL_Driver/Src/stm32u5xx_hal_flash_ex.c ****   *                                       or unprivileged access
 653:Drivers/STM32U5xx_HAL_Driver/Src/stm32u5xx_hal_flash_ex.c ****   *            @arg FLASH_SPRIV_DENIED:   access to secure Flash registers is denied
 654:Drivers/STM32U5xx_HAL_Driver/Src/stm32u5xx_hal_flash_ex.c ****   *                                       to unprivileged access
 655:Drivers/STM32U5xx_HAL_Driver/Src/stm32u5xx_hal_flash_ex.c ****   *            @arg FLASH_NSPRIV_GRANTED: access to non-secure Flash registers is granted to privil
 656:Drivers/STM32U5xx_HAL_Driver/Src/stm32u5xx_hal_flash_ex.c ****   *                                       or unprivileged access
ARM GAS  /tmp/ccudYRdF.s 			page 13


 657:Drivers/STM32U5xx_HAL_Driver/Src/stm32u5xx_hal_flash_ex.c ****   *            @arg FLASH_NSPRIV_DENIED:  access to Flash registers is denied
 658:Drivers/STM32U5xx_HAL_Driver/Src/stm32u5xx_hal_flash_ex.c ****   *                                       to unprivilege accessP
 659:Drivers/STM32U5xx_HAL_Driver/Src/stm32u5xx_hal_flash_ex.c ****   */
 660:Drivers/STM32U5xx_HAL_Driver/Src/stm32u5xx_hal_flash_ex.c **** uint32_t HAL_FLASHEx_GetPrivMode(void)
 661:Drivers/STM32U5xx_HAL_Driver/Src/stm32u5xx_hal_flash_ex.c **** {
 662:Drivers/STM32U5xx_HAL_Driver/Src/stm32u5xx_hal_flash_ex.c ****   return (FLASH->PRIVCFGR & (FLASH_PRIVCFGR_SPRIV | FLASH_PRIVCFGR_NSPRIV));
 663:Drivers/STM32U5xx_HAL_Driver/Src/stm32u5xx_hal_flash_ex.c **** }
 664:Drivers/STM32U5xx_HAL_Driver/Src/stm32u5xx_hal_flash_ex.c **** 
 665:Drivers/STM32U5xx_HAL_Driver/Src/stm32u5xx_hal_flash_ex.c **** #if defined (__ARM_FEATURE_CMSE) && (__ARM_FEATURE_CMSE == 3U)
 666:Drivers/STM32U5xx_HAL_Driver/Src/stm32u5xx_hal_flash_ex.c **** /**
 667:Drivers/STM32U5xx_HAL_Driver/Src/stm32u5xx_hal_flash_ex.c ****   * @brief  Configuration of the security inversion.
 668:Drivers/STM32U5xx_HAL_Driver/Src/stm32u5xx_hal_flash_ex.c ****   *
 669:Drivers/STM32U5xx_HAL_Driver/Src/stm32u5xx_hal_flash_ex.c ****   * @param  SecInvState indicate the flash security state configuration
 670:Drivers/STM32U5xx_HAL_Driver/Src/stm32u5xx_hal_flash_ex.c ****   *          This parameter can be one of the following values:
 671:Drivers/STM32U5xx_HAL_Driver/Src/stm32u5xx_hal_flash_ex.c ****   *            @arg FLASH_SEC_INV_DISABLE: Security state of Flash is not inverted
 672:Drivers/STM32U5xx_HAL_Driver/Src/stm32u5xx_hal_flash_ex.c ****   *            @arg FLASH_SEC_INV_ENABLE: Security state of Flash is inverted
 673:Drivers/STM32U5xx_HAL_Driver/Src/stm32u5xx_hal_flash_ex.c ****   *
 674:Drivers/STM32U5xx_HAL_Driver/Src/stm32u5xx_hal_flash_ex.c ****   * @retval HAL Status
 675:Drivers/STM32U5xx_HAL_Driver/Src/stm32u5xx_hal_flash_ex.c ****   */
 676:Drivers/STM32U5xx_HAL_Driver/Src/stm32u5xx_hal_flash_ex.c **** HAL_StatusTypeDef HAL_FLASHEx_ConfigSecInversion(uint32_t SecInvState)
 677:Drivers/STM32U5xx_HAL_Driver/Src/stm32u5xx_hal_flash_ex.c **** {
 678:Drivers/STM32U5xx_HAL_Driver/Src/stm32u5xx_hal_flash_ex.c ****   HAL_StatusTypeDef status;
 679:Drivers/STM32U5xx_HAL_Driver/Src/stm32u5xx_hal_flash_ex.c **** 
 680:Drivers/STM32U5xx_HAL_Driver/Src/stm32u5xx_hal_flash_ex.c ****   /* Check the parameters */
 681:Drivers/STM32U5xx_HAL_Driver/Src/stm32u5xx_hal_flash_ex.c ****   assert_param(IS_FLASH_CFGSECINV(SecInvState));
 682:Drivers/STM32U5xx_HAL_Driver/Src/stm32u5xx_hal_flash_ex.c **** 
 683:Drivers/STM32U5xx_HAL_Driver/Src/stm32u5xx_hal_flash_ex.c ****   /* Process Locked */
 684:Drivers/STM32U5xx_HAL_Driver/Src/stm32u5xx_hal_flash_ex.c ****   __HAL_LOCK(&pFlash);
 685:Drivers/STM32U5xx_HAL_Driver/Src/stm32u5xx_hal_flash_ex.c **** 
 686:Drivers/STM32U5xx_HAL_Driver/Src/stm32u5xx_hal_flash_ex.c ****   /* Wait for last operation to be completed */
 687:Drivers/STM32U5xx_HAL_Driver/Src/stm32u5xx_hal_flash_ex.c ****   status = FLASH_WaitForLastOperation(FLASH_TIMEOUT_VALUE);
 688:Drivers/STM32U5xx_HAL_Driver/Src/stm32u5xx_hal_flash_ex.c **** 
 689:Drivers/STM32U5xx_HAL_Driver/Src/stm32u5xx_hal_flash_ex.c ****   if (status == HAL_OK)
 690:Drivers/STM32U5xx_HAL_Driver/Src/stm32u5xx_hal_flash_ex.c ****   {
 691:Drivers/STM32U5xx_HAL_Driver/Src/stm32u5xx_hal_flash_ex.c ****     MODIFY_REG(FLASH->SECCR, FLASH_SECCR_INV, SecInvState);
 692:Drivers/STM32U5xx_HAL_Driver/Src/stm32u5xx_hal_flash_ex.c ****   }
 693:Drivers/STM32U5xx_HAL_Driver/Src/stm32u5xx_hal_flash_ex.c **** 
 694:Drivers/STM32U5xx_HAL_Driver/Src/stm32u5xx_hal_flash_ex.c ****   /* Process Unlocked */
 695:Drivers/STM32U5xx_HAL_Driver/Src/stm32u5xx_hal_flash_ex.c ****   __HAL_UNLOCK(&pFlash);
 696:Drivers/STM32U5xx_HAL_Driver/Src/stm32u5xx_hal_flash_ex.c **** 
 697:Drivers/STM32U5xx_HAL_Driver/Src/stm32u5xx_hal_flash_ex.c ****   return status;
 698:Drivers/STM32U5xx_HAL_Driver/Src/stm32u5xx_hal_flash_ex.c **** }
 699:Drivers/STM32U5xx_HAL_Driver/Src/stm32u5xx_hal_flash_ex.c **** 
 700:Drivers/STM32U5xx_HAL_Driver/Src/stm32u5xx_hal_flash_ex.c **** /**
 701:Drivers/STM32U5xx_HAL_Driver/Src/stm32u5xx_hal_flash_ex.c ****   * @brief  Return the value of the security inversion.
 702:Drivers/STM32U5xx_HAL_Driver/Src/stm32u5xx_hal_flash_ex.c ****   *
 703:Drivers/STM32U5xx_HAL_Driver/Src/stm32u5xx_hal_flash_ex.c ****   * @retval  It indicates the flash security state configuration
 704:Drivers/STM32U5xx_HAL_Driver/Src/stm32u5xx_hal_flash_ex.c ****   *          This return value can be one of the following values:
 705:Drivers/STM32U5xx_HAL_Driver/Src/stm32u5xx_hal_flash_ex.c ****   *            @arg FLASH_SEC_INV_DISABLE: Security state of Flash is not inverted
 706:Drivers/STM32U5xx_HAL_Driver/Src/stm32u5xx_hal_flash_ex.c ****   *            @arg FLASH_SEC_INV_ENABLE: Security state of Flash is inverted
 707:Drivers/STM32U5xx_HAL_Driver/Src/stm32u5xx_hal_flash_ex.c ****   */
 708:Drivers/STM32U5xx_HAL_Driver/Src/stm32u5xx_hal_flash_ex.c **** uint32_t HAL_FLASHEx_GetSecInversion(void)
 709:Drivers/STM32U5xx_HAL_Driver/Src/stm32u5xx_hal_flash_ex.c **** {
 710:Drivers/STM32U5xx_HAL_Driver/Src/stm32u5xx_hal_flash_ex.c ****   return (FLASH->SECCR & FLASH_SECCR_INV);
 711:Drivers/STM32U5xx_HAL_Driver/Src/stm32u5xx_hal_flash_ex.c **** }
 712:Drivers/STM32U5xx_HAL_Driver/Src/stm32u5xx_hal_flash_ex.c **** #endif /* __ARM_FEATURE_CMSE */
 713:Drivers/STM32U5xx_HAL_Driver/Src/stm32u5xx_hal_flash_ex.c **** 
ARM GAS  /tmp/ccudYRdF.s 			page 14


 714:Drivers/STM32U5xx_HAL_Driver/Src/stm32u5xx_hal_flash_ex.c **** /**
 715:Drivers/STM32U5xx_HAL_Driver/Src/stm32u5xx_hal_flash_ex.c ****   * @brief  Enable the Power-down Mode for Flash Banks
 716:Drivers/STM32U5xx_HAL_Driver/Src/stm32u5xx_hal_flash_ex.c ****   * @param  Banks indicate which bank to put in power-down mode
 717:Drivers/STM32U5xx_HAL_Driver/Src/stm32u5xx_hal_flash_ex.c ****   *          This parameter can be one of the following values:
 718:Drivers/STM32U5xx_HAL_Driver/Src/stm32u5xx_hal_flash_ex.c ****   *            @arg FLASH_BANK_1: Flash Bank 1
 719:Drivers/STM32U5xx_HAL_Driver/Src/stm32u5xx_hal_flash_ex.c ****   *            @arg FLASH_BANK_2: Flash Bank 2
 720:Drivers/STM32U5xx_HAL_Driver/Src/stm32u5xx_hal_flash_ex.c ****   *            @arg FLASH_BANK_BOTH: Flash Bank 1 and Bank 2
 721:Drivers/STM32U5xx_HAL_Driver/Src/stm32u5xx_hal_flash_ex.c ****   * @retval HAL Status
 722:Drivers/STM32U5xx_HAL_Driver/Src/stm32u5xx_hal_flash_ex.c ****   */
 723:Drivers/STM32U5xx_HAL_Driver/Src/stm32u5xx_hal_flash_ex.c **** HAL_StatusTypeDef HAL_FLASHEx_EnablePowerDown(uint32_t Banks)
 724:Drivers/STM32U5xx_HAL_Driver/Src/stm32u5xx_hal_flash_ex.c **** {
 725:Drivers/STM32U5xx_HAL_Driver/Src/stm32u5xx_hal_flash_ex.c ****   HAL_StatusTypeDef status = HAL_OK;
 726:Drivers/STM32U5xx_HAL_Driver/Src/stm32u5xx_hal_flash_ex.c ****   uint32_t tickstart;
 727:Drivers/STM32U5xx_HAL_Driver/Src/stm32u5xx_hal_flash_ex.c **** 
 728:Drivers/STM32U5xx_HAL_Driver/Src/stm32u5xx_hal_flash_ex.c ****   /* Check the parameters */
 729:Drivers/STM32U5xx_HAL_Driver/Src/stm32u5xx_hal_flash_ex.c ****   assert_param(IS_FLASH_BANK(Banks));
 730:Drivers/STM32U5xx_HAL_Driver/Src/stm32u5xx_hal_flash_ex.c **** 
 731:Drivers/STM32U5xx_HAL_Driver/Src/stm32u5xx_hal_flash_ex.c ****   /* Request power-down mode for Bank 1 */
 732:Drivers/STM32U5xx_HAL_Driver/Src/stm32u5xx_hal_flash_ex.c ****   if ((Banks & FLASH_BANK_1) != 0U)
 733:Drivers/STM32U5xx_HAL_Driver/Src/stm32u5xx_hal_flash_ex.c ****   {
 734:Drivers/STM32U5xx_HAL_Driver/Src/stm32u5xx_hal_flash_ex.c ****     /* Check PD1 and PDREQ1 bits (Bank 1 is not in power-down mode and not being
 735:Drivers/STM32U5xx_HAL_Driver/Src/stm32u5xx_hal_flash_ex.c ****        already under power-down request) */
 736:Drivers/STM32U5xx_HAL_Driver/Src/stm32u5xx_hal_flash_ex.c ****     if ((FLASH->NSSR & FLASH_NSSR_PD1) != 0U)
 737:Drivers/STM32U5xx_HAL_Driver/Src/stm32u5xx_hal_flash_ex.c ****     {
 738:Drivers/STM32U5xx_HAL_Driver/Src/stm32u5xx_hal_flash_ex.c ****       status = HAL_ERROR;
 739:Drivers/STM32U5xx_HAL_Driver/Src/stm32u5xx_hal_flash_ex.c ****     }
 740:Drivers/STM32U5xx_HAL_Driver/Src/stm32u5xx_hal_flash_ex.c ****     else if ((FLASH->ACR & FLASH_ACR_PDREQ1) != 0U)
 741:Drivers/STM32U5xx_HAL_Driver/Src/stm32u5xx_hal_flash_ex.c ****     {
 742:Drivers/STM32U5xx_HAL_Driver/Src/stm32u5xx_hal_flash_ex.c ****       status = HAL_ERROR;
 743:Drivers/STM32U5xx_HAL_Driver/Src/stm32u5xx_hal_flash_ex.c ****     }
 744:Drivers/STM32U5xx_HAL_Driver/Src/stm32u5xx_hal_flash_ex.c ****     else
 745:Drivers/STM32U5xx_HAL_Driver/Src/stm32u5xx_hal_flash_ex.c ****     {
 746:Drivers/STM32U5xx_HAL_Driver/Src/stm32u5xx_hal_flash_ex.c ****       /* Unlock PDREQ1 bit */
 747:Drivers/STM32U5xx_HAL_Driver/Src/stm32u5xx_hal_flash_ex.c ****       WRITE_REG(FLASH->PDKEY1R, FLASH_PDKEY1_1);
 748:Drivers/STM32U5xx_HAL_Driver/Src/stm32u5xx_hal_flash_ex.c ****       WRITE_REG(FLASH->PDKEY1R, FLASH_PDKEY1_2);
 749:Drivers/STM32U5xx_HAL_Driver/Src/stm32u5xx_hal_flash_ex.c **** 
 750:Drivers/STM32U5xx_HAL_Driver/Src/stm32u5xx_hal_flash_ex.c ****       /* Set PDREQ1 in FLASH_ACR register */
 751:Drivers/STM32U5xx_HAL_Driver/Src/stm32u5xx_hal_flash_ex.c ****       SET_BIT(FLASH->ACR, FLASH_ACR_PDREQ1);
 752:Drivers/STM32U5xx_HAL_Driver/Src/stm32u5xx_hal_flash_ex.c **** 
 753:Drivers/STM32U5xx_HAL_Driver/Src/stm32u5xx_hal_flash_ex.c ****       /* Check PD1 bit */
 754:Drivers/STM32U5xx_HAL_Driver/Src/stm32u5xx_hal_flash_ex.c ****       tickstart = HAL_GetTick();
 755:Drivers/STM32U5xx_HAL_Driver/Src/stm32u5xx_hal_flash_ex.c ****       while (((FLASH->NSSR & FLASH_NSSR_PD1) != FLASH_NSSR_PD1))
 756:Drivers/STM32U5xx_HAL_Driver/Src/stm32u5xx_hal_flash_ex.c ****       {
 757:Drivers/STM32U5xx_HAL_Driver/Src/stm32u5xx_hal_flash_ex.c ****         if ((HAL_GetTick() - tickstart) > FLASH_TIMEOUT_VALUE)
 758:Drivers/STM32U5xx_HAL_Driver/Src/stm32u5xx_hal_flash_ex.c ****         {
 759:Drivers/STM32U5xx_HAL_Driver/Src/stm32u5xx_hal_flash_ex.c ****           return HAL_TIMEOUT;
 760:Drivers/STM32U5xx_HAL_Driver/Src/stm32u5xx_hal_flash_ex.c ****         }
 761:Drivers/STM32U5xx_HAL_Driver/Src/stm32u5xx_hal_flash_ex.c ****       }
 762:Drivers/STM32U5xx_HAL_Driver/Src/stm32u5xx_hal_flash_ex.c ****     }
 763:Drivers/STM32U5xx_HAL_Driver/Src/stm32u5xx_hal_flash_ex.c ****   }
 764:Drivers/STM32U5xx_HAL_Driver/Src/stm32u5xx_hal_flash_ex.c **** 
 765:Drivers/STM32U5xx_HAL_Driver/Src/stm32u5xx_hal_flash_ex.c ****   /* Request power-down mode for Bank 2 */
 766:Drivers/STM32U5xx_HAL_Driver/Src/stm32u5xx_hal_flash_ex.c ****   if ((Banks & FLASH_BANK_2) != 0U)
 767:Drivers/STM32U5xx_HAL_Driver/Src/stm32u5xx_hal_flash_ex.c ****   {
 768:Drivers/STM32U5xx_HAL_Driver/Src/stm32u5xx_hal_flash_ex.c ****     /* Check PD2 and PDREQ2 bits (Bank 2 is not in power-down mode and not being
 769:Drivers/STM32U5xx_HAL_Driver/Src/stm32u5xx_hal_flash_ex.c ****        already under power-down request) */
 770:Drivers/STM32U5xx_HAL_Driver/Src/stm32u5xx_hal_flash_ex.c ****     if ((FLASH->NSSR & FLASH_NSSR_PD2) != 0U)
ARM GAS  /tmp/ccudYRdF.s 			page 15


 771:Drivers/STM32U5xx_HAL_Driver/Src/stm32u5xx_hal_flash_ex.c ****     {
 772:Drivers/STM32U5xx_HAL_Driver/Src/stm32u5xx_hal_flash_ex.c ****       status = HAL_ERROR;
 773:Drivers/STM32U5xx_HAL_Driver/Src/stm32u5xx_hal_flash_ex.c ****     }
 774:Drivers/STM32U5xx_HAL_Driver/Src/stm32u5xx_hal_flash_ex.c ****     else if ((FLASH->ACR & FLASH_ACR_PDREQ2) != 0U)
 775:Drivers/STM32U5xx_HAL_Driver/Src/stm32u5xx_hal_flash_ex.c ****     {
 776:Drivers/STM32U5xx_HAL_Driver/Src/stm32u5xx_hal_flash_ex.c ****       status = HAL_ERROR;
 777:Drivers/STM32U5xx_HAL_Driver/Src/stm32u5xx_hal_flash_ex.c ****     }
 778:Drivers/STM32U5xx_HAL_Driver/Src/stm32u5xx_hal_flash_ex.c ****     else
 779:Drivers/STM32U5xx_HAL_Driver/Src/stm32u5xx_hal_flash_ex.c ****     {
 780:Drivers/STM32U5xx_HAL_Driver/Src/stm32u5xx_hal_flash_ex.c ****       /* Unlock PDREQ2 bit */
 781:Drivers/STM32U5xx_HAL_Driver/Src/stm32u5xx_hal_flash_ex.c ****       WRITE_REG(FLASH->PDKEY2R, FLASH_PDKEY2_1);
 782:Drivers/STM32U5xx_HAL_Driver/Src/stm32u5xx_hal_flash_ex.c ****       WRITE_REG(FLASH->PDKEY2R, FLASH_PDKEY2_2);
 783:Drivers/STM32U5xx_HAL_Driver/Src/stm32u5xx_hal_flash_ex.c **** 
 784:Drivers/STM32U5xx_HAL_Driver/Src/stm32u5xx_hal_flash_ex.c ****       /* Set PDREQ2 in FLASH_ACR register */
 785:Drivers/STM32U5xx_HAL_Driver/Src/stm32u5xx_hal_flash_ex.c ****       SET_BIT(FLASH->ACR, FLASH_ACR_PDREQ2);
 786:Drivers/STM32U5xx_HAL_Driver/Src/stm32u5xx_hal_flash_ex.c **** 
 787:Drivers/STM32U5xx_HAL_Driver/Src/stm32u5xx_hal_flash_ex.c ****       /* Check PD2 bit */
 788:Drivers/STM32U5xx_HAL_Driver/Src/stm32u5xx_hal_flash_ex.c ****       tickstart = HAL_GetTick();
 789:Drivers/STM32U5xx_HAL_Driver/Src/stm32u5xx_hal_flash_ex.c ****       while (((FLASH->NSSR & FLASH_NSSR_PD2) != FLASH_NSSR_PD2))
 790:Drivers/STM32U5xx_HAL_Driver/Src/stm32u5xx_hal_flash_ex.c ****       {
 791:Drivers/STM32U5xx_HAL_Driver/Src/stm32u5xx_hal_flash_ex.c ****         if ((HAL_GetTick() - tickstart) > FLASH_TIMEOUT_VALUE)
 792:Drivers/STM32U5xx_HAL_Driver/Src/stm32u5xx_hal_flash_ex.c ****         {
 793:Drivers/STM32U5xx_HAL_Driver/Src/stm32u5xx_hal_flash_ex.c ****           return HAL_TIMEOUT;
 794:Drivers/STM32U5xx_HAL_Driver/Src/stm32u5xx_hal_flash_ex.c ****         }
 795:Drivers/STM32U5xx_HAL_Driver/Src/stm32u5xx_hal_flash_ex.c ****       }
 796:Drivers/STM32U5xx_HAL_Driver/Src/stm32u5xx_hal_flash_ex.c ****     }
 797:Drivers/STM32U5xx_HAL_Driver/Src/stm32u5xx_hal_flash_ex.c ****   }
 798:Drivers/STM32U5xx_HAL_Driver/Src/stm32u5xx_hal_flash_ex.c **** 
 799:Drivers/STM32U5xx_HAL_Driver/Src/stm32u5xx_hal_flash_ex.c ****   return status;
 800:Drivers/STM32U5xx_HAL_Driver/Src/stm32u5xx_hal_flash_ex.c **** }
 801:Drivers/STM32U5xx_HAL_Driver/Src/stm32u5xx_hal_flash_ex.c **** 
 802:Drivers/STM32U5xx_HAL_Driver/Src/stm32u5xx_hal_flash_ex.c **** /**
 803:Drivers/STM32U5xx_HAL_Driver/Src/stm32u5xx_hal_flash_ex.c ****   * @brief  Configuration of the Low-Power read Mode.
 804:Drivers/STM32U5xx_HAL_Driver/Src/stm32u5xx_hal_flash_ex.c ****   *
 805:Drivers/STM32U5xx_HAL_Driver/Src/stm32u5xx_hal_flash_ex.c ****   * @param  ConfigLPM indicate the Low-Power read Mode configuration.
 806:Drivers/STM32U5xx_HAL_Driver/Src/stm32u5xx_hal_flash_ex.c ****   *         This parameter can be one of the following values:
 807:Drivers/STM32U5xx_HAL_Driver/Src/stm32u5xx_hal_flash_ex.c ****   *           @arg FLASH_LPM_ENABLE: Flash is in low-power read mode
 808:Drivers/STM32U5xx_HAL_Driver/Src/stm32u5xx_hal_flash_ex.c ****   *           @arg FLASH_LPM_DISABLE: Flash is in normal read mode
 809:Drivers/STM32U5xx_HAL_Driver/Src/stm32u5xx_hal_flash_ex.c ****   *
 810:Drivers/STM32U5xx_HAL_Driver/Src/stm32u5xx_hal_flash_ex.c ****   * @retval HAL Status
 811:Drivers/STM32U5xx_HAL_Driver/Src/stm32u5xx_hal_flash_ex.c ****   */
 812:Drivers/STM32U5xx_HAL_Driver/Src/stm32u5xx_hal_flash_ex.c **** HAL_StatusTypeDef HAL_FLASHEx_ConfigLowPowerRead(uint32_t ConfigLPM)
 813:Drivers/STM32U5xx_HAL_Driver/Src/stm32u5xx_hal_flash_ex.c **** {
 814:Drivers/STM32U5xx_HAL_Driver/Src/stm32u5xx_hal_flash_ex.c ****   HAL_StatusTypeDef status = HAL_OK;
 815:Drivers/STM32U5xx_HAL_Driver/Src/stm32u5xx_hal_flash_ex.c **** 
 816:Drivers/STM32U5xx_HAL_Driver/Src/stm32u5xx_hal_flash_ex.c ****   /* Check the parameters */
 817:Drivers/STM32U5xx_HAL_Driver/Src/stm32u5xx_hal_flash_ex.c ****   assert_param(IS_FLASH_CFGLPM(ConfigLPM));
 818:Drivers/STM32U5xx_HAL_Driver/Src/stm32u5xx_hal_flash_ex.c **** 
 819:Drivers/STM32U5xx_HAL_Driver/Src/stm32u5xx_hal_flash_ex.c ****   /* Set LPM Bit in FLASH_ACR register */
 820:Drivers/STM32U5xx_HAL_Driver/Src/stm32u5xx_hal_flash_ex.c ****   MODIFY_REG(FLASH->ACR, FLASH_ACR_LPM, ConfigLPM);
 821:Drivers/STM32U5xx_HAL_Driver/Src/stm32u5xx_hal_flash_ex.c **** 
 822:Drivers/STM32U5xx_HAL_Driver/Src/stm32u5xx_hal_flash_ex.c ****   /* Check that low power read mode has been activated */
 823:Drivers/STM32U5xx_HAL_Driver/Src/stm32u5xx_hal_flash_ex.c ****   if (READ_BIT(FLASH->ACR, FLASH_ACR_LPM) != ConfigLPM)
 824:Drivers/STM32U5xx_HAL_Driver/Src/stm32u5xx_hal_flash_ex.c ****   {
 825:Drivers/STM32U5xx_HAL_Driver/Src/stm32u5xx_hal_flash_ex.c ****     status = HAL_ERROR;
 826:Drivers/STM32U5xx_HAL_Driver/Src/stm32u5xx_hal_flash_ex.c ****   }
 827:Drivers/STM32U5xx_HAL_Driver/Src/stm32u5xx_hal_flash_ex.c **** 
ARM GAS  /tmp/ccudYRdF.s 			page 16


 828:Drivers/STM32U5xx_HAL_Driver/Src/stm32u5xx_hal_flash_ex.c ****   return status;
 829:Drivers/STM32U5xx_HAL_Driver/Src/stm32u5xx_hal_flash_ex.c **** }
 830:Drivers/STM32U5xx_HAL_Driver/Src/stm32u5xx_hal_flash_ex.c **** 
 831:Drivers/STM32U5xx_HAL_Driver/Src/stm32u5xx_hal_flash_ex.c **** /**
 832:Drivers/STM32U5xx_HAL_Driver/Src/stm32u5xx_hal_flash_ex.c ****   * @brief  Return the value of the Low-Power read Mode.
 833:Drivers/STM32U5xx_HAL_Driver/Src/stm32u5xx_hal_flash_ex.c ****   *
 834:Drivers/STM32U5xx_HAL_Driver/Src/stm32u5xx_hal_flash_ex.c ****   * @retval  It indicates the flash low-power read mode configuration
 835:Drivers/STM32U5xx_HAL_Driver/Src/stm32u5xx_hal_flash_ex.c ****   *          This return value can be one of the following values:
 836:Drivers/STM32U5xx_HAL_Driver/Src/stm32u5xx_hal_flash_ex.c ****   *            @arg FLASH_LPM_ENABLE: Flash is in low-power read mode
 837:Drivers/STM32U5xx_HAL_Driver/Src/stm32u5xx_hal_flash_ex.c ****   *            @arg FLASH_LPM_DISABLE: Flash is in normal read mode
 838:Drivers/STM32U5xx_HAL_Driver/Src/stm32u5xx_hal_flash_ex.c ****   */
 839:Drivers/STM32U5xx_HAL_Driver/Src/stm32u5xx_hal_flash_ex.c **** uint32_t HAL_FLASHEx_GetLowPowerRead(void)
 840:Drivers/STM32U5xx_HAL_Driver/Src/stm32u5xx_hal_flash_ex.c **** {
 841:Drivers/STM32U5xx_HAL_Driver/Src/stm32u5xx_hal_flash_ex.c ****   return (FLASH->ACR & FLASH_ACR_LPM);
 842:Drivers/STM32U5xx_HAL_Driver/Src/stm32u5xx_hal_flash_ex.c **** }
 843:Drivers/STM32U5xx_HAL_Driver/Src/stm32u5xx_hal_flash_ex.c **** 
 844:Drivers/STM32U5xx_HAL_Driver/Src/stm32u5xx_hal_flash_ex.c **** /**
 845:Drivers/STM32U5xx_HAL_Driver/Src/stm32u5xx_hal_flash_ex.c ****   * @brief  Return the on-going Flash Operation. After a system reset, return
 846:Drivers/STM32U5xx_HAL_Driver/Src/stm32u5xx_hal_flash_ex.c ****   *         the interrupted Flash operation, if any.
 847:Drivers/STM32U5xx_HAL_Driver/Src/stm32u5xx_hal_flash_ex.c ****   * @param  pFlashOperation [out] pointer to a FLASH_OperationTypeDef structure
 848:Drivers/STM32U5xx_HAL_Driver/Src/stm32u5xx_hal_flash_ex.c ****   *                 that contains the Flash operation information.
 849:Drivers/STM32U5xx_HAL_Driver/Src/stm32u5xx_hal_flash_ex.c ****   *
 850:Drivers/STM32U5xx_HAL_Driver/Src/stm32u5xx_hal_flash_ex.c ****   * @retval None
 851:Drivers/STM32U5xx_HAL_Driver/Src/stm32u5xx_hal_flash_ex.c ****   */
 852:Drivers/STM32U5xx_HAL_Driver/Src/stm32u5xx_hal_flash_ex.c **** void HAL_FLASHEx_GetOperation(FLASH_OperationTypeDef *pFlashOperation)
 853:Drivers/STM32U5xx_HAL_Driver/Src/stm32u5xx_hal_flash_ex.c **** {
 854:Drivers/STM32U5xx_HAL_Driver/Src/stm32u5xx_hal_flash_ex.c ****   uint32_t opsr_reg = FLASH->OPSR;
 855:Drivers/STM32U5xx_HAL_Driver/Src/stm32u5xx_hal_flash_ex.c **** 
 856:Drivers/STM32U5xx_HAL_Driver/Src/stm32u5xx_hal_flash_ex.c ****   /* Get Flash operation Type */
 857:Drivers/STM32U5xx_HAL_Driver/Src/stm32u5xx_hal_flash_ex.c ****   pFlashOperation->OperationType = opsr_reg & FLASH_OPSR_CODE_OP;
 858:Drivers/STM32U5xx_HAL_Driver/Src/stm32u5xx_hal_flash_ex.c **** 
 859:Drivers/STM32U5xx_HAL_Driver/Src/stm32u5xx_hal_flash_ex.c ****   /* Get Flash operation memory */
 860:Drivers/STM32U5xx_HAL_Driver/Src/stm32u5xx_hal_flash_ex.c ****   pFlashOperation->FlashArea = opsr_reg & (FLASH_OPSR_SYSF_OP | FLASH_OPSR_BK_OP);
 861:Drivers/STM32U5xx_HAL_Driver/Src/stm32u5xx_hal_flash_ex.c **** 
 862:Drivers/STM32U5xx_HAL_Driver/Src/stm32u5xx_hal_flash_ex.c ****   /* Get Flash operation address */
 863:Drivers/STM32U5xx_HAL_Driver/Src/stm32u5xx_hal_flash_ex.c ****   pFlashOperation->Address = opsr_reg & FLASH_OPSR_ADDR_OP;
 864:Drivers/STM32U5xx_HAL_Driver/Src/stm32u5xx_hal_flash_ex.c **** }
 865:Drivers/STM32U5xx_HAL_Driver/Src/stm32u5xx_hal_flash_ex.c **** 
 866:Drivers/STM32U5xx_HAL_Driver/Src/stm32u5xx_hal_flash_ex.c **** /**
 867:Drivers/STM32U5xx_HAL_Driver/Src/stm32u5xx_hal_flash_ex.c ****   * @}
 868:Drivers/STM32U5xx_HAL_Driver/Src/stm32u5xx_hal_flash_ex.c ****   */
 869:Drivers/STM32U5xx_HAL_Driver/Src/stm32u5xx_hal_flash_ex.c **** 
 870:Drivers/STM32U5xx_HAL_Driver/Src/stm32u5xx_hal_flash_ex.c **** /**
 871:Drivers/STM32U5xx_HAL_Driver/Src/stm32u5xx_hal_flash_ex.c ****   * @}
 872:Drivers/STM32U5xx_HAL_Driver/Src/stm32u5xx_hal_flash_ex.c ****   */
 873:Drivers/STM32U5xx_HAL_Driver/Src/stm32u5xx_hal_flash_ex.c **** 
 874:Drivers/STM32U5xx_HAL_Driver/Src/stm32u5xx_hal_flash_ex.c **** /* Private functions ---------------------------------------------------------*/
 875:Drivers/STM32U5xx_HAL_Driver/Src/stm32u5xx_hal_flash_ex.c **** 
 876:Drivers/STM32U5xx_HAL_Driver/Src/stm32u5xx_hal_flash_ex.c **** /** @addtogroup FLASHEx_Private_Functions
 877:Drivers/STM32U5xx_HAL_Driver/Src/stm32u5xx_hal_flash_ex.c ****   * @{
 878:Drivers/STM32U5xx_HAL_Driver/Src/stm32u5xx_hal_flash_ex.c ****   */
 879:Drivers/STM32U5xx_HAL_Driver/Src/stm32u5xx_hal_flash_ex.c **** /**
 880:Drivers/STM32U5xx_HAL_Driver/Src/stm32u5xx_hal_flash_ex.c ****   * @brief  Mass erase of FLASH memory.
 881:Drivers/STM32U5xx_HAL_Driver/Src/stm32u5xx_hal_flash_ex.c ****   * @param  Banks Banks to be erased
 882:Drivers/STM32U5xx_HAL_Driver/Src/stm32u5xx_hal_flash_ex.c ****   *          This parameter can be one of the following values:
 883:Drivers/STM32U5xx_HAL_Driver/Src/stm32u5xx_hal_flash_ex.c ****   *            @arg FLASH_BANK_1: Bank1 to be erased
 884:Drivers/STM32U5xx_HAL_Driver/Src/stm32u5xx_hal_flash_ex.c ****   *            @arg FLASH_BANK_2: Bank2 to be erased
ARM GAS  /tmp/ccudYRdF.s 			page 17


 885:Drivers/STM32U5xx_HAL_Driver/Src/stm32u5xx_hal_flash_ex.c ****   *            @arg FLASH_BANK_BOTH: Bank1 and Bank2 to be erased
 886:Drivers/STM32U5xx_HAL_Driver/Src/stm32u5xx_hal_flash_ex.c ****   * @retval None
 887:Drivers/STM32U5xx_HAL_Driver/Src/stm32u5xx_hal_flash_ex.c ****   */
 888:Drivers/STM32U5xx_HAL_Driver/Src/stm32u5xx_hal_flash_ex.c **** static void FLASH_MassErase(uint32_t Banks)
 889:Drivers/STM32U5xx_HAL_Driver/Src/stm32u5xx_hal_flash_ex.c **** {
  30              		.loc 1 889 1 view -0
  31              		.cfi_startproc
  32              		@ args = 0, pretend = 0, frame = 0
  33              		@ frame_needed = 0, uses_anonymous_args = 0
  34              		@ link register save eliminated.
 890:Drivers/STM32U5xx_HAL_Driver/Src/stm32u5xx_hal_flash_ex.c ****   __IO uint32_t *reg_cr;
  35              		.loc 1 890 3 view .LVU1
 891:Drivers/STM32U5xx_HAL_Driver/Src/stm32u5xx_hal_flash_ex.c **** 
 892:Drivers/STM32U5xx_HAL_Driver/Src/stm32u5xx_hal_flash_ex.c ****   /* Check the parameters */
 893:Drivers/STM32U5xx_HAL_Driver/Src/stm32u5xx_hal_flash_ex.c ****   assert_param(IS_FLASH_BANK(Banks));
  36              		.loc 1 893 3 view .LVU2
 894:Drivers/STM32U5xx_HAL_Driver/Src/stm32u5xx_hal_flash_ex.c **** 
 895:Drivers/STM32U5xx_HAL_Driver/Src/stm32u5xx_hal_flash_ex.c ****   /* Access to SECCR or NSCR registers depends on operation type */
 896:Drivers/STM32U5xx_HAL_Driver/Src/stm32u5xx_hal_flash_ex.c ****   reg_cr = IS_FLASH_SECURE_OPERATION() ? &(FLASH->SECCR) : &(FLASH_NS->NSCR);
  37              		.loc 1 896 3 view .LVU3
 897:Drivers/STM32U5xx_HAL_Driver/Src/stm32u5xx_hal_flash_ex.c **** 
 898:Drivers/STM32U5xx_HAL_Driver/Src/stm32u5xx_hal_flash_ex.c ****   /* Set the Mass Erase Bit for the bank 1 and proceed to erase */
 899:Drivers/STM32U5xx_HAL_Driver/Src/stm32u5xx_hal_flash_ex.c ****   if ((Banks & FLASH_BANK_1) != 0U)
  38              		.loc 1 899 3 view .LVU4
  39              		.loc 1 899 6 is_stmt 0 view .LVU5
  40 0000 10F0010F 		tst	r0, #1
  41 0004 06D0     		beq	.L2
 900:Drivers/STM32U5xx_HAL_Driver/Src/stm32u5xx_hal_flash_ex.c ****   {
 901:Drivers/STM32U5xx_HAL_Driver/Src/stm32u5xx_hal_flash_ex.c ****     SET_BIT((*reg_cr), FLASH_NSCR_MER1 | FLASH_NSCR_STRT);
  42              		.loc 1 901 5 is_stmt 1 view .LVU6
  43 0006 084A     		ldr	r2, .L4
  44 0008 936A     		ldr	r3, [r2, #40]
  45 000a 43F48033 		orr	r3, r3, #65536
  46 000e 43F00403 		orr	r3, r3, #4
  47 0012 9362     		str	r3, [r2, #40]
  48              	.L2:
 902:Drivers/STM32U5xx_HAL_Driver/Src/stm32u5xx_hal_flash_ex.c ****   }
 903:Drivers/STM32U5xx_HAL_Driver/Src/stm32u5xx_hal_flash_ex.c **** 
 904:Drivers/STM32U5xx_HAL_Driver/Src/stm32u5xx_hal_flash_ex.c ****   /* Set the Mass Erase Bit for the bank 2 and proceed to erase */
 905:Drivers/STM32U5xx_HAL_Driver/Src/stm32u5xx_hal_flash_ex.c ****   if ((Banks & FLASH_BANK_2) != 0U)
  49              		.loc 1 905 3 view .LVU7
  50              		.loc 1 905 6 is_stmt 0 view .LVU8
  51 0014 10F0020F 		tst	r0, #2
  52 0018 04D0     		beq	.L1
 906:Drivers/STM32U5xx_HAL_Driver/Src/stm32u5xx_hal_flash_ex.c ****   {
 907:Drivers/STM32U5xx_HAL_Driver/Src/stm32u5xx_hal_flash_ex.c ****     SET_BIT((*reg_cr), FLASH_NSCR_MER2 | FLASH_NSCR_STRT);
  53              		.loc 1 907 5 is_stmt 1 view .LVU9
  54 001a 034A     		ldr	r2, .L4
  55 001c 936A     		ldr	r3, [r2, #40]
  56 001e 43F4C033 		orr	r3, r3, #98304
  57 0022 9362     		str	r3, [r2, #40]
  58              	.L1:
 908:Drivers/STM32U5xx_HAL_Driver/Src/stm32u5xx_hal_flash_ex.c ****   }
 909:Drivers/STM32U5xx_HAL_Driver/Src/stm32u5xx_hal_flash_ex.c **** }
  59              		.loc 1 909 1 is_stmt 0 view .LVU10
  60 0024 7047     		bx	lr
  61              	.L5:
ARM GAS  /tmp/ccudYRdF.s 			page 18


  62 0026 00BF     		.align	2
  63              	.L4:
  64 0028 00200240 		.word	1073881088
  65              		.cfi_endproc
  66              	.LFE357:
  68              		.section	.text.FLASH_OB_WRPConfig,"ax",%progbits
  69              		.align	1
  70              		.syntax unified
  71              		.thumb
  72              		.thumb_func
  74              	FLASH_OB_WRPConfig:
  75              	.LVL1:
  76              	.LFB359:
 910:Drivers/STM32U5xx_HAL_Driver/Src/stm32u5xx_hal_flash_ex.c **** 
 911:Drivers/STM32U5xx_HAL_Driver/Src/stm32u5xx_hal_flash_ex.c **** /**
 912:Drivers/STM32U5xx_HAL_Driver/Src/stm32u5xx_hal_flash_ex.c ****   * @brief  Erase the specified FLASH memory page.
 913:Drivers/STM32U5xx_HAL_Driver/Src/stm32u5xx_hal_flash_ex.c ****   * @param  Page FLASH page to erase
 914:Drivers/STM32U5xx_HAL_Driver/Src/stm32u5xx_hal_flash_ex.c ****   *         This parameter must be a value between 0 and (max number of pages in the bank - 1)
 915:Drivers/STM32U5xx_HAL_Driver/Src/stm32u5xx_hal_flash_ex.c ****   * @param  Banks Bank(s) where the page will be erased
 916:Drivers/STM32U5xx_HAL_Driver/Src/stm32u5xx_hal_flash_ex.c ****   *          This parameter can be one of the following values:
 917:Drivers/STM32U5xx_HAL_Driver/Src/stm32u5xx_hal_flash_ex.c ****   *            @arg FLASH_BANK_1: Page in bank 1 to be erased
 918:Drivers/STM32U5xx_HAL_Driver/Src/stm32u5xx_hal_flash_ex.c ****   *            @arg FLASH_BANK_2: Page in bank 2 to be erased
 919:Drivers/STM32U5xx_HAL_Driver/Src/stm32u5xx_hal_flash_ex.c ****   * @retval None
 920:Drivers/STM32U5xx_HAL_Driver/Src/stm32u5xx_hal_flash_ex.c ****   */
 921:Drivers/STM32U5xx_HAL_Driver/Src/stm32u5xx_hal_flash_ex.c **** void FLASH_PageErase(uint32_t Page, uint32_t Banks)
 922:Drivers/STM32U5xx_HAL_Driver/Src/stm32u5xx_hal_flash_ex.c **** {
 923:Drivers/STM32U5xx_HAL_Driver/Src/stm32u5xx_hal_flash_ex.c ****   __IO uint32_t *reg_cr;
 924:Drivers/STM32U5xx_HAL_Driver/Src/stm32u5xx_hal_flash_ex.c **** 
 925:Drivers/STM32U5xx_HAL_Driver/Src/stm32u5xx_hal_flash_ex.c ****   /* Check the parameters */
 926:Drivers/STM32U5xx_HAL_Driver/Src/stm32u5xx_hal_flash_ex.c ****   assert_param(IS_FLASH_PAGE(Page));
 927:Drivers/STM32U5xx_HAL_Driver/Src/stm32u5xx_hal_flash_ex.c ****   assert_param(IS_FLASH_BANK_EXCLUSIVE(Banks));
 928:Drivers/STM32U5xx_HAL_Driver/Src/stm32u5xx_hal_flash_ex.c **** 
 929:Drivers/STM32U5xx_HAL_Driver/Src/stm32u5xx_hal_flash_ex.c ****   /* Access to SECCR or NSCR registers depends on operation type */
 930:Drivers/STM32U5xx_HAL_Driver/Src/stm32u5xx_hal_flash_ex.c ****   reg_cr = IS_FLASH_SECURE_OPERATION() ? &(FLASH->SECCR) : &(FLASH_NS->NSCR);
 931:Drivers/STM32U5xx_HAL_Driver/Src/stm32u5xx_hal_flash_ex.c **** 
 932:Drivers/STM32U5xx_HAL_Driver/Src/stm32u5xx_hal_flash_ex.c ****   if ((Banks & FLASH_BANK_1) != 0U)
 933:Drivers/STM32U5xx_HAL_Driver/Src/stm32u5xx_hal_flash_ex.c ****   {
 934:Drivers/STM32U5xx_HAL_Driver/Src/stm32u5xx_hal_flash_ex.c ****     CLEAR_BIT((*reg_cr), FLASH_NSCR_BKER);
 935:Drivers/STM32U5xx_HAL_Driver/Src/stm32u5xx_hal_flash_ex.c ****   }
 936:Drivers/STM32U5xx_HAL_Driver/Src/stm32u5xx_hal_flash_ex.c ****   else
 937:Drivers/STM32U5xx_HAL_Driver/Src/stm32u5xx_hal_flash_ex.c ****   {
 938:Drivers/STM32U5xx_HAL_Driver/Src/stm32u5xx_hal_flash_ex.c ****     SET_BIT((*reg_cr), FLASH_NSCR_BKER);
 939:Drivers/STM32U5xx_HAL_Driver/Src/stm32u5xx_hal_flash_ex.c ****   }
 940:Drivers/STM32U5xx_HAL_Driver/Src/stm32u5xx_hal_flash_ex.c **** 
 941:Drivers/STM32U5xx_HAL_Driver/Src/stm32u5xx_hal_flash_ex.c ****   /* Proceed to erase the page */
 942:Drivers/STM32U5xx_HAL_Driver/Src/stm32u5xx_hal_flash_ex.c ****   MODIFY_REG((*reg_cr), (FLASH_NSCR_PNB | FLASH_NSCR_PER | FLASH_NSCR_STRT), \
 943:Drivers/STM32U5xx_HAL_Driver/Src/stm32u5xx_hal_flash_ex.c ****              ((Page << FLASH_NSCR_PNB_Pos) | FLASH_NSCR_PER | FLASH_NSCR_STRT));
 944:Drivers/STM32U5xx_HAL_Driver/Src/stm32u5xx_hal_flash_ex.c **** }
 945:Drivers/STM32U5xx_HAL_Driver/Src/stm32u5xx_hal_flash_ex.c **** 
 946:Drivers/STM32U5xx_HAL_Driver/Src/stm32u5xx_hal_flash_ex.c **** /**
 947:Drivers/STM32U5xx_HAL_Driver/Src/stm32u5xx_hal_flash_ex.c ****   * @brief  Configure the write protection of the desired pages.
 948:Drivers/STM32U5xx_HAL_Driver/Src/stm32u5xx_hal_flash_ex.c ****   *
 949:Drivers/STM32U5xx_HAL_Driver/Src/stm32u5xx_hal_flash_ex.c ****   * @note   When the memory read protection level is selected (RDP level = 1),
 950:Drivers/STM32U5xx_HAL_Driver/Src/stm32u5xx_hal_flash_ex.c ****   *         it is not possible to program or erase Flash memory if the CPU debug
 951:Drivers/STM32U5xx_HAL_Driver/Src/stm32u5xx_hal_flash_ex.c ****   *         features are connected (JTAG or single wire) or boot code is being
 952:Drivers/STM32U5xx_HAL_Driver/Src/stm32u5xx_hal_flash_ex.c ****   *         executed from RAM or System flash, even if WRP is not activated.
 953:Drivers/STM32U5xx_HAL_Driver/Src/stm32u5xx_hal_flash_ex.c ****   * @note   To configure the WRP options, the option lock bit OPTLOCK must be
ARM GAS  /tmp/ccudYRdF.s 			page 19


 954:Drivers/STM32U5xx_HAL_Driver/Src/stm32u5xx_hal_flash_ex.c ****   *         cleared with the call of the HAL_FLASH_OB_Unlock() function.
 955:Drivers/STM32U5xx_HAL_Driver/Src/stm32u5xx_hal_flash_ex.c ****   * @note   To validate the WRP options, the option bytes must be reloaded
 956:Drivers/STM32U5xx_HAL_Driver/Src/stm32u5xx_hal_flash_ex.c ****   *         through the call of the HAL_FLASH_OB_Launch() function.
 957:Drivers/STM32U5xx_HAL_Driver/Src/stm32u5xx_hal_flash_ex.c ****   *
 958:Drivers/STM32U5xx_HAL_Driver/Src/stm32u5xx_hal_flash_ex.c ****   * @param  WRPArea specifies the area to be configured.
 959:Drivers/STM32U5xx_HAL_Driver/Src/stm32u5xx_hal_flash_ex.c ****   *          This parameter can be one of the following values:
 960:Drivers/STM32U5xx_HAL_Driver/Src/stm32u5xx_hal_flash_ex.c ****   *            @arg OB_WRPAREA_BANK1_AREAA: Flash Bank 1 Area A
 961:Drivers/STM32U5xx_HAL_Driver/Src/stm32u5xx_hal_flash_ex.c ****   *            @arg OB_WRPAREA_BANK1_AREAB: Flash Bank 1 Area B
 962:Drivers/STM32U5xx_HAL_Driver/Src/stm32u5xx_hal_flash_ex.c ****   *            @arg OB_WRPAREA_BANK2_AREAA: Flash Bank 2 Area A
 963:Drivers/STM32U5xx_HAL_Driver/Src/stm32u5xx_hal_flash_ex.c ****   *            @arg OB_WRPAREA_BANK2_AREAB: Flash Bank 2 Area B
 964:Drivers/STM32U5xx_HAL_Driver/Src/stm32u5xx_hal_flash_ex.c ****   *
 965:Drivers/STM32U5xx_HAL_Driver/Src/stm32u5xx_hal_flash_ex.c ****   * @param  WRPStartOffset specifies the start page of the write protected area
 966:Drivers/STM32U5xx_HAL_Driver/Src/stm32u5xx_hal_flash_ex.c ****   *          This parameter can be page number between 0 and (max number of pages in the bank - 1)
 967:Drivers/STM32U5xx_HAL_Driver/Src/stm32u5xx_hal_flash_ex.c ****   *
 968:Drivers/STM32U5xx_HAL_Driver/Src/stm32u5xx_hal_flash_ex.c ****   * @param  WRPEndOffset specifies the end page of the write protected area
 969:Drivers/STM32U5xx_HAL_Driver/Src/stm32u5xx_hal_flash_ex.c ****   *          This parameter can be page number between WRPStartOffset and (max number of pages in t
 970:Drivers/STM32U5xx_HAL_Driver/Src/stm32u5xx_hal_flash_ex.c ****   *
 971:Drivers/STM32U5xx_HAL_Driver/Src/stm32u5xx_hal_flash_ex.c ****   * @param  WRPLock enables the lock of the write protected area
 972:Drivers/STM32U5xx_HAL_Driver/Src/stm32u5xx_hal_flash_ex.c ****   *          This parameter can be set to ENABLE or DISABLE
 973:Drivers/STM32U5xx_HAL_Driver/Src/stm32u5xx_hal_flash_ex.c ****   *
 974:Drivers/STM32U5xx_HAL_Driver/Src/stm32u5xx_hal_flash_ex.c ****   * @retval None
 975:Drivers/STM32U5xx_HAL_Driver/Src/stm32u5xx_hal_flash_ex.c ****   */
 976:Drivers/STM32U5xx_HAL_Driver/Src/stm32u5xx_hal_flash_ex.c **** static void FLASH_OB_WRPConfig(uint32_t WRPArea, uint32_t WRPStartOffset, uint32_t WRPEndOffset,
 977:Drivers/STM32U5xx_HAL_Driver/Src/stm32u5xx_hal_flash_ex.c ****                                FunctionalState WRPLock)
 978:Drivers/STM32U5xx_HAL_Driver/Src/stm32u5xx_hal_flash_ex.c **** {
  77              		.loc 1 978 1 is_stmt 1 view -0
  78              		.cfi_startproc
  79              		@ args = 0, pretend = 0, frame = 0
  80              		@ frame_needed = 0, uses_anonymous_args = 0
  81              		@ link register save eliminated.
 979:Drivers/STM32U5xx_HAL_Driver/Src/stm32u5xx_hal_flash_ex.c ****   /* Check the parameters */
 980:Drivers/STM32U5xx_HAL_Driver/Src/stm32u5xx_hal_flash_ex.c ****   assert_param(IS_OB_WRPAREA(WRPArea));
  82              		.loc 1 980 3 view .LVU12
 981:Drivers/STM32U5xx_HAL_Driver/Src/stm32u5xx_hal_flash_ex.c ****   assert_param(IS_FLASH_PAGE(WRPStartOffset));
  83              		.loc 1 981 3 view .LVU13
 982:Drivers/STM32U5xx_HAL_Driver/Src/stm32u5xx_hal_flash_ex.c ****   assert_param(IS_FLASH_PAGE(WRPEndOffset));
  84              		.loc 1 982 3 view .LVU14
 983:Drivers/STM32U5xx_HAL_Driver/Src/stm32u5xx_hal_flash_ex.c ****   assert_param(IS_FUNCTIONAL_STATE(WRPLock));
  85              		.loc 1 983 3 view .LVU15
 984:Drivers/STM32U5xx_HAL_Driver/Src/stm32u5xx_hal_flash_ex.c **** 
 985:Drivers/STM32U5xx_HAL_Driver/Src/stm32u5xx_hal_flash_ex.c ****   /* Configure the write protected area */
 986:Drivers/STM32U5xx_HAL_Driver/Src/stm32u5xx_hal_flash_ex.c ****   if (WRPArea == OB_WRPAREA_BANK1_AREAA)
  86              		.loc 1 986 3 view .LVU16
  87              		.loc 1 986 6 is_stmt 0 view .LVU17
  88 0000 0128     		cmp	r0, #1
  89 0002 06D0     		beq	.L11
 987:Drivers/STM32U5xx_HAL_Driver/Src/stm32u5xx_hal_flash_ex.c ****   {
 988:Drivers/STM32U5xx_HAL_Driver/Src/stm32u5xx_hal_flash_ex.c ****     FLASH->WRP1AR = (((uint32_t)(~WRPLock) << FLASH_WRP1AR_UNLOCK_Pos)       | \
 989:Drivers/STM32U5xx_HAL_Driver/Src/stm32u5xx_hal_flash_ex.c ****                      (WRPEndOffset << FLASH_WRP1AR_WRP1A_PEND_Pos) | \
 990:Drivers/STM32U5xx_HAL_Driver/Src/stm32u5xx_hal_flash_ex.c ****                      WRPStartOffset);
 991:Drivers/STM32U5xx_HAL_Driver/Src/stm32u5xx_hal_flash_ex.c ****   }
 992:Drivers/STM32U5xx_HAL_Driver/Src/stm32u5xx_hal_flash_ex.c ****   else if (WRPArea == OB_WRPAREA_BANK1_AREAB)
  90              		.loc 1 992 8 is_stmt 1 view .LVU18
  91              		.loc 1 992 11 is_stmt 0 view .LVU19
  92 0004 0228     		cmp	r0, #2
  93 0006 0CD0     		beq	.L12
 993:Drivers/STM32U5xx_HAL_Driver/Src/stm32u5xx_hal_flash_ex.c ****   {
ARM GAS  /tmp/ccudYRdF.s 			page 20


 994:Drivers/STM32U5xx_HAL_Driver/Src/stm32u5xx_hal_flash_ex.c ****     FLASH->WRP1BR = (((uint32_t)(~WRPLock) << FLASH_WRP1BR_UNLOCK_Pos)       | \
 995:Drivers/STM32U5xx_HAL_Driver/Src/stm32u5xx_hal_flash_ex.c ****                      (WRPEndOffset << FLASH_WRP1BR_WRP1B_PEND_Pos) | \
 996:Drivers/STM32U5xx_HAL_Driver/Src/stm32u5xx_hal_flash_ex.c ****                      WRPStartOffset);
 997:Drivers/STM32U5xx_HAL_Driver/Src/stm32u5xx_hal_flash_ex.c ****   }
 998:Drivers/STM32U5xx_HAL_Driver/Src/stm32u5xx_hal_flash_ex.c ****   else if (WRPArea == OB_WRPAREA_BANK2_AREAA)
  94              		.loc 1 998 8 is_stmt 1 view .LVU20
  95              		.loc 1 998 11 is_stmt 0 view .LVU21
  96 0008 0428     		cmp	r0, #4
  97 000a 12D0     		beq	.L13
 999:Drivers/STM32U5xx_HAL_Driver/Src/stm32u5xx_hal_flash_ex.c ****   {
1000:Drivers/STM32U5xx_HAL_Driver/Src/stm32u5xx_hal_flash_ex.c ****     FLASH->WRP2AR = (((uint32_t)(~WRPLock) << FLASH_WRP2AR_UNLOCK_Pos)       | \
1001:Drivers/STM32U5xx_HAL_Driver/Src/stm32u5xx_hal_flash_ex.c ****                      (WRPEndOffset << FLASH_WRP2AR_WRP2A_PEND_Pos) | \
1002:Drivers/STM32U5xx_HAL_Driver/Src/stm32u5xx_hal_flash_ex.c ****                      WRPStartOffset);
1003:Drivers/STM32U5xx_HAL_Driver/Src/stm32u5xx_hal_flash_ex.c ****   }
1004:Drivers/STM32U5xx_HAL_Driver/Src/stm32u5xx_hal_flash_ex.c ****   else if (WRPArea == OB_WRPAREA_BANK2_AREAB)
  98              		.loc 1 1004 8 is_stmt 1 view .LVU22
  99              		.loc 1 1004 11 is_stmt 0 view .LVU23
 100 000c 0828     		cmp	r0, #8
 101 000e 18D0     		beq	.L14
 102              	.LVL2:
 103              	.L6:
1005:Drivers/STM32U5xx_HAL_Driver/Src/stm32u5xx_hal_flash_ex.c ****   {
1006:Drivers/STM32U5xx_HAL_Driver/Src/stm32u5xx_hal_flash_ex.c ****     FLASH->WRP2BR = (((uint32_t)(~WRPLock) << FLASH_WRP2BR_UNLOCK_Pos)       | \
1007:Drivers/STM32U5xx_HAL_Driver/Src/stm32u5xx_hal_flash_ex.c ****                      (WRPEndOffset << FLASH_WRP2BR_WRP2B_PEND_Pos) | \
1008:Drivers/STM32U5xx_HAL_Driver/Src/stm32u5xx_hal_flash_ex.c ****                      WRPStartOffset);
1009:Drivers/STM32U5xx_HAL_Driver/Src/stm32u5xx_hal_flash_ex.c ****   }
1010:Drivers/STM32U5xx_HAL_Driver/Src/stm32u5xx_hal_flash_ex.c ****   else
1011:Drivers/STM32U5xx_HAL_Driver/Src/stm32u5xx_hal_flash_ex.c ****   {
1012:Drivers/STM32U5xx_HAL_Driver/Src/stm32u5xx_hal_flash_ex.c ****     /* Empty statement (to be compliant MISRA 15.7) */
1013:Drivers/STM32U5xx_HAL_Driver/Src/stm32u5xx_hal_flash_ex.c ****   }
1014:Drivers/STM32U5xx_HAL_Driver/Src/stm32u5xx_hal_flash_ex.c **** }
 104              		.loc 1 1014 1 view .LVU24
 105 0010 7047     		bx	lr
 106              	.LVL3:
 107              	.L11:
 988:Drivers/STM32U5xx_HAL_Driver/Src/stm32u5xx_hal_flash_ex.c ****                      (WRPEndOffset << FLASH_WRP1AR_WRP1A_PEND_Pos) | \
 108              		.loc 1 988 5 is_stmt 1 view .LVU25
 988:Drivers/STM32U5xx_HAL_Driver/Src/stm32u5xx_hal_flash_ex.c ****                      (WRPEndOffset << FLASH_WRP1AR_WRP1A_PEND_Pos) | \
 109              		.loc 1 988 34 is_stmt 0 view .LVU26
 110 0012 DB43     		mvns	r3, r3
 111              	.LVL4:
 989:Drivers/STM32U5xx_HAL_Driver/Src/stm32u5xx_hal_flash_ex.c ****                      WRPStartOffset);
 112              		.loc 1 989 36 view .LVU27
 113 0014 1204     		lsls	r2, r2, #16
 114              	.LVL5:
 988:Drivers/STM32U5xx_HAL_Driver/Src/stm32u5xx_hal_flash_ex.c ****                      (WRPEndOffset << FLASH_WRP1AR_WRP1A_PEND_Pos) | \
 115              		.loc 1 988 78 view .LVU28
 116 0016 42EAC372 		orr	r2, r2, r3, lsl #31
 989:Drivers/STM32U5xx_HAL_Driver/Src/stm32u5xx_hal_flash_ex.c ****                      WRPStartOffset);
 117              		.loc 1 989 68 view .LVU29
 118 001a 0A43     		orrs	r2, r2, r1
 988:Drivers/STM32U5xx_HAL_Driver/Src/stm32u5xx_hal_flash_ex.c ****                      (WRPEndOffset << FLASH_WRP1AR_WRP1A_PEND_Pos) | \
 119              		.loc 1 988 19 view .LVU30
 120 001c 0D4B     		ldr	r3, .L15
 121 001e 9A65     		str	r2, [r3, #88]
 122 0020 7047     		bx	lr
 123              	.LVL6:
ARM GAS  /tmp/ccudYRdF.s 			page 21


 124              	.L12:
 994:Drivers/STM32U5xx_HAL_Driver/Src/stm32u5xx_hal_flash_ex.c ****                      (WRPEndOffset << FLASH_WRP1BR_WRP1B_PEND_Pos) | \
 125              		.loc 1 994 5 is_stmt 1 view .LVU31
 994:Drivers/STM32U5xx_HAL_Driver/Src/stm32u5xx_hal_flash_ex.c ****                      (WRPEndOffset << FLASH_WRP1BR_WRP1B_PEND_Pos) | \
 126              		.loc 1 994 34 is_stmt 0 view .LVU32
 127 0022 DB43     		mvns	r3, r3
 128              	.LVL7:
 995:Drivers/STM32U5xx_HAL_Driver/Src/stm32u5xx_hal_flash_ex.c ****                      WRPStartOffset);
 129              		.loc 1 995 36 view .LVU33
 130 0024 1204     		lsls	r2, r2, #16
 131              	.LVL8:
 994:Drivers/STM32U5xx_HAL_Driver/Src/stm32u5xx_hal_flash_ex.c ****                      (WRPEndOffset << FLASH_WRP1BR_WRP1B_PEND_Pos) | \
 132              		.loc 1 994 78 view .LVU34
 133 0026 42EAC373 		orr	r3, r2, r3, lsl #31
 995:Drivers/STM32U5xx_HAL_Driver/Src/stm32u5xx_hal_flash_ex.c ****                      WRPStartOffset);
 134              		.loc 1 995 68 view .LVU35
 135 002a 1943     		orrs	r1, r1, r3
 136              	.LVL9:
 994:Drivers/STM32U5xx_HAL_Driver/Src/stm32u5xx_hal_flash_ex.c ****                      (WRPEndOffset << FLASH_WRP1BR_WRP1B_PEND_Pos) | \
 137              		.loc 1 994 19 view .LVU36
 138 002c 094B     		ldr	r3, .L15
 139 002e D965     		str	r1, [r3, #92]
 140 0030 7047     		bx	lr
 141              	.LVL10:
 142              	.L13:
1000:Drivers/STM32U5xx_HAL_Driver/Src/stm32u5xx_hal_flash_ex.c ****                      (WRPEndOffset << FLASH_WRP2AR_WRP2A_PEND_Pos) | \
 143              		.loc 1 1000 5 is_stmt 1 view .LVU37
1000:Drivers/STM32U5xx_HAL_Driver/Src/stm32u5xx_hal_flash_ex.c ****                      (WRPEndOffset << FLASH_WRP2AR_WRP2A_PEND_Pos) | \
 144              		.loc 1 1000 34 is_stmt 0 view .LVU38
 145 0032 D843     		mvns	r0, r3
 146              	.LVL11:
1001:Drivers/STM32U5xx_HAL_Driver/Src/stm32u5xx_hal_flash_ex.c ****                      WRPStartOffset);
 147              		.loc 1 1001 36 view .LVU39
 148 0034 1304     		lsls	r3, r2, #16
 149              	.LVL12:
1000:Drivers/STM32U5xx_HAL_Driver/Src/stm32u5xx_hal_flash_ex.c ****                      (WRPEndOffset << FLASH_WRP2AR_WRP2A_PEND_Pos) | \
 150              		.loc 1 1000 78 view .LVU40
 151 0036 43EAC073 		orr	r3, r3, r0, lsl #31
1001:Drivers/STM32U5xx_HAL_Driver/Src/stm32u5xx_hal_flash_ex.c ****                      WRPStartOffset);
 152              		.loc 1 1001 68 view .LVU41
 153 003a 1943     		orrs	r1, r1, r3
 154              	.LVL13:
1000:Drivers/STM32U5xx_HAL_Driver/Src/stm32u5xx_hal_flash_ex.c ****                      (WRPEndOffset << FLASH_WRP2AR_WRP2A_PEND_Pos) | \
 155              		.loc 1 1000 19 view .LVU42
 156 003c 054B     		ldr	r3, .L15
 157 003e 9966     		str	r1, [r3, #104]
 158 0040 7047     		bx	lr
 159              	.LVL14:
 160              	.L14:
1006:Drivers/STM32U5xx_HAL_Driver/Src/stm32u5xx_hal_flash_ex.c ****                      (WRPEndOffset << FLASH_WRP2BR_WRP2B_PEND_Pos) | \
 161              		.loc 1 1006 5 is_stmt 1 view .LVU43
1006:Drivers/STM32U5xx_HAL_Driver/Src/stm32u5xx_hal_flash_ex.c ****                      (WRPEndOffset << FLASH_WRP2BR_WRP2B_PEND_Pos) | \
 162              		.loc 1 1006 34 is_stmt 0 view .LVU44
 163 0042 D843     		mvns	r0, r3
 164              	.LVL15:
1007:Drivers/STM32U5xx_HAL_Driver/Src/stm32u5xx_hal_flash_ex.c ****                      WRPStartOffset);
 165              		.loc 1 1007 36 view .LVU45
ARM GAS  /tmp/ccudYRdF.s 			page 22


 166 0044 1304     		lsls	r3, r2, #16
 167              	.LVL16:
1006:Drivers/STM32U5xx_HAL_Driver/Src/stm32u5xx_hal_flash_ex.c ****                      (WRPEndOffset << FLASH_WRP2BR_WRP2B_PEND_Pos) | \
 168              		.loc 1 1006 78 view .LVU46
 169 0046 43EAC073 		orr	r3, r3, r0, lsl #31
1007:Drivers/STM32U5xx_HAL_Driver/Src/stm32u5xx_hal_flash_ex.c ****                      WRPStartOffset);
 170              		.loc 1 1007 68 view .LVU47
 171 004a 1943     		orrs	r1, r1, r3
 172              	.LVL17:
1006:Drivers/STM32U5xx_HAL_Driver/Src/stm32u5xx_hal_flash_ex.c ****                      (WRPEndOffset << FLASH_WRP2BR_WRP2B_PEND_Pos) | \
 173              		.loc 1 1006 19 view .LVU48
 174 004c 014B     		ldr	r3, .L15
 175 004e D966     		str	r1, [r3, #108]
1013:Drivers/STM32U5xx_HAL_Driver/Src/stm32u5xx_hal_flash_ex.c **** }
 176              		.loc 1 1013 3 is_stmt 1 view .LVU49
 177              		.loc 1 1014 1 is_stmt 0 view .LVU50
 178 0050 DEE7     		b	.L6
 179              	.L16:
 180 0052 00BF     		.align	2
 181              	.L15:
 182 0054 00200240 		.word	1073881088
 183              		.cfi_endproc
 184              	.LFE359:
 186              		.section	.text.FLASH_OB_RDPConfig,"ax",%progbits
 187              		.align	1
 188              		.syntax unified
 189              		.thumb
 190              		.thumb_func
 192              	FLASH_OB_RDPConfig:
 193              	.LVL18:
 194              	.LFB360:
1015:Drivers/STM32U5xx_HAL_Driver/Src/stm32u5xx_hal_flash_ex.c **** 
1016:Drivers/STM32U5xx_HAL_Driver/Src/stm32u5xx_hal_flash_ex.c **** /**
1017:Drivers/STM32U5xx_HAL_Driver/Src/stm32u5xx_hal_flash_ex.c ****   * @brief  Set the read protection level.
1018:Drivers/STM32U5xx_HAL_Driver/Src/stm32u5xx_hal_flash_ex.c ****   *
1019:Drivers/STM32U5xx_HAL_Driver/Src/stm32u5xx_hal_flash_ex.c ****   * @note   To configure the RDP level, the option lock bit OPTLOCK must be
1020:Drivers/STM32U5xx_HAL_Driver/Src/stm32u5xx_hal_flash_ex.c ****   *         cleared with the call of the HAL_FLASH_OB_Unlock() function.
1021:Drivers/STM32U5xx_HAL_Driver/Src/stm32u5xx_hal_flash_ex.c ****   * @note   To validate the RDP level, the option bytes must be reloaded
1022:Drivers/STM32U5xx_HAL_Driver/Src/stm32u5xx_hal_flash_ex.c ****   *         through the call of the HAL_FLASH_OB_Launch() function.
1023:Drivers/STM32U5xx_HAL_Driver/Src/stm32u5xx_hal_flash_ex.c ****   * @note   !!! Warning : When enabling OB_RDP level 2 it's no more possible
1024:Drivers/STM32U5xx_HAL_Driver/Src/stm32u5xx_hal_flash_ex.c ****   *         to go back to other levels !!!
1025:Drivers/STM32U5xx_HAL_Driver/Src/stm32u5xx_hal_flash_ex.c ****   *
1026:Drivers/STM32U5xx_HAL_Driver/Src/stm32u5xx_hal_flash_ex.c ****   * @param  RDPLevel specifies the read protection level.
1027:Drivers/STM32U5xx_HAL_Driver/Src/stm32u5xx_hal_flash_ex.c ****   *         This parameter can be one of the following values:
1028:Drivers/STM32U5xx_HAL_Driver/Src/stm32u5xx_hal_flash_ex.c ****   *            @arg OB_RDP_LEVEL_0: No protection
1029:Drivers/STM32U5xx_HAL_Driver/Src/stm32u5xx_hal_flash_ex.c ****   *            @arg OB_RDP_LEVEL_0_5: No debug access to secure area
1030:Drivers/STM32U5xx_HAL_Driver/Src/stm32u5xx_hal_flash_ex.c ****   *            @arg OB_RDP_LEVEL_1: Read protection of the memory
1031:Drivers/STM32U5xx_HAL_Driver/Src/stm32u5xx_hal_flash_ex.c ****   *            @arg OB_RDP_LEVEL_2: Full chip protection
1032:Drivers/STM32U5xx_HAL_Driver/Src/stm32u5xx_hal_flash_ex.c ****   *
1033:Drivers/STM32U5xx_HAL_Driver/Src/stm32u5xx_hal_flash_ex.c ****   * @retval None
1034:Drivers/STM32U5xx_HAL_Driver/Src/stm32u5xx_hal_flash_ex.c ****   */
1035:Drivers/STM32U5xx_HAL_Driver/Src/stm32u5xx_hal_flash_ex.c **** static void FLASH_OB_RDPConfig(uint32_t RDPLevel)
1036:Drivers/STM32U5xx_HAL_Driver/Src/stm32u5xx_hal_flash_ex.c **** {
 195              		.loc 1 1036 1 is_stmt 1 view -0
 196              		.cfi_startproc
 197              		@ args = 0, pretend = 0, frame = 0
 198              		@ frame_needed = 0, uses_anonymous_args = 0
ARM GAS  /tmp/ccudYRdF.s 			page 23


 199              		@ link register save eliminated.
1037:Drivers/STM32U5xx_HAL_Driver/Src/stm32u5xx_hal_flash_ex.c ****   /* Check the parameters */
1038:Drivers/STM32U5xx_HAL_Driver/Src/stm32u5xx_hal_flash_ex.c ****   assert_param(IS_OB_RDP_LEVEL(RDPLevel));
 200              		.loc 1 1038 3 view .LVU52
1039:Drivers/STM32U5xx_HAL_Driver/Src/stm32u5xx_hal_flash_ex.c **** 
1040:Drivers/STM32U5xx_HAL_Driver/Src/stm32u5xx_hal_flash_ex.c ****   /* Configure the RDP level in the option bytes register */
1041:Drivers/STM32U5xx_HAL_Driver/Src/stm32u5xx_hal_flash_ex.c ****   MODIFY_REG(FLASH->OPTR, FLASH_OPTR_RDP, RDPLevel);
 201              		.loc 1 1041 3 view .LVU53
 202 0000 034A     		ldr	r2, .L18
 203 0002 136C     		ldr	r3, [r2, #64]
 204 0004 23F0FF03 		bic	r3, r3, #255
 205 0008 0343     		orrs	r3, r3, r0
 206 000a 1364     		str	r3, [r2, #64]
1042:Drivers/STM32U5xx_HAL_Driver/Src/stm32u5xx_hal_flash_ex.c **** }
 207              		.loc 1 1042 1 is_stmt 0 view .LVU54
 208 000c 7047     		bx	lr
 209              	.L19:
 210 000e 00BF     		.align	2
 211              	.L18:
 212 0010 00200240 		.word	1073881088
 213              		.cfi_endproc
 214              	.LFE360:
 216              		.section	.text.FLASH_OB_RDPKeyConfig,"ax",%progbits
 217              		.align	1
 218              		.syntax unified
 219              		.thumb
 220              		.thumb_func
 222              	FLASH_OB_RDPKeyConfig:
 223              	.LVL19:
 224              	.LFB361:
1043:Drivers/STM32U5xx_HAL_Driver/Src/stm32u5xx_hal_flash_ex.c **** 
1044:Drivers/STM32U5xx_HAL_Driver/Src/stm32u5xx_hal_flash_ex.c **** /**
1045:Drivers/STM32U5xx_HAL_Driver/Src/stm32u5xx_hal_flash_ex.c ****   * @brief  Set the read protection key.
1046:Drivers/STM32U5xx_HAL_Driver/Src/stm32u5xx_hal_flash_ex.c ****   * @param  RDPKeyType specifies the read protection key type.
1047:Drivers/STM32U5xx_HAL_Driver/Src/stm32u5xx_hal_flash_ex.c ****   *         This parameter can be one of the following values:
1048:Drivers/STM32U5xx_HAL_Driver/Src/stm32u5xx_hal_flash_ex.c ****   *            @arg OB_RDP_KEY_OEM1: OEM1 key
1049:Drivers/STM32U5xx_HAL_Driver/Src/stm32u5xx_hal_flash_ex.c ****   *            @arg OB_RDP_KEY_OEM2: OEM2 key
1050:Drivers/STM32U5xx_HAL_Driver/Src/stm32u5xx_hal_flash_ex.c ****   * @param  RDPKey1 specifies the RDP key 1.
1051:Drivers/STM32U5xx_HAL_Driver/Src/stm32u5xx_hal_flash_ex.c ****   * @param  RDPKey2 specifies the RDP key 2.
1052:Drivers/STM32U5xx_HAL_Driver/Src/stm32u5xx_hal_flash_ex.c ****   * @retval None
1053:Drivers/STM32U5xx_HAL_Driver/Src/stm32u5xx_hal_flash_ex.c ****   */
1054:Drivers/STM32U5xx_HAL_Driver/Src/stm32u5xx_hal_flash_ex.c **** static void FLASH_OB_RDPKeyConfig(uint32_t RDPKeyType, uint32_t RDPKey1, uint32_t RDPKey2)
1055:Drivers/STM32U5xx_HAL_Driver/Src/stm32u5xx_hal_flash_ex.c **** {
 225              		.loc 1 1055 1 is_stmt 1 view -0
 226              		.cfi_startproc
 227              		@ args = 0, pretend = 0, frame = 0
 228              		@ frame_needed = 0, uses_anonymous_args = 0
 229              		@ link register save eliminated.
1056:Drivers/STM32U5xx_HAL_Driver/Src/stm32u5xx_hal_flash_ex.c ****   /* Check the parameters */
1057:Drivers/STM32U5xx_HAL_Driver/Src/stm32u5xx_hal_flash_ex.c ****   assert_param(IS_OB_RDP_KEY_TYPE(RDPKeyType));
 230              		.loc 1 1057 3 view .LVU56
1058:Drivers/STM32U5xx_HAL_Driver/Src/stm32u5xx_hal_flash_ex.c **** 
1059:Drivers/STM32U5xx_HAL_Driver/Src/stm32u5xx_hal_flash_ex.c ****   /* Configure the RDP OEM key */
1060:Drivers/STM32U5xx_HAL_Driver/Src/stm32u5xx_hal_flash_ex.c ****   if (RDPKeyType == OB_RDP_KEY_OEM1)
 231              		.loc 1 1060 3 view .LVU57
 232              		.loc 1 1060 6 is_stmt 0 view .LVU58
 233 0000 0128     		cmp	r0, #1
ARM GAS  /tmp/ccudYRdF.s 			page 24


 234 0002 03D0     		beq	.L23
1061:Drivers/STM32U5xx_HAL_Driver/Src/stm32u5xx_hal_flash_ex.c ****   {
1062:Drivers/STM32U5xx_HAL_Driver/Src/stm32u5xx_hal_flash_ex.c ****     WRITE_REG(FLASH->OEM1KEYR1, RDPKey1);
1063:Drivers/STM32U5xx_HAL_Driver/Src/stm32u5xx_hal_flash_ex.c ****     WRITE_REG(FLASH->OEM1KEYR2, RDPKey2);
1064:Drivers/STM32U5xx_HAL_Driver/Src/stm32u5xx_hal_flash_ex.c ****   }
1065:Drivers/STM32U5xx_HAL_Driver/Src/stm32u5xx_hal_flash_ex.c ****   else
1066:Drivers/STM32U5xx_HAL_Driver/Src/stm32u5xx_hal_flash_ex.c ****   {
1067:Drivers/STM32U5xx_HAL_Driver/Src/stm32u5xx_hal_flash_ex.c ****     WRITE_REG(FLASH->OEM2KEYR1, RDPKey1);
 235              		.loc 1 1067 5 is_stmt 1 view .LVU59
 236 0004 034B     		ldr	r3, .L24
 237 0006 9967     		str	r1, [r3, #120]
1068:Drivers/STM32U5xx_HAL_Driver/Src/stm32u5xx_hal_flash_ex.c ****     WRITE_REG(FLASH->OEM2KEYR2, RDPKey2);
 238              		.loc 1 1068 5 view .LVU60
 239 0008 DA67     		str	r2, [r3, #124]
1069:Drivers/STM32U5xx_HAL_Driver/Src/stm32u5xx_hal_flash_ex.c ****   }
1070:Drivers/STM32U5xx_HAL_Driver/Src/stm32u5xx_hal_flash_ex.c **** }
 240              		.loc 1 1070 1 is_stmt 0 view .LVU61
 241 000a 7047     		bx	lr
 242              	.L23:
1062:Drivers/STM32U5xx_HAL_Driver/Src/stm32u5xx_hal_flash_ex.c ****     WRITE_REG(FLASH->OEM1KEYR2, RDPKey2);
 243              		.loc 1 1062 5 is_stmt 1 view .LVU62
 244 000c 014B     		ldr	r3, .L24
 245 000e 1967     		str	r1, [r3, #112]
1063:Drivers/STM32U5xx_HAL_Driver/Src/stm32u5xx_hal_flash_ex.c ****   }
 246              		.loc 1 1063 5 view .LVU63
 247 0010 5A67     		str	r2, [r3, #116]
 248 0012 7047     		bx	lr
 249              	.L25:
 250              		.align	2
 251              	.L24:
 252 0014 00200240 		.word	1073881088
 253              		.cfi_endproc
 254              	.LFE361:
 256              		.section	.text.FLASH_OB_UserConfig,"ax",%progbits
 257              		.align	1
 258              		.syntax unified
 259              		.thumb
 260              		.thumb_func
 262              	FLASH_OB_UserConfig:
 263              	.LVL20:
 264              	.LFB362:
1071:Drivers/STM32U5xx_HAL_Driver/Src/stm32u5xx_hal_flash_ex.c **** 
1072:Drivers/STM32U5xx_HAL_Driver/Src/stm32u5xx_hal_flash_ex.c **** /**
1073:Drivers/STM32U5xx_HAL_Driver/Src/stm32u5xx_hal_flash_ex.c ****   * @brief  Program the FLASH User Option Byte.
1074:Drivers/STM32U5xx_HAL_Driver/Src/stm32u5xx_hal_flash_ex.c ****   *
1075:Drivers/STM32U5xx_HAL_Driver/Src/stm32u5xx_hal_flash_ex.c ****   * @note   To configure the user option bytes, the option lock bit OPTLOCK must
1076:Drivers/STM32U5xx_HAL_Driver/Src/stm32u5xx_hal_flash_ex.c ****   *         be cleared with the call of the HAL_FLASH_OB_Unlock() function.
1077:Drivers/STM32U5xx_HAL_Driver/Src/stm32u5xx_hal_flash_ex.c ****   * @note   To validate the user option bytes, the option bytes must be reloaded
1078:Drivers/STM32U5xx_HAL_Driver/Src/stm32u5xx_hal_flash_ex.c ****   *         through the call of the HAL_FLASH_OB_Launch() function.
1079:Drivers/STM32U5xx_HAL_Driver/Src/stm32u5xx_hal_flash_ex.c ****   * @param  UserType: The FLASH User Option Bytes to be modified.
1080:Drivers/STM32U5xx_HAL_Driver/Src/stm32u5xx_hal_flash_ex.c ****   *         This parameter can be a combination of @ref FLASH_OB_USER_Type
1081:Drivers/STM32U5xx_HAL_Driver/Src/stm32u5xx_hal_flash_ex.c ****   * @param  UserConfig The selected User Option Bytes values.
1082:Drivers/STM32U5xx_HAL_Driver/Src/stm32u5xx_hal_flash_ex.c ****   *         This parameter can be a combination of @ref FLASH_OB_USER_BOR_LEVEL,
1083:Drivers/STM32U5xx_HAL_Driver/Src/stm32u5xx_hal_flash_ex.c ****   *         @ref FLASH_OB_USER_nRST_STOP, @ref FLASH_OB_USER_nRST_STANDBY,
1084:Drivers/STM32U5xx_HAL_Driver/Src/stm32u5xx_hal_flash_ex.c ****   *         @ref FLASH_OB_USER_nRST_SHUTDOWN, @ref FLASH_OB_USER_SRAM_RST,
1085:Drivers/STM32U5xx_HAL_Driver/Src/stm32u5xx_hal_flash_ex.c ****   *         @ref FLASH_OB_USER_IWDG_SW, @ref FLASH_OB_USER_IWDG_STOP,
1086:Drivers/STM32U5xx_HAL_Driver/Src/stm32u5xx_hal_flash_ex.c ****   *         @ref FLASH_OB_USER_IWDG_STANDBY, @ref FLASH_OB_USER_WWDG_SW,
ARM GAS  /tmp/ccudYRdF.s 			page 25


1087:Drivers/STM32U5xx_HAL_Driver/Src/stm32u5xx_hal_flash_ex.c ****   *         @ref OB_USER_SWAP_BANK, @ref FLASH_OB_USER_DUALBANK,
1088:Drivers/STM32U5xx_HAL_Driver/Src/stm32u5xx_hal_flash_ex.c ****   *         @ref FLASH_OB_USER_BKPRAM_RST, @ref FLASH_OB_USER_SRAM3_ECC,
1089:Drivers/STM32U5xx_HAL_Driver/Src/stm32u5xx_hal_flash_ex.c ****   *         @ref FLASH_OB_USER_SRAM2_ECC, @ref FLASH_OB_USER_SRAM2_RST,
1090:Drivers/STM32U5xx_HAL_Driver/Src/stm32u5xx_hal_flash_ex.c ****   *         @ref FLASH_OB_USER_nSWBOOT0, @ref FLASH_OB_USER_nBOOT0,
1091:Drivers/STM32U5xx_HAL_Driver/Src/stm32u5xx_hal_flash_ex.c ****   *         @ref FLASH_OB_USER_PA15_PUPEN, @ref FLASH_OB_USER_IO_VDD_HSLV,
1092:Drivers/STM32U5xx_HAL_Driver/Src/stm32u5xx_hal_flash_ex.c ****   *         @ref FLASH_OB_USER_IO_VDDIO2_HSLV and @ref OB_USER_TZEN
1093:Drivers/STM32U5xx_HAL_Driver/Src/stm32u5xx_hal_flash_ex.c ****   * @retval None
1094:Drivers/STM32U5xx_HAL_Driver/Src/stm32u5xx_hal_flash_ex.c ****   */
1095:Drivers/STM32U5xx_HAL_Driver/Src/stm32u5xx_hal_flash_ex.c **** static void FLASH_OB_UserConfig(uint32_t UserType, uint32_t UserConfig)
1096:Drivers/STM32U5xx_HAL_Driver/Src/stm32u5xx_hal_flash_ex.c **** {
 265              		.loc 1 1096 1 view -0
 266              		.cfi_startproc
 267              		@ args = 0, pretend = 0, frame = 0
 268              		@ frame_needed = 0, uses_anonymous_args = 0
 269              		.loc 1 1096 1 is_stmt 0 view .LVU65
 270 0000 00B5     		push	{lr}
 271              	.LCFI0:
 272              		.cfi_def_cfa_offset 4
 273              		.cfi_offset 14, -4
1097:Drivers/STM32U5xx_HAL_Driver/Src/stm32u5xx_hal_flash_ex.c ****   uint32_t optr_reg_val = 0;
 274              		.loc 1 1097 3 is_stmt 1 view .LVU66
 275              	.LVL21:
1098:Drivers/STM32U5xx_HAL_Driver/Src/stm32u5xx_hal_flash_ex.c ****   uint32_t optr_reg_mask = 0;
 276              		.loc 1 1098 3 view .LVU67
1099:Drivers/STM32U5xx_HAL_Driver/Src/stm32u5xx_hal_flash_ex.c **** 
1100:Drivers/STM32U5xx_HAL_Driver/Src/stm32u5xx_hal_flash_ex.c ****   /* Check the parameters */
1101:Drivers/STM32U5xx_HAL_Driver/Src/stm32u5xx_hal_flash_ex.c ****   assert_param(IS_OB_USER_TYPE(UserType));
 277              		.loc 1 1101 3 view .LVU68
1102:Drivers/STM32U5xx_HAL_Driver/Src/stm32u5xx_hal_flash_ex.c **** 
1103:Drivers/STM32U5xx_HAL_Driver/Src/stm32u5xx_hal_flash_ex.c ****   if ((UserType & OB_USER_BOR_LEV) != 0U)
 278              		.loc 1 1103 3 view .LVU69
 279              		.loc 1 1103 6 is_stmt 0 view .LVU70
 280 0002 10F0010C 		ands	ip, r0, #1
 281 0006 00F0C180 		beq	.L48
1104:Drivers/STM32U5xx_HAL_Driver/Src/stm32u5xx_hal_flash_ex.c ****   {
1105:Drivers/STM32U5xx_HAL_Driver/Src/stm32u5xx_hal_flash_ex.c ****     /* BOR level option byte should be modified */
1106:Drivers/STM32U5xx_HAL_Driver/Src/stm32u5xx_hal_flash_ex.c ****     assert_param(IS_OB_USER_BOR_LEVEL(UserConfig & FLASH_OPTR_BOR_LEV));
 282              		.loc 1 1106 5 is_stmt 1 view .LVU71
1107:Drivers/STM32U5xx_HAL_Driver/Src/stm32u5xx_hal_flash_ex.c **** 
1108:Drivers/STM32U5xx_HAL_Driver/Src/stm32u5xx_hal_flash_ex.c ****     /* Set value and mask for BOR level option byte */
1109:Drivers/STM32U5xx_HAL_Driver/Src/stm32u5xx_hal_flash_ex.c ****     optr_reg_val |= (UserConfig & FLASH_OPTR_BOR_LEV);
 283              		.loc 1 1109 5 view .LVU72
 284              		.loc 1 1109 33 is_stmt 0 view .LVU73
 285 000a 01F4E06C 		and	ip, r1, #1792
 286              	.LVL22:
1110:Drivers/STM32U5xx_HAL_Driver/Src/stm32u5xx_hal_flash_ex.c ****     optr_reg_mask |= FLASH_OPTR_BOR_LEV;
 287              		.loc 1 1110 5 is_stmt 1 view .LVU74
 288              		.loc 1 1110 19 is_stmt 0 view .LVU75
 289 000e 4FF4E06E 		mov	lr, #1792
 290              	.LVL23:
 291              	.L27:
1111:Drivers/STM32U5xx_HAL_Driver/Src/stm32u5xx_hal_flash_ex.c ****   }
1112:Drivers/STM32U5xx_HAL_Driver/Src/stm32u5xx_hal_flash_ex.c **** 
1113:Drivers/STM32U5xx_HAL_Driver/Src/stm32u5xx_hal_flash_ex.c ****   if ((UserType & OB_USER_NRST_STOP) != 0U)
 292              		.loc 1 1113 3 is_stmt 1 view .LVU76
 293              		.loc 1 1113 6 is_stmt 0 view .LVU77
 294 0012 10F0020F 		tst	r0, #2
ARM GAS  /tmp/ccudYRdF.s 			page 26


 295 0016 05D0     		beq	.L28
1114:Drivers/STM32U5xx_HAL_Driver/Src/stm32u5xx_hal_flash_ex.c ****   {
1115:Drivers/STM32U5xx_HAL_Driver/Src/stm32u5xx_hal_flash_ex.c ****     /* nRST_STOP option byte should be modified */
1116:Drivers/STM32U5xx_HAL_Driver/Src/stm32u5xx_hal_flash_ex.c ****     assert_param(IS_OB_USER_STOP(UserConfig & FLASH_OPTR_nRST_STOP));
 296              		.loc 1 1116 5 is_stmt 1 view .LVU78
1117:Drivers/STM32U5xx_HAL_Driver/Src/stm32u5xx_hal_flash_ex.c **** 
1118:Drivers/STM32U5xx_HAL_Driver/Src/stm32u5xx_hal_flash_ex.c ****     /* Set value and mask for nRST_STOP option byte */
1119:Drivers/STM32U5xx_HAL_Driver/Src/stm32u5xx_hal_flash_ex.c ****     optr_reg_val |= (UserConfig & FLASH_OPTR_nRST_STOP);
 297              		.loc 1 1119 5 view .LVU79
 298              		.loc 1 1119 33 is_stmt 0 view .LVU80
 299 0018 01F48053 		and	r3, r1, #4096
 300              		.loc 1 1119 18 view .LVU81
 301 001c 4CEA030C 		orr	ip, ip, r3
 302              	.LVL24:
1120:Drivers/STM32U5xx_HAL_Driver/Src/stm32u5xx_hal_flash_ex.c ****     optr_reg_mask |= FLASH_OPTR_nRST_STOP;
 303              		.loc 1 1120 5 is_stmt 1 view .LVU82
 304              		.loc 1 1120 19 is_stmt 0 view .LVU83
 305 0020 4EF4805E 		orr	lr, lr, #4096
 306              	.LVL25:
 307              	.L28:
1121:Drivers/STM32U5xx_HAL_Driver/Src/stm32u5xx_hal_flash_ex.c ****   }
1122:Drivers/STM32U5xx_HAL_Driver/Src/stm32u5xx_hal_flash_ex.c **** 
1123:Drivers/STM32U5xx_HAL_Driver/Src/stm32u5xx_hal_flash_ex.c ****   if ((UserType & OB_USER_NRST_STDBY) != 0U)
 308              		.loc 1 1123 3 is_stmt 1 view .LVU84
 309              		.loc 1 1123 6 is_stmt 0 view .LVU85
 310 0024 10F0040F 		tst	r0, #4
 311 0028 05D0     		beq	.L29
1124:Drivers/STM32U5xx_HAL_Driver/Src/stm32u5xx_hal_flash_ex.c ****   {
1125:Drivers/STM32U5xx_HAL_Driver/Src/stm32u5xx_hal_flash_ex.c ****     /* nRST_STDBY option byte should be modified */
1126:Drivers/STM32U5xx_HAL_Driver/Src/stm32u5xx_hal_flash_ex.c ****     assert_param(IS_OB_USER_STANDBY(UserConfig & FLASH_OPTR_nRST_STDBY));
 312              		.loc 1 1126 5 is_stmt 1 view .LVU86
1127:Drivers/STM32U5xx_HAL_Driver/Src/stm32u5xx_hal_flash_ex.c **** 
1128:Drivers/STM32U5xx_HAL_Driver/Src/stm32u5xx_hal_flash_ex.c ****     /* Set value and mask for nRST_STDBY option byte */
1129:Drivers/STM32U5xx_HAL_Driver/Src/stm32u5xx_hal_flash_ex.c ****     optr_reg_val |= (UserConfig & FLASH_OPTR_nRST_STDBY);
 313              		.loc 1 1129 5 view .LVU87
 314              		.loc 1 1129 33 is_stmt 0 view .LVU88
 315 002a 01F40053 		and	r3, r1, #8192
 316              		.loc 1 1129 18 view .LVU89
 317 002e 4CEA030C 		orr	ip, ip, r3
 318              	.LVL26:
1130:Drivers/STM32U5xx_HAL_Driver/Src/stm32u5xx_hal_flash_ex.c ****     optr_reg_mask |= FLASH_OPTR_nRST_STDBY;
 319              		.loc 1 1130 5 is_stmt 1 view .LVU90
 320              		.loc 1 1130 19 is_stmt 0 view .LVU91
 321 0032 4EF4005E 		orr	lr, lr, #8192
 322              	.LVL27:
 323              	.L29:
1131:Drivers/STM32U5xx_HAL_Driver/Src/stm32u5xx_hal_flash_ex.c ****   }
1132:Drivers/STM32U5xx_HAL_Driver/Src/stm32u5xx_hal_flash_ex.c **** 
1133:Drivers/STM32U5xx_HAL_Driver/Src/stm32u5xx_hal_flash_ex.c ****   if ((UserType & OB_USER_NRST_SHDW) != 0U)
 324              		.loc 1 1133 3 is_stmt 1 view .LVU92
 325              		.loc 1 1133 6 is_stmt 0 view .LVU93
 326 0036 10F0080F 		tst	r0, #8
 327 003a 05D0     		beq	.L30
1134:Drivers/STM32U5xx_HAL_Driver/Src/stm32u5xx_hal_flash_ex.c ****   {
1135:Drivers/STM32U5xx_HAL_Driver/Src/stm32u5xx_hal_flash_ex.c ****     /* nRST_SHDW option byte should be modified */
1136:Drivers/STM32U5xx_HAL_Driver/Src/stm32u5xx_hal_flash_ex.c ****     assert_param(IS_OB_USER_SHUTDOWN(UserConfig & FLASH_OPTR_nRST_SHDW));
 328              		.loc 1 1136 5 is_stmt 1 view .LVU94
ARM GAS  /tmp/ccudYRdF.s 			page 27


1137:Drivers/STM32U5xx_HAL_Driver/Src/stm32u5xx_hal_flash_ex.c **** 
1138:Drivers/STM32U5xx_HAL_Driver/Src/stm32u5xx_hal_flash_ex.c ****     /* Set value and mask for nRST_SHDW option byte */
1139:Drivers/STM32U5xx_HAL_Driver/Src/stm32u5xx_hal_flash_ex.c ****     optr_reg_val |= (UserConfig & FLASH_OPTR_nRST_SHDW);
 329              		.loc 1 1139 5 view .LVU95
 330              		.loc 1 1139 33 is_stmt 0 view .LVU96
 331 003c 01F48043 		and	r3, r1, #16384
 332              		.loc 1 1139 18 view .LVU97
 333 0040 4CEA030C 		orr	ip, ip, r3
 334              	.LVL28:
1140:Drivers/STM32U5xx_HAL_Driver/Src/stm32u5xx_hal_flash_ex.c ****     optr_reg_mask |= FLASH_OPTR_nRST_SHDW;
 335              		.loc 1 1140 5 is_stmt 1 view .LVU98
 336              		.loc 1 1140 19 is_stmt 0 view .LVU99
 337 0044 4EF4804E 		orr	lr, lr, #16384
 338              	.LVL29:
 339              	.L30:
1141:Drivers/STM32U5xx_HAL_Driver/Src/stm32u5xx_hal_flash_ex.c ****   }
1142:Drivers/STM32U5xx_HAL_Driver/Src/stm32u5xx_hal_flash_ex.c **** 
1143:Drivers/STM32U5xx_HAL_Driver/Src/stm32u5xx_hal_flash_ex.c ****   if ((UserType & OB_USER_SRAM_RST) != 0U)
 340              		.loc 1 1143 3 is_stmt 1 view .LVU100
 341              		.loc 1 1143 6 is_stmt 0 view .LVU101
 342 0048 10F0100F 		tst	r0, #16
 343 004c 05D0     		beq	.L31
1144:Drivers/STM32U5xx_HAL_Driver/Src/stm32u5xx_hal_flash_ex.c ****   {
1145:Drivers/STM32U5xx_HAL_Driver/Src/stm32u5xx_hal_flash_ex.c ****     /* SRAM_RST option byte should be modified */
1146:Drivers/STM32U5xx_HAL_Driver/Src/stm32u5xx_hal_flash_ex.c ****     assert_param(IS_OB_USER_SRAM_RST(UserConfig & FLASH_OPTR_SRAM_RST));
 344              		.loc 1 1146 5 is_stmt 1 view .LVU102
1147:Drivers/STM32U5xx_HAL_Driver/Src/stm32u5xx_hal_flash_ex.c **** 
1148:Drivers/STM32U5xx_HAL_Driver/Src/stm32u5xx_hal_flash_ex.c ****     /* Set value and mask for SRAM_RST option byte */
1149:Drivers/STM32U5xx_HAL_Driver/Src/stm32u5xx_hal_flash_ex.c ****     optr_reg_val |= (UserConfig & FLASH_OPTR_SRAM_RST);
 345              		.loc 1 1149 5 view .LVU103
 346              		.loc 1 1149 33 is_stmt 0 view .LVU104
 347 004e 01F40043 		and	r3, r1, #32768
 348              		.loc 1 1149 18 view .LVU105
 349 0052 4CEA030C 		orr	ip, ip, r3
 350              	.LVL30:
1150:Drivers/STM32U5xx_HAL_Driver/Src/stm32u5xx_hal_flash_ex.c ****     optr_reg_mask |= FLASH_OPTR_SRAM_RST;
 351              		.loc 1 1150 5 is_stmt 1 view .LVU106
 352              		.loc 1 1150 19 is_stmt 0 view .LVU107
 353 0056 4EF4004E 		orr	lr, lr, #32768
 354              	.LVL31:
 355              	.L31:
1151:Drivers/STM32U5xx_HAL_Driver/Src/stm32u5xx_hal_flash_ex.c ****   }
1152:Drivers/STM32U5xx_HAL_Driver/Src/stm32u5xx_hal_flash_ex.c **** 
1153:Drivers/STM32U5xx_HAL_Driver/Src/stm32u5xx_hal_flash_ex.c ****   if ((UserType & OB_USER_IWDG_SW) != 0U)
 356              		.loc 1 1153 3 is_stmt 1 view .LVU108
 357              		.loc 1 1153 6 is_stmt 0 view .LVU109
 358 005a 10F0200F 		tst	r0, #32
 359 005e 05D0     		beq	.L32
1154:Drivers/STM32U5xx_HAL_Driver/Src/stm32u5xx_hal_flash_ex.c ****   {
1155:Drivers/STM32U5xx_HAL_Driver/Src/stm32u5xx_hal_flash_ex.c ****     /* IWDG_SW option byte should be modified */
1156:Drivers/STM32U5xx_HAL_Driver/Src/stm32u5xx_hal_flash_ex.c ****     assert_param(IS_OB_USER_IWDG(UserConfig & FLASH_OPTR_IWDG_SW));
 360              		.loc 1 1156 5 is_stmt 1 view .LVU110
1157:Drivers/STM32U5xx_HAL_Driver/Src/stm32u5xx_hal_flash_ex.c **** 
1158:Drivers/STM32U5xx_HAL_Driver/Src/stm32u5xx_hal_flash_ex.c ****     /* Set value and mask for IWDG_SW option byte */
1159:Drivers/STM32U5xx_HAL_Driver/Src/stm32u5xx_hal_flash_ex.c ****     optr_reg_val |= (UserConfig & FLASH_OPTR_IWDG_SW);
 361              		.loc 1 1159 5 view .LVU111
 362              		.loc 1 1159 33 is_stmt 0 view .LVU112
ARM GAS  /tmp/ccudYRdF.s 			page 28


 363 0060 01F48033 		and	r3, r1, #65536
 364              		.loc 1 1159 18 view .LVU113
 365 0064 4CEA030C 		orr	ip, ip, r3
 366              	.LVL32:
1160:Drivers/STM32U5xx_HAL_Driver/Src/stm32u5xx_hal_flash_ex.c ****     optr_reg_mask |= FLASH_OPTR_IWDG_SW;
 367              		.loc 1 1160 5 is_stmt 1 view .LVU114
 368              		.loc 1 1160 19 is_stmt 0 view .LVU115
 369 0068 4EF4803E 		orr	lr, lr, #65536
 370              	.LVL33:
 371              	.L32:
1161:Drivers/STM32U5xx_HAL_Driver/Src/stm32u5xx_hal_flash_ex.c ****   }
1162:Drivers/STM32U5xx_HAL_Driver/Src/stm32u5xx_hal_flash_ex.c **** 
1163:Drivers/STM32U5xx_HAL_Driver/Src/stm32u5xx_hal_flash_ex.c ****   if ((UserType & OB_USER_IWDG_STOP) != 0U)
 372              		.loc 1 1163 3 is_stmt 1 view .LVU116
 373              		.loc 1 1163 6 is_stmt 0 view .LVU117
 374 006c 10F0400F 		tst	r0, #64
 375 0070 05D0     		beq	.L33
1164:Drivers/STM32U5xx_HAL_Driver/Src/stm32u5xx_hal_flash_ex.c ****   {
1165:Drivers/STM32U5xx_HAL_Driver/Src/stm32u5xx_hal_flash_ex.c ****     /* IWDG_STOP option byte should be modified */
1166:Drivers/STM32U5xx_HAL_Driver/Src/stm32u5xx_hal_flash_ex.c ****     assert_param(IS_OB_USER_IWDG_STOP(UserConfig & FLASH_OPTR_IWDG_STOP));
 376              		.loc 1 1166 5 is_stmt 1 view .LVU118
1167:Drivers/STM32U5xx_HAL_Driver/Src/stm32u5xx_hal_flash_ex.c **** 
1168:Drivers/STM32U5xx_HAL_Driver/Src/stm32u5xx_hal_flash_ex.c ****     /* Set value and mask for IWDG_STOP option byte */
1169:Drivers/STM32U5xx_HAL_Driver/Src/stm32u5xx_hal_flash_ex.c ****     optr_reg_val |= (UserConfig & FLASH_OPTR_IWDG_STOP);
 377              		.loc 1 1169 5 view .LVU119
 378              		.loc 1 1169 33 is_stmt 0 view .LVU120
 379 0072 01F40033 		and	r3, r1, #131072
 380              		.loc 1 1169 18 view .LVU121
 381 0076 4CEA030C 		orr	ip, ip, r3
 382              	.LVL34:
1170:Drivers/STM32U5xx_HAL_Driver/Src/stm32u5xx_hal_flash_ex.c ****     optr_reg_mask |= FLASH_OPTR_IWDG_STOP;
 383              		.loc 1 1170 5 is_stmt 1 view .LVU122
 384              		.loc 1 1170 19 is_stmt 0 view .LVU123
 385 007a 4EF4003E 		orr	lr, lr, #131072
 386              	.LVL35:
 387              	.L33:
1171:Drivers/STM32U5xx_HAL_Driver/Src/stm32u5xx_hal_flash_ex.c ****   }
1172:Drivers/STM32U5xx_HAL_Driver/Src/stm32u5xx_hal_flash_ex.c **** 
1173:Drivers/STM32U5xx_HAL_Driver/Src/stm32u5xx_hal_flash_ex.c ****   if ((UserType & OB_USER_IWDG_STDBY) != 0U)
 388              		.loc 1 1173 3 is_stmt 1 view .LVU124
 389              		.loc 1 1173 6 is_stmt 0 view .LVU125
 390 007e 10F0800F 		tst	r0, #128
 391 0082 05D0     		beq	.L34
1174:Drivers/STM32U5xx_HAL_Driver/Src/stm32u5xx_hal_flash_ex.c ****   {
1175:Drivers/STM32U5xx_HAL_Driver/Src/stm32u5xx_hal_flash_ex.c ****     /* IWDG_STDBY option byte should be modified */
1176:Drivers/STM32U5xx_HAL_Driver/Src/stm32u5xx_hal_flash_ex.c ****     assert_param(IS_OB_USER_IWDG_STDBY(UserConfig & FLASH_OPTR_IWDG_STDBY));
 392              		.loc 1 1176 5 is_stmt 1 view .LVU126
1177:Drivers/STM32U5xx_HAL_Driver/Src/stm32u5xx_hal_flash_ex.c **** 
1178:Drivers/STM32U5xx_HAL_Driver/Src/stm32u5xx_hal_flash_ex.c ****     /* Set value and mask for IWDG_STDBY option byte */
1179:Drivers/STM32U5xx_HAL_Driver/Src/stm32u5xx_hal_flash_ex.c ****     optr_reg_val |= (UserConfig & FLASH_OPTR_IWDG_STDBY);
 393              		.loc 1 1179 5 view .LVU127
 394              		.loc 1 1179 33 is_stmt 0 view .LVU128
 395 0084 01F48023 		and	r3, r1, #262144
 396              		.loc 1 1179 18 view .LVU129
 397 0088 4CEA030C 		orr	ip, ip, r3
 398              	.LVL36:
1180:Drivers/STM32U5xx_HAL_Driver/Src/stm32u5xx_hal_flash_ex.c ****     optr_reg_mask |= FLASH_OPTR_IWDG_STDBY;
ARM GAS  /tmp/ccudYRdF.s 			page 29


 399              		.loc 1 1180 5 is_stmt 1 view .LVU130
 400              		.loc 1 1180 19 is_stmt 0 view .LVU131
 401 008c 4EF4802E 		orr	lr, lr, #262144
 402              	.LVL37:
 403              	.L34:
1181:Drivers/STM32U5xx_HAL_Driver/Src/stm32u5xx_hal_flash_ex.c ****   }
1182:Drivers/STM32U5xx_HAL_Driver/Src/stm32u5xx_hal_flash_ex.c **** 
1183:Drivers/STM32U5xx_HAL_Driver/Src/stm32u5xx_hal_flash_ex.c ****   if ((UserType & OB_USER_WWDG_SW) != 0U)
 404              		.loc 1 1183 3 is_stmt 1 view .LVU132
 405              		.loc 1 1183 6 is_stmt 0 view .LVU133
 406 0090 10F4807F 		tst	r0, #256
 407 0094 05D0     		beq	.L35
1184:Drivers/STM32U5xx_HAL_Driver/Src/stm32u5xx_hal_flash_ex.c ****   {
1185:Drivers/STM32U5xx_HAL_Driver/Src/stm32u5xx_hal_flash_ex.c ****     /* WWDG_SW option byte should be modified */
1186:Drivers/STM32U5xx_HAL_Driver/Src/stm32u5xx_hal_flash_ex.c ****     assert_param(IS_OB_USER_WWDG(UserConfig & FLASH_OPTR_WWDG_SW));
 408              		.loc 1 1186 5 is_stmt 1 view .LVU134
1187:Drivers/STM32U5xx_HAL_Driver/Src/stm32u5xx_hal_flash_ex.c **** 
1188:Drivers/STM32U5xx_HAL_Driver/Src/stm32u5xx_hal_flash_ex.c ****     /* Set value and mask for WWDG_SW option byte */
1189:Drivers/STM32U5xx_HAL_Driver/Src/stm32u5xx_hal_flash_ex.c ****     optr_reg_val |= (UserConfig & FLASH_OPTR_WWDG_SW);
 409              		.loc 1 1189 5 view .LVU135
 410              		.loc 1 1189 33 is_stmt 0 view .LVU136
 411 0096 01F40023 		and	r3, r1, #524288
 412              		.loc 1 1189 18 view .LVU137
 413 009a 4CEA030C 		orr	ip, ip, r3
 414              	.LVL38:
1190:Drivers/STM32U5xx_HAL_Driver/Src/stm32u5xx_hal_flash_ex.c ****     optr_reg_mask |= FLASH_OPTR_WWDG_SW;
 415              		.loc 1 1190 5 is_stmt 1 view .LVU138
 416              		.loc 1 1190 19 is_stmt 0 view .LVU139
 417 009e 4EF4002E 		orr	lr, lr, #524288
 418              	.LVL39:
 419              	.L35:
1191:Drivers/STM32U5xx_HAL_Driver/Src/stm32u5xx_hal_flash_ex.c ****   }
1192:Drivers/STM32U5xx_HAL_Driver/Src/stm32u5xx_hal_flash_ex.c **** 
1193:Drivers/STM32U5xx_HAL_Driver/Src/stm32u5xx_hal_flash_ex.c ****   if ((UserType & OB_USER_SWAP_BANK) != 0U)
 420              		.loc 1 1193 3 is_stmt 1 view .LVU140
 421              		.loc 1 1193 6 is_stmt 0 view .LVU141
 422 00a2 10F4007F 		tst	r0, #512
 423 00a6 05D0     		beq	.L36
1194:Drivers/STM32U5xx_HAL_Driver/Src/stm32u5xx_hal_flash_ex.c ****   {
1195:Drivers/STM32U5xx_HAL_Driver/Src/stm32u5xx_hal_flash_ex.c ****     /* SWAP_BANK option byte should be modified */
1196:Drivers/STM32U5xx_HAL_Driver/Src/stm32u5xx_hal_flash_ex.c ****     assert_param(IS_OB_USER_SWAP_BANK(UserConfig & FLASH_OPTR_SWAP_BANK));
 424              		.loc 1 1196 5 is_stmt 1 view .LVU142
1197:Drivers/STM32U5xx_HAL_Driver/Src/stm32u5xx_hal_flash_ex.c **** 
1198:Drivers/STM32U5xx_HAL_Driver/Src/stm32u5xx_hal_flash_ex.c ****     /* Set value and mask for SWAP_BANK option byte */
1199:Drivers/STM32U5xx_HAL_Driver/Src/stm32u5xx_hal_flash_ex.c ****     optr_reg_val |= (UserConfig & FLASH_OPTR_SWAP_BANK);
 425              		.loc 1 1199 5 view .LVU143
 426              		.loc 1 1199 33 is_stmt 0 view .LVU144
 427 00a8 01F48013 		and	r3, r1, #1048576
 428              		.loc 1 1199 18 view .LVU145
 429 00ac 4CEA030C 		orr	ip, ip, r3
 430              	.LVL40:
1200:Drivers/STM32U5xx_HAL_Driver/Src/stm32u5xx_hal_flash_ex.c ****     optr_reg_mask |= FLASH_OPTR_SWAP_BANK;
 431              		.loc 1 1200 5 is_stmt 1 view .LVU146
 432              		.loc 1 1200 19 is_stmt 0 view .LVU147
 433 00b0 4EF4801E 		orr	lr, lr, #1048576
 434              	.LVL41:
 435              	.L36:
ARM GAS  /tmp/ccudYRdF.s 			page 30


1201:Drivers/STM32U5xx_HAL_Driver/Src/stm32u5xx_hal_flash_ex.c ****   }
1202:Drivers/STM32U5xx_HAL_Driver/Src/stm32u5xx_hal_flash_ex.c **** 
1203:Drivers/STM32U5xx_HAL_Driver/Src/stm32u5xx_hal_flash_ex.c ****   if ((UserType & OB_USER_DUALBANK) != 0U)
 436              		.loc 1 1203 3 is_stmt 1 view .LVU148
 437              		.loc 1 1203 6 is_stmt 0 view .LVU149
 438 00b4 10F4806F 		tst	r0, #1024
 439 00b8 05D0     		beq	.L37
1204:Drivers/STM32U5xx_HAL_Driver/Src/stm32u5xx_hal_flash_ex.c ****   {
1205:Drivers/STM32U5xx_HAL_Driver/Src/stm32u5xx_hal_flash_ex.c ****     /* DUALBANK option byte should be modified */
1206:Drivers/STM32U5xx_HAL_Driver/Src/stm32u5xx_hal_flash_ex.c ****     assert_param(IS_OB_USER_DUALBANK(UserConfig & FLASH_OPTR_DUALBANK));
 440              		.loc 1 1206 5 is_stmt 1 view .LVU150
1207:Drivers/STM32U5xx_HAL_Driver/Src/stm32u5xx_hal_flash_ex.c **** 
1208:Drivers/STM32U5xx_HAL_Driver/Src/stm32u5xx_hal_flash_ex.c ****     /* Set value and mask for DUALBANK option byte */
1209:Drivers/STM32U5xx_HAL_Driver/Src/stm32u5xx_hal_flash_ex.c ****     optr_reg_val |= (UserConfig & FLASH_OPTR_DUALBANK);
 441              		.loc 1 1209 5 view .LVU151
 442              		.loc 1 1209 33 is_stmt 0 view .LVU152
 443 00ba 01F40013 		and	r3, r1, #2097152
 444              		.loc 1 1209 18 view .LVU153
 445 00be 4CEA030C 		orr	ip, ip, r3
 446              	.LVL42:
1210:Drivers/STM32U5xx_HAL_Driver/Src/stm32u5xx_hal_flash_ex.c ****     optr_reg_mask |= FLASH_OPTR_DUALBANK;
 447              		.loc 1 1210 5 is_stmt 1 view .LVU154
 448              		.loc 1 1210 19 is_stmt 0 view .LVU155
 449 00c2 4EF4001E 		orr	lr, lr, #2097152
 450              	.LVL43:
 451              	.L37:
1211:Drivers/STM32U5xx_HAL_Driver/Src/stm32u5xx_hal_flash_ex.c ****   }
1212:Drivers/STM32U5xx_HAL_Driver/Src/stm32u5xx_hal_flash_ex.c **** 
1213:Drivers/STM32U5xx_HAL_Driver/Src/stm32u5xx_hal_flash_ex.c ****   if ((UserType & OB_USER_BKPRAM_ECC) != 0U)
 452              		.loc 1 1213 3 is_stmt 1 view .LVU156
 453              		.loc 1 1213 6 is_stmt 0 view .LVU157
 454 00c6 10F4006F 		tst	r0, #2048
 455 00ca 05D0     		beq	.L38
1214:Drivers/STM32U5xx_HAL_Driver/Src/stm32u5xx_hal_flash_ex.c ****   {
1215:Drivers/STM32U5xx_HAL_Driver/Src/stm32u5xx_hal_flash_ex.c ****     /* BKPRAM_ECC option byte should be modified */
1216:Drivers/STM32U5xx_HAL_Driver/Src/stm32u5xx_hal_flash_ex.c ****     assert_param(IS_OB_USER_BKPRAM_ECC(UserConfig & FLASH_OPTR_BKPRAM_ECC));
 456              		.loc 1 1216 5 is_stmt 1 view .LVU158
1217:Drivers/STM32U5xx_HAL_Driver/Src/stm32u5xx_hal_flash_ex.c **** 
1218:Drivers/STM32U5xx_HAL_Driver/Src/stm32u5xx_hal_flash_ex.c ****     /* Set value and mask for BKPRAM_ECC option byte */
1219:Drivers/STM32U5xx_HAL_Driver/Src/stm32u5xx_hal_flash_ex.c ****     optr_reg_val |= (UserConfig & FLASH_OPTR_BKPRAM_ECC);
 457              		.loc 1 1219 5 view .LVU159
 458              		.loc 1 1219 33 is_stmt 0 view .LVU160
 459 00cc 01F48003 		and	r3, r1, #4194304
 460              		.loc 1 1219 18 view .LVU161
 461 00d0 4CEA030C 		orr	ip, ip, r3
 462              	.LVL44:
1220:Drivers/STM32U5xx_HAL_Driver/Src/stm32u5xx_hal_flash_ex.c ****     optr_reg_mask |= FLASH_OPTR_BKPRAM_ECC;
 463              		.loc 1 1220 5 is_stmt 1 view .LVU162
 464              		.loc 1 1220 19 is_stmt 0 view .LVU163
 465 00d4 4EF4800E 		orr	lr, lr, #4194304
 466              	.LVL45:
 467              	.L38:
1221:Drivers/STM32U5xx_HAL_Driver/Src/stm32u5xx_hal_flash_ex.c ****   }
1222:Drivers/STM32U5xx_HAL_Driver/Src/stm32u5xx_hal_flash_ex.c **** #if defined(SRAM3_BASE)
1223:Drivers/STM32U5xx_HAL_Driver/Src/stm32u5xx_hal_flash_ex.c ****   if ((UserType & OB_USER_SRAM3_ECC) != 0U)
 468              		.loc 1 1223 3 is_stmt 1 view .LVU164
 469              		.loc 1 1223 6 is_stmt 0 view .LVU165
ARM GAS  /tmp/ccudYRdF.s 			page 31


 470 00d8 10F4805F 		tst	r0, #4096
 471 00dc 05D0     		beq	.L39
1224:Drivers/STM32U5xx_HAL_Driver/Src/stm32u5xx_hal_flash_ex.c ****   {
1225:Drivers/STM32U5xx_HAL_Driver/Src/stm32u5xx_hal_flash_ex.c ****     /* SRAM3_ECC option byte should be modified */
1226:Drivers/STM32U5xx_HAL_Driver/Src/stm32u5xx_hal_flash_ex.c ****     assert_param(IS_OB_USER_SRAM3_ECC(UserConfig & FLASH_OPTR_SRAM3_ECC));
 472              		.loc 1 1226 5 is_stmt 1 view .LVU166
1227:Drivers/STM32U5xx_HAL_Driver/Src/stm32u5xx_hal_flash_ex.c **** 
1228:Drivers/STM32U5xx_HAL_Driver/Src/stm32u5xx_hal_flash_ex.c ****     /* Set value and mask for SRAM3_ECC option byte */
1229:Drivers/STM32U5xx_HAL_Driver/Src/stm32u5xx_hal_flash_ex.c ****     optr_reg_val |= (UserConfig & FLASH_OPTR_SRAM3_ECC);
 473              		.loc 1 1229 5 view .LVU167
 474              		.loc 1 1229 33 is_stmt 0 view .LVU168
 475 00de 01F40003 		and	r3, r1, #8388608
 476              		.loc 1 1229 18 view .LVU169
 477 00e2 4CEA030C 		orr	ip, ip, r3
 478              	.LVL46:
1230:Drivers/STM32U5xx_HAL_Driver/Src/stm32u5xx_hal_flash_ex.c ****     optr_reg_mask |= FLASH_OPTR_SRAM3_ECC;
 479              		.loc 1 1230 5 is_stmt 1 view .LVU170
 480              		.loc 1 1230 19 is_stmt 0 view .LVU171
 481 00e6 4EF4000E 		orr	lr, lr, #8388608
 482              	.LVL47:
 483              	.L39:
1231:Drivers/STM32U5xx_HAL_Driver/Src/stm32u5xx_hal_flash_ex.c ****   }
1232:Drivers/STM32U5xx_HAL_Driver/Src/stm32u5xx_hal_flash_ex.c **** #endif /* SRAM3_BASE */
1233:Drivers/STM32U5xx_HAL_Driver/Src/stm32u5xx_hal_flash_ex.c ****   if ((UserType & OB_USER_SRAM2_ECC) != 0U)
 484              		.loc 1 1233 3 is_stmt 1 view .LVU172
 485              		.loc 1 1233 6 is_stmt 0 view .LVU173
 486 00ea 10F4005F 		tst	r0, #8192
 487 00ee 05D0     		beq	.L40
1234:Drivers/STM32U5xx_HAL_Driver/Src/stm32u5xx_hal_flash_ex.c ****   {
1235:Drivers/STM32U5xx_HAL_Driver/Src/stm32u5xx_hal_flash_ex.c ****     /* SRAM2_ECC option byte should be modified */
1236:Drivers/STM32U5xx_HAL_Driver/Src/stm32u5xx_hal_flash_ex.c ****     assert_param(IS_OB_USER_SRAM2_ECC(UserConfig & FLASH_OPTR_SRAM2_ECC));
 488              		.loc 1 1236 5 is_stmt 1 view .LVU174
1237:Drivers/STM32U5xx_HAL_Driver/Src/stm32u5xx_hal_flash_ex.c **** 
1238:Drivers/STM32U5xx_HAL_Driver/Src/stm32u5xx_hal_flash_ex.c ****     /* Set value and mask for SRAM2_ECC option byte */
1239:Drivers/STM32U5xx_HAL_Driver/Src/stm32u5xx_hal_flash_ex.c ****     optr_reg_val |= (UserConfig & FLASH_OPTR_SRAM2_ECC);
 489              		.loc 1 1239 5 view .LVU175
 490              		.loc 1 1239 33 is_stmt 0 view .LVU176
 491 00f0 01F08073 		and	r3, r1, #16777216
 492              		.loc 1 1239 18 view .LVU177
 493 00f4 4CEA030C 		orr	ip, ip, r3
 494              	.LVL48:
1240:Drivers/STM32U5xx_HAL_Driver/Src/stm32u5xx_hal_flash_ex.c ****     optr_reg_mask |= FLASH_OPTR_SRAM2_ECC;
 495              		.loc 1 1240 5 is_stmt 1 view .LVU178
 496              		.loc 1 1240 19 is_stmt 0 view .LVU179
 497 00f8 4EF0807E 		orr	lr, lr, #16777216
 498              	.LVL49:
 499              	.L40:
1241:Drivers/STM32U5xx_HAL_Driver/Src/stm32u5xx_hal_flash_ex.c ****   }
1242:Drivers/STM32U5xx_HAL_Driver/Src/stm32u5xx_hal_flash_ex.c **** 
1243:Drivers/STM32U5xx_HAL_Driver/Src/stm32u5xx_hal_flash_ex.c ****   if ((UserType & OB_USER_SRAM2_RST) != 0U)
 500              		.loc 1 1243 3 is_stmt 1 view .LVU180
 501              		.loc 1 1243 6 is_stmt 0 view .LVU181
 502 00fc 10F4804F 		tst	r0, #16384
 503 0100 05D0     		beq	.L41
1244:Drivers/STM32U5xx_HAL_Driver/Src/stm32u5xx_hal_flash_ex.c ****   {
1245:Drivers/STM32U5xx_HAL_Driver/Src/stm32u5xx_hal_flash_ex.c ****     /* SRAM2_RST option byte should be modified */
1246:Drivers/STM32U5xx_HAL_Driver/Src/stm32u5xx_hal_flash_ex.c ****     assert_param(IS_OB_USER_SRAM2_RST(UserConfig & FLASH_OPTR_SRAM2_RST));
ARM GAS  /tmp/ccudYRdF.s 			page 32


 504              		.loc 1 1246 5 is_stmt 1 view .LVU182
1247:Drivers/STM32U5xx_HAL_Driver/Src/stm32u5xx_hal_flash_ex.c **** 
1248:Drivers/STM32U5xx_HAL_Driver/Src/stm32u5xx_hal_flash_ex.c ****     /* Set value and mask for SRAM2_RST option byte */
1249:Drivers/STM32U5xx_HAL_Driver/Src/stm32u5xx_hal_flash_ex.c ****     optr_reg_val |= (UserConfig & FLASH_OPTR_SRAM2_RST);
 505              		.loc 1 1249 5 view .LVU183
 506              		.loc 1 1249 33 is_stmt 0 view .LVU184
 507 0102 01F00073 		and	r3, r1, #33554432
 508              		.loc 1 1249 18 view .LVU185
 509 0106 4CEA030C 		orr	ip, ip, r3
 510              	.LVL50:
1250:Drivers/STM32U5xx_HAL_Driver/Src/stm32u5xx_hal_flash_ex.c ****     optr_reg_mask |= FLASH_OPTR_SRAM2_RST;
 511              		.loc 1 1250 5 is_stmt 1 view .LVU186
 512              		.loc 1 1250 19 is_stmt 0 view .LVU187
 513 010a 4EF0007E 		orr	lr, lr, #33554432
 514              	.LVL51:
 515              	.L41:
1251:Drivers/STM32U5xx_HAL_Driver/Src/stm32u5xx_hal_flash_ex.c ****   }
1252:Drivers/STM32U5xx_HAL_Driver/Src/stm32u5xx_hal_flash_ex.c **** 
1253:Drivers/STM32U5xx_HAL_Driver/Src/stm32u5xx_hal_flash_ex.c ****   if ((UserType & OB_USER_NSWBOOT0) != 0U)
 516              		.loc 1 1253 3 is_stmt 1 view .LVU188
 517              		.loc 1 1253 6 is_stmt 0 view .LVU189
 518 010e 10F4004F 		tst	r0, #32768
 519 0112 05D0     		beq	.L42
1254:Drivers/STM32U5xx_HAL_Driver/Src/stm32u5xx_hal_flash_ex.c ****   {
1255:Drivers/STM32U5xx_HAL_Driver/Src/stm32u5xx_hal_flash_ex.c ****     /* nSWBOOT0 option byte should be modified */
1256:Drivers/STM32U5xx_HAL_Driver/Src/stm32u5xx_hal_flash_ex.c ****     assert_param(IS_OB_USER_SWBOOT0(UserConfig & FLASH_OPTR_nSWBOOT0));
 520              		.loc 1 1256 5 is_stmt 1 view .LVU190
1257:Drivers/STM32U5xx_HAL_Driver/Src/stm32u5xx_hal_flash_ex.c **** 
1258:Drivers/STM32U5xx_HAL_Driver/Src/stm32u5xx_hal_flash_ex.c ****     /* Set value and mask for nSWBOOT0 option byte */
1259:Drivers/STM32U5xx_HAL_Driver/Src/stm32u5xx_hal_flash_ex.c ****     optr_reg_val |= (UserConfig & FLASH_OPTR_nSWBOOT0);
 521              		.loc 1 1259 5 view .LVU191
 522              		.loc 1 1259 33 is_stmt 0 view .LVU192
 523 0114 01F08063 		and	r3, r1, #67108864
 524              		.loc 1 1259 18 view .LVU193
 525 0118 4CEA030C 		orr	ip, ip, r3
 526              	.LVL52:
1260:Drivers/STM32U5xx_HAL_Driver/Src/stm32u5xx_hal_flash_ex.c ****     optr_reg_mask |= FLASH_OPTR_nSWBOOT0;
 527              		.loc 1 1260 5 is_stmt 1 view .LVU194
 528              		.loc 1 1260 19 is_stmt 0 view .LVU195
 529 011c 4EF0806E 		orr	lr, lr, #67108864
 530              	.LVL53:
 531              	.L42:
1261:Drivers/STM32U5xx_HAL_Driver/Src/stm32u5xx_hal_flash_ex.c ****   }
1262:Drivers/STM32U5xx_HAL_Driver/Src/stm32u5xx_hal_flash_ex.c **** 
1263:Drivers/STM32U5xx_HAL_Driver/Src/stm32u5xx_hal_flash_ex.c ****   if ((UserType & OB_USER_NBOOT0) != 0U)
 532              		.loc 1 1263 3 is_stmt 1 view .LVU196
 533              		.loc 1 1263 6 is_stmt 0 view .LVU197
 534 0120 10F4803F 		tst	r0, #65536
 535 0124 05D0     		beq	.L43
1264:Drivers/STM32U5xx_HAL_Driver/Src/stm32u5xx_hal_flash_ex.c ****   {
1265:Drivers/STM32U5xx_HAL_Driver/Src/stm32u5xx_hal_flash_ex.c ****     /* nBOOT0 option byte should be modified */
1266:Drivers/STM32U5xx_HAL_Driver/Src/stm32u5xx_hal_flash_ex.c ****     assert_param(IS_OB_USER_BOOT0(UserConfig & FLASH_OPTR_nBOOT0));
 536              		.loc 1 1266 5 is_stmt 1 view .LVU198
1267:Drivers/STM32U5xx_HAL_Driver/Src/stm32u5xx_hal_flash_ex.c **** 
1268:Drivers/STM32U5xx_HAL_Driver/Src/stm32u5xx_hal_flash_ex.c ****     /* Set value and mask for nBOOT0 option byte */
1269:Drivers/STM32U5xx_HAL_Driver/Src/stm32u5xx_hal_flash_ex.c ****     optr_reg_val |= (UserConfig & FLASH_OPTR_nBOOT0);
 537              		.loc 1 1269 5 view .LVU199
ARM GAS  /tmp/ccudYRdF.s 			page 33


 538              		.loc 1 1269 33 is_stmt 0 view .LVU200
 539 0126 01F00063 		and	r3, r1, #134217728
 540              		.loc 1 1269 18 view .LVU201
 541 012a 4CEA030C 		orr	ip, ip, r3
 542              	.LVL54:
1270:Drivers/STM32U5xx_HAL_Driver/Src/stm32u5xx_hal_flash_ex.c ****     optr_reg_mask |= FLASH_OPTR_nBOOT0;
 543              		.loc 1 1270 5 is_stmt 1 view .LVU202
 544              		.loc 1 1270 19 is_stmt 0 view .LVU203
 545 012e 4EF0006E 		orr	lr, lr, #134217728
 546              	.LVL55:
 547              	.L43:
1271:Drivers/STM32U5xx_HAL_Driver/Src/stm32u5xx_hal_flash_ex.c ****   }
1272:Drivers/STM32U5xx_HAL_Driver/Src/stm32u5xx_hal_flash_ex.c **** 
1273:Drivers/STM32U5xx_HAL_Driver/Src/stm32u5xx_hal_flash_ex.c ****   if ((UserType & OB_USER_PA15_PUPEN) != 0U)
 548              		.loc 1 1273 3 is_stmt 1 view .LVU204
 549              		.loc 1 1273 6 is_stmt 0 view .LVU205
 550 0132 10F4003F 		tst	r0, #131072
 551 0136 05D0     		beq	.L44
1274:Drivers/STM32U5xx_HAL_Driver/Src/stm32u5xx_hal_flash_ex.c ****   {
1275:Drivers/STM32U5xx_HAL_Driver/Src/stm32u5xx_hal_flash_ex.c ****     /* PA15_PUPEN option byte should be modified */
1276:Drivers/STM32U5xx_HAL_Driver/Src/stm32u5xx_hal_flash_ex.c ****     assert_param(IS_OB_USER_PA15_PUPEN(UserConfig & FLASH_OPTR_PA15_PUPEN));
 552              		.loc 1 1276 5 is_stmt 1 view .LVU206
1277:Drivers/STM32U5xx_HAL_Driver/Src/stm32u5xx_hal_flash_ex.c **** 
1278:Drivers/STM32U5xx_HAL_Driver/Src/stm32u5xx_hal_flash_ex.c ****     /* Set value and mask for nBOOT0 option byte */
1279:Drivers/STM32U5xx_HAL_Driver/Src/stm32u5xx_hal_flash_ex.c ****     optr_reg_val |= (UserConfig & FLASH_OPTR_PA15_PUPEN);
 553              		.loc 1 1279 5 view .LVU207
 554              		.loc 1 1279 33 is_stmt 0 view .LVU208
 555 0138 01F08053 		and	r3, r1, #268435456
 556              		.loc 1 1279 18 view .LVU209
 557 013c 4CEA030C 		orr	ip, ip, r3
 558              	.LVL56:
1280:Drivers/STM32U5xx_HAL_Driver/Src/stm32u5xx_hal_flash_ex.c ****     optr_reg_mask |= FLASH_OPTR_PA15_PUPEN;
 559              		.loc 1 1280 5 is_stmt 1 view .LVU210
 560              		.loc 1 1280 19 is_stmt 0 view .LVU211
 561 0140 4EF0805E 		orr	lr, lr, #268435456
 562              	.LVL57:
 563              	.L44:
1281:Drivers/STM32U5xx_HAL_Driver/Src/stm32u5xx_hal_flash_ex.c ****   }
1282:Drivers/STM32U5xx_HAL_Driver/Src/stm32u5xx_hal_flash_ex.c **** 
1283:Drivers/STM32U5xx_HAL_Driver/Src/stm32u5xx_hal_flash_ex.c ****   if ((UserType & OB_USER_IO_VDD_HSLV) != 0U)
 564              		.loc 1 1283 3 is_stmt 1 view .LVU212
 565              		.loc 1 1283 6 is_stmt 0 view .LVU213
 566 0144 10F4802F 		tst	r0, #262144
 567 0148 05D0     		beq	.L45
1284:Drivers/STM32U5xx_HAL_Driver/Src/stm32u5xx_hal_flash_ex.c ****   {
1285:Drivers/STM32U5xx_HAL_Driver/Src/stm32u5xx_hal_flash_ex.c ****     /* IO_VDD_HSLV option byte should be modified */
1286:Drivers/STM32U5xx_HAL_Driver/Src/stm32u5xx_hal_flash_ex.c ****     assert_param(IS_OB_USER_IO_VDD_HSLV(UserConfig & FLASH_OPTR_IO_VDD_HSLV));
 568              		.loc 1 1286 5 is_stmt 1 view .LVU214
1287:Drivers/STM32U5xx_HAL_Driver/Src/stm32u5xx_hal_flash_ex.c **** 
1288:Drivers/STM32U5xx_HAL_Driver/Src/stm32u5xx_hal_flash_ex.c ****     /* Set value and mask for IO_VDD_HSLV option byte */
1289:Drivers/STM32U5xx_HAL_Driver/Src/stm32u5xx_hal_flash_ex.c ****     optr_reg_val |= (UserConfig & FLASH_OPTR_IO_VDD_HSLV);
 569              		.loc 1 1289 5 view .LVU215
 570              		.loc 1 1289 33 is_stmt 0 view .LVU216
 571 014a 01F00053 		and	r3, r1, #536870912
 572              		.loc 1 1289 18 view .LVU217
 573 014e 4CEA030C 		orr	ip, ip, r3
 574              	.LVL58:
ARM GAS  /tmp/ccudYRdF.s 			page 34


1290:Drivers/STM32U5xx_HAL_Driver/Src/stm32u5xx_hal_flash_ex.c ****     optr_reg_mask |= FLASH_OPTR_IO_VDD_HSLV;
 575              		.loc 1 1290 5 is_stmt 1 view .LVU218
 576              		.loc 1 1290 19 is_stmt 0 view .LVU219
 577 0152 4EF0005E 		orr	lr, lr, #536870912
 578              	.LVL59:
 579              	.L45:
1291:Drivers/STM32U5xx_HAL_Driver/Src/stm32u5xx_hal_flash_ex.c ****   }
1292:Drivers/STM32U5xx_HAL_Driver/Src/stm32u5xx_hal_flash_ex.c **** 
1293:Drivers/STM32U5xx_HAL_Driver/Src/stm32u5xx_hal_flash_ex.c ****   if ((UserType & OB_USER_IO_VDDIO2_HSLV) != 0U)
 580              		.loc 1 1293 3 is_stmt 1 view .LVU220
 581              		.loc 1 1293 6 is_stmt 0 view .LVU221
 582 0156 10F4002F 		tst	r0, #524288
 583 015a 05D0     		beq	.L46
1294:Drivers/STM32U5xx_HAL_Driver/Src/stm32u5xx_hal_flash_ex.c ****   {
1295:Drivers/STM32U5xx_HAL_Driver/Src/stm32u5xx_hal_flash_ex.c ****     /* IO_VDDIO2_HSLV option byte should be modified */
1296:Drivers/STM32U5xx_HAL_Driver/Src/stm32u5xx_hal_flash_ex.c ****     assert_param(IS_OB_USER_IO_VDDIO2_HSLV(UserConfig & FLASH_OPTR_IO_VDDIO2_HSLV));
 584              		.loc 1 1296 5 is_stmt 1 view .LVU222
1297:Drivers/STM32U5xx_HAL_Driver/Src/stm32u5xx_hal_flash_ex.c **** 
1298:Drivers/STM32U5xx_HAL_Driver/Src/stm32u5xx_hal_flash_ex.c ****     /* Set value and mask for IO_VDDIO2_HSLV option byte */
1299:Drivers/STM32U5xx_HAL_Driver/Src/stm32u5xx_hal_flash_ex.c ****     optr_reg_val |= (UserConfig & FLASH_OPTR_IO_VDDIO2_HSLV);
 585              		.loc 1 1299 5 view .LVU223
 586              		.loc 1 1299 33 is_stmt 0 view .LVU224
 587 015c 01F08043 		and	r3, r1, #1073741824
 588              		.loc 1 1299 18 view .LVU225
 589 0160 4CEA030C 		orr	ip, ip, r3
 590              	.LVL60:
1300:Drivers/STM32U5xx_HAL_Driver/Src/stm32u5xx_hal_flash_ex.c ****     optr_reg_mask |= FLASH_OPTR_IO_VDDIO2_HSLV;
 591              		.loc 1 1300 5 is_stmt 1 view .LVU226
 592              		.loc 1 1300 19 is_stmt 0 view .LVU227
 593 0164 4EF0804E 		orr	lr, lr, #1073741824
 594              	.LVL61:
 595              	.L46:
1301:Drivers/STM32U5xx_HAL_Driver/Src/stm32u5xx_hal_flash_ex.c ****   }
1302:Drivers/STM32U5xx_HAL_Driver/Src/stm32u5xx_hal_flash_ex.c **** 
1303:Drivers/STM32U5xx_HAL_Driver/Src/stm32u5xx_hal_flash_ex.c ****   if ((UserType & OB_USER_TZEN) != 0U)
 596              		.loc 1 1303 3 is_stmt 1 view .LVU228
 597              		.loc 1 1303 6 is_stmt 0 view .LVU229
 598 0168 10F4801F 		tst	r0, #1048576
 599 016c 05D0     		beq	.L47
1304:Drivers/STM32U5xx_HAL_Driver/Src/stm32u5xx_hal_flash_ex.c ****   {
1305:Drivers/STM32U5xx_HAL_Driver/Src/stm32u5xx_hal_flash_ex.c ****     /* TZEN option byte should be modified */
1306:Drivers/STM32U5xx_HAL_Driver/Src/stm32u5xx_hal_flash_ex.c ****     assert_param(IS_OB_USER_TZEN(UserConfig & FLASH_OPTR_TZEN));
 600              		.loc 1 1306 5 is_stmt 1 view .LVU230
1307:Drivers/STM32U5xx_HAL_Driver/Src/stm32u5xx_hal_flash_ex.c **** 
1308:Drivers/STM32U5xx_HAL_Driver/Src/stm32u5xx_hal_flash_ex.c ****     /* Set value and mask for TZEN option byte */
1309:Drivers/STM32U5xx_HAL_Driver/Src/stm32u5xx_hal_flash_ex.c ****     optr_reg_val |= (UserConfig & FLASH_OPTR_TZEN);
 601              		.loc 1 1309 5 view .LVU231
 602              		.loc 1 1309 33 is_stmt 0 view .LVU232
 603 016e 01F00041 		and	r1, r1, #-2147483648
 604              	.LVL62:
 605              		.loc 1 1309 18 view .LVU233
 606 0172 4CEA010C 		orr	ip, ip, r1
 607              	.LVL63:
1310:Drivers/STM32U5xx_HAL_Driver/Src/stm32u5xx_hal_flash_ex.c ****     optr_reg_mask |= FLASH_OPTR_TZEN;
 608              		.loc 1 1310 5 is_stmt 1 view .LVU234
 609              		.loc 1 1310 19 is_stmt 0 view .LVU235
 610 0176 4EF0004E 		orr	lr, lr, #-2147483648
ARM GAS  /tmp/ccudYRdF.s 			page 35


 611              	.LVL64:
 612              	.L47:
1311:Drivers/STM32U5xx_HAL_Driver/Src/stm32u5xx_hal_flash_ex.c ****   }
1312:Drivers/STM32U5xx_HAL_Driver/Src/stm32u5xx_hal_flash_ex.c **** 
1313:Drivers/STM32U5xx_HAL_Driver/Src/stm32u5xx_hal_flash_ex.c ****   /* Configure the option bytes register */
1314:Drivers/STM32U5xx_HAL_Driver/Src/stm32u5xx_hal_flash_ex.c ****   MODIFY_REG(FLASH->OPTR, optr_reg_mask, optr_reg_val);
 613              		.loc 1 1314 3 is_stmt 1 view .LVU236
 614 017a 054A     		ldr	r2, .L50
 615 017c 136C     		ldr	r3, [r2, #64]
 616 017e 23EA0E03 		bic	r3, r3, lr
 617 0182 43EA0C03 		orr	r3, r3, ip
 618 0186 1364     		str	r3, [r2, #64]
1315:Drivers/STM32U5xx_HAL_Driver/Src/stm32u5xx_hal_flash_ex.c **** }
 619              		.loc 1 1315 1 is_stmt 0 view .LVU237
 620 0188 5DF804FB 		ldr	pc, [sp], #4
 621              	.LVL65:
 622              	.L48:
1098:Drivers/STM32U5xx_HAL_Driver/Src/stm32u5xx_hal_flash_ex.c **** 
 623              		.loc 1 1098 12 view .LVU238
 624 018c E646     		mov	lr, ip
 625 018e 40E7     		b	.L27
 626              	.L51:
 627              		.align	2
 628              	.L50:
 629 0190 00200240 		.word	1073881088
 630              		.cfi_endproc
 631              	.LFE362:
 633              		.section	.text.FLASH_OB_BootAddrConfig,"ax",%progbits
 634              		.align	1
 635              		.syntax unified
 636              		.thumb
 637              		.thumb_func
 639              	FLASH_OB_BootAddrConfig:
 640              	.LVL66:
 641              	.LFB363:
1316:Drivers/STM32U5xx_HAL_Driver/Src/stm32u5xx_hal_flash_ex.c **** 
1317:Drivers/STM32U5xx_HAL_Driver/Src/stm32u5xx_hal_flash_ex.c **** #if defined (__ARM_FEATURE_CMSE) && (__ARM_FEATURE_CMSE == 3U)
1318:Drivers/STM32U5xx_HAL_Driver/Src/stm32u5xx_hal_flash_ex.c **** /**
1319:Drivers/STM32U5xx_HAL_Driver/Src/stm32u5xx_hal_flash_ex.c ****   * @brief  Configure the watermarked-based secure area.
1320:Drivers/STM32U5xx_HAL_Driver/Src/stm32u5xx_hal_flash_ex.c ****   *
1321:Drivers/STM32U5xx_HAL_Driver/Src/stm32u5xx_hal_flash_ex.c ****   * @param  WMSecConfig specifies the area to be configured.
1322:Drivers/STM32U5xx_HAL_Driver/Src/stm32u5xx_hal_flash_ex.c ****   *          This parameter can be a combination of the following values:
1323:Drivers/STM32U5xx_HAL_Driver/Src/stm32u5xx_hal_flash_ex.c ****   *            @arg OB_WMSEC_AREA1 or @arg OB_WMSEC_AREA2: Select Flash Secure Area 1 or Area 2
1324:Drivers/STM32U5xx_HAL_Driver/Src/stm32u5xx_hal_flash_ex.c ****   *            @arg OB_WMSEC_SECURE_AREA_CONFIG: configure Flash Secure Area
1325:Drivers/STM32U5xx_HAL_Driver/Src/stm32u5xx_hal_flash_ex.c ****   *            @arg OB_WMSEC_HDP_AREA_CONFIG: configure Flash secure hide Area
1326:Drivers/STM32U5xx_HAL_Driver/Src/stm32u5xx_hal_flash_ex.c ****   *            @arg OB_WMSEC_HDP_AREA_ENABLE: enable secure hide Area in Secure Area
1327:Drivers/STM32U5xx_HAL_Driver/Src/stm32u5xx_hal_flash_ex.c ****   *            @arg OB_WMSEC_HDP_AREA_DISABLE: disable secure hide Area in Secure Area
1328:Drivers/STM32U5xx_HAL_Driver/Src/stm32u5xx_hal_flash_ex.c ****   *
1329:Drivers/STM32U5xx_HAL_Driver/Src/stm32u5xx_hal_flash_ex.c ****   * @param  WMSecStartPage specifies the start page of the secure area
1330:Drivers/STM32U5xx_HAL_Driver/Src/stm32u5xx_hal_flash_ex.c ****   *          This parameter can be page number between 0 and (max number of pages in the bank - 1)
1331:Drivers/STM32U5xx_HAL_Driver/Src/stm32u5xx_hal_flash_ex.c ****   *
1332:Drivers/STM32U5xx_HAL_Driver/Src/stm32u5xx_hal_flash_ex.c ****   * @param  WMSecEndPage specifies the end page of the secure area
1333:Drivers/STM32U5xx_HAL_Driver/Src/stm32u5xx_hal_flash_ex.c ****   *          This parameter can be page number between WMSecStartPage and (max number of pages in t
1334:Drivers/STM32U5xx_HAL_Driver/Src/stm32u5xx_hal_flash_ex.c ****   *
1335:Drivers/STM32U5xx_HAL_Driver/Src/stm32u5xx_hal_flash_ex.c ****   * @param  WMHDPEndPage specifies the end page of the secure hide area
1336:Drivers/STM32U5xx_HAL_Driver/Src/stm32u5xx_hal_flash_ex.c ****   *         This parameter can be a page number between WMSecStartPage and WMSecEndPage
1337:Drivers/STM32U5xx_HAL_Driver/Src/stm32u5xx_hal_flash_ex.c ****   *
ARM GAS  /tmp/ccudYRdF.s 			page 36


1338:Drivers/STM32U5xx_HAL_Driver/Src/stm32u5xx_hal_flash_ex.c ****   * @retval None
1339:Drivers/STM32U5xx_HAL_Driver/Src/stm32u5xx_hal_flash_ex.c ****   */
1340:Drivers/STM32U5xx_HAL_Driver/Src/stm32u5xx_hal_flash_ex.c **** static void FLASH_OB_WMSECConfig(uint32_t WMSecConfig, uint32_t WMSecStartPage, uint32_t WMSecEndPa
1341:Drivers/STM32U5xx_HAL_Driver/Src/stm32u5xx_hal_flash_ex.c ****                                  uint32_t WMHDPEndPage)
1342:Drivers/STM32U5xx_HAL_Driver/Src/stm32u5xx_hal_flash_ex.c **** {
1343:Drivers/STM32U5xx_HAL_Driver/Src/stm32u5xx_hal_flash_ex.c ****   uint32_t tmp_secwm1 = 0U;
1344:Drivers/STM32U5xx_HAL_Driver/Src/stm32u5xx_hal_flash_ex.c ****   uint32_t tmp_secwm2 = 0U;
1345:Drivers/STM32U5xx_HAL_Driver/Src/stm32u5xx_hal_flash_ex.c **** 
1346:Drivers/STM32U5xx_HAL_Driver/Src/stm32u5xx_hal_flash_ex.c ****   /* Check the parameters */
1347:Drivers/STM32U5xx_HAL_Driver/Src/stm32u5xx_hal_flash_ex.c ****   assert_param(IS_OB_WMSEC_CONFIG(WMSecConfig));
1348:Drivers/STM32U5xx_HAL_Driver/Src/stm32u5xx_hal_flash_ex.c ****   assert_param(IS_OB_WMSEC_AREA_EXCLUSIVE(WMSecConfig & 0x3U));
1349:Drivers/STM32U5xx_HAL_Driver/Src/stm32u5xx_hal_flash_ex.c ****   assert_param(IS_FLASH_PAGE(WMSecStartPage));
1350:Drivers/STM32U5xx_HAL_Driver/Src/stm32u5xx_hal_flash_ex.c ****   assert_param(IS_FLASH_PAGE(WMSecEndPage));
1351:Drivers/STM32U5xx_HAL_Driver/Src/stm32u5xx_hal_flash_ex.c ****   assert_param(IS_FLASH_PAGE(WMHDPEndPage));
1352:Drivers/STM32U5xx_HAL_Driver/Src/stm32u5xx_hal_flash_ex.c **** 
1353:Drivers/STM32U5xx_HAL_Driver/Src/stm32u5xx_hal_flash_ex.c ****   /* Read SECWM registers */
1354:Drivers/STM32U5xx_HAL_Driver/Src/stm32u5xx_hal_flash_ex.c ****   if ((WMSecConfig & OB_WMSEC_AREA1) != 0U)
1355:Drivers/STM32U5xx_HAL_Driver/Src/stm32u5xx_hal_flash_ex.c ****   {
1356:Drivers/STM32U5xx_HAL_Driver/Src/stm32u5xx_hal_flash_ex.c ****     tmp_secwm1 = FLASH->SECWM1R1;
1357:Drivers/STM32U5xx_HAL_Driver/Src/stm32u5xx_hal_flash_ex.c ****     tmp_secwm2 = FLASH->SECWM1R2;
1358:Drivers/STM32U5xx_HAL_Driver/Src/stm32u5xx_hal_flash_ex.c ****   }
1359:Drivers/STM32U5xx_HAL_Driver/Src/stm32u5xx_hal_flash_ex.c ****   else if ((WMSecConfig & OB_WMSEC_AREA2) != 0U)
1360:Drivers/STM32U5xx_HAL_Driver/Src/stm32u5xx_hal_flash_ex.c ****   {
1361:Drivers/STM32U5xx_HAL_Driver/Src/stm32u5xx_hal_flash_ex.c ****     tmp_secwm1 = FLASH->SECWM2R1;
1362:Drivers/STM32U5xx_HAL_Driver/Src/stm32u5xx_hal_flash_ex.c ****     tmp_secwm2 = FLASH->SECWM2R2;
1363:Drivers/STM32U5xx_HAL_Driver/Src/stm32u5xx_hal_flash_ex.c ****   }
1364:Drivers/STM32U5xx_HAL_Driver/Src/stm32u5xx_hal_flash_ex.c ****   else
1365:Drivers/STM32U5xx_HAL_Driver/Src/stm32u5xx_hal_flash_ex.c ****   {
1366:Drivers/STM32U5xx_HAL_Driver/Src/stm32u5xx_hal_flash_ex.c ****     /* Nothing to do */
1367:Drivers/STM32U5xx_HAL_Driver/Src/stm32u5xx_hal_flash_ex.c ****   }
1368:Drivers/STM32U5xx_HAL_Driver/Src/stm32u5xx_hal_flash_ex.c **** 
1369:Drivers/STM32U5xx_HAL_Driver/Src/stm32u5xx_hal_flash_ex.c ****   /* Configure Secure Area */
1370:Drivers/STM32U5xx_HAL_Driver/Src/stm32u5xx_hal_flash_ex.c ****   if ((WMSecConfig & OB_WMSEC_SECURE_AREA_CONFIG) != 0U)
1371:Drivers/STM32U5xx_HAL_Driver/Src/stm32u5xx_hal_flash_ex.c ****   {
1372:Drivers/STM32U5xx_HAL_Driver/Src/stm32u5xx_hal_flash_ex.c ****     tmp_secwm1 = ((WMSecEndPage << FLASH_SECWM1R1_SECWM1_PEND_Pos) | WMSecStartPage);
1373:Drivers/STM32U5xx_HAL_Driver/Src/stm32u5xx_hal_flash_ex.c ****   }
1374:Drivers/STM32U5xx_HAL_Driver/Src/stm32u5xx_hal_flash_ex.c **** 
1375:Drivers/STM32U5xx_HAL_Driver/Src/stm32u5xx_hal_flash_ex.c ****   /* Configure Secure Hide Area */
1376:Drivers/STM32U5xx_HAL_Driver/Src/stm32u5xx_hal_flash_ex.c ****   if ((WMSecConfig & OB_WMSEC_HDP_AREA_CONFIG) != 0U)
1377:Drivers/STM32U5xx_HAL_Driver/Src/stm32u5xx_hal_flash_ex.c ****   {
1378:Drivers/STM32U5xx_HAL_Driver/Src/stm32u5xx_hal_flash_ex.c ****     tmp_secwm2 &= (~FLASH_SECWM1R2_HDP1_PEND);
1379:Drivers/STM32U5xx_HAL_Driver/Src/stm32u5xx_hal_flash_ex.c ****     tmp_secwm2 |= (WMHDPEndPage << FLASH_SECWM1R2_HDP1_PEND_Pos);
1380:Drivers/STM32U5xx_HAL_Driver/Src/stm32u5xx_hal_flash_ex.c ****   }
1381:Drivers/STM32U5xx_HAL_Driver/Src/stm32u5xx_hal_flash_ex.c **** 
1382:Drivers/STM32U5xx_HAL_Driver/Src/stm32u5xx_hal_flash_ex.c ****   /* Enable Secure Hide Area */
1383:Drivers/STM32U5xx_HAL_Driver/Src/stm32u5xx_hal_flash_ex.c ****   if ((WMSecConfig & OB_WMSEC_HDP_AREA_ENABLE) != 0U)
1384:Drivers/STM32U5xx_HAL_Driver/Src/stm32u5xx_hal_flash_ex.c ****   {
1385:Drivers/STM32U5xx_HAL_Driver/Src/stm32u5xx_hal_flash_ex.c ****     tmp_secwm2 |= FLASH_SECWM1R2_HDP1EN;
1386:Drivers/STM32U5xx_HAL_Driver/Src/stm32u5xx_hal_flash_ex.c ****   }
1387:Drivers/STM32U5xx_HAL_Driver/Src/stm32u5xx_hal_flash_ex.c **** 
1388:Drivers/STM32U5xx_HAL_Driver/Src/stm32u5xx_hal_flash_ex.c ****   /* Disable Secure Hide Area */
1389:Drivers/STM32U5xx_HAL_Driver/Src/stm32u5xx_hal_flash_ex.c ****   if ((WMSecConfig & OB_WMSEC_HDP_AREA_DISABLE) != 0U)
1390:Drivers/STM32U5xx_HAL_Driver/Src/stm32u5xx_hal_flash_ex.c ****   {
1391:Drivers/STM32U5xx_HAL_Driver/Src/stm32u5xx_hal_flash_ex.c ****     tmp_secwm2 &= (~FLASH_SECWM1R2_HDP1EN);
1392:Drivers/STM32U5xx_HAL_Driver/Src/stm32u5xx_hal_flash_ex.c ****   }
1393:Drivers/STM32U5xx_HAL_Driver/Src/stm32u5xx_hal_flash_ex.c **** 
1394:Drivers/STM32U5xx_HAL_Driver/Src/stm32u5xx_hal_flash_ex.c ****   /* Write SECWM registers */
ARM GAS  /tmp/ccudYRdF.s 			page 37


1395:Drivers/STM32U5xx_HAL_Driver/Src/stm32u5xx_hal_flash_ex.c ****   if ((WMSecConfig & OB_WMSEC_AREA1) != 0U)
1396:Drivers/STM32U5xx_HAL_Driver/Src/stm32u5xx_hal_flash_ex.c ****   {
1397:Drivers/STM32U5xx_HAL_Driver/Src/stm32u5xx_hal_flash_ex.c ****     FLASH->SECWM1R1 = tmp_secwm1;
1398:Drivers/STM32U5xx_HAL_Driver/Src/stm32u5xx_hal_flash_ex.c ****     FLASH->SECWM1R2 = tmp_secwm2;
1399:Drivers/STM32U5xx_HAL_Driver/Src/stm32u5xx_hal_flash_ex.c ****   }
1400:Drivers/STM32U5xx_HAL_Driver/Src/stm32u5xx_hal_flash_ex.c ****   else if ((WMSecConfig & OB_WMSEC_AREA2) != 0U)
1401:Drivers/STM32U5xx_HAL_Driver/Src/stm32u5xx_hal_flash_ex.c ****   {
1402:Drivers/STM32U5xx_HAL_Driver/Src/stm32u5xx_hal_flash_ex.c ****     FLASH->SECWM2R1 = tmp_secwm1;
1403:Drivers/STM32U5xx_HAL_Driver/Src/stm32u5xx_hal_flash_ex.c ****     FLASH->SECWM2R2 = tmp_secwm2;
1404:Drivers/STM32U5xx_HAL_Driver/Src/stm32u5xx_hal_flash_ex.c ****   }
1405:Drivers/STM32U5xx_HAL_Driver/Src/stm32u5xx_hal_flash_ex.c ****   else
1406:Drivers/STM32U5xx_HAL_Driver/Src/stm32u5xx_hal_flash_ex.c ****   {
1407:Drivers/STM32U5xx_HAL_Driver/Src/stm32u5xx_hal_flash_ex.c ****     /* Nothing to do */
1408:Drivers/STM32U5xx_HAL_Driver/Src/stm32u5xx_hal_flash_ex.c ****   }
1409:Drivers/STM32U5xx_HAL_Driver/Src/stm32u5xx_hal_flash_ex.c **** }
1410:Drivers/STM32U5xx_HAL_Driver/Src/stm32u5xx_hal_flash_ex.c **** 
1411:Drivers/STM32U5xx_HAL_Driver/Src/stm32u5xx_hal_flash_ex.c **** /**
1412:Drivers/STM32U5xx_HAL_Driver/Src/stm32u5xx_hal_flash_ex.c ****   * @brief  Configure the boot lock.
1413:Drivers/STM32U5xx_HAL_Driver/Src/stm32u5xx_hal_flash_ex.c ****   *
1414:Drivers/STM32U5xx_HAL_Driver/Src/stm32u5xx_hal_flash_ex.c ****   * @param  BootLockConfig specifies the activation of the BOOT_LOCK.
1415:Drivers/STM32U5xx_HAL_Driver/Src/stm32u5xx_hal_flash_ex.c ****   *          This parameter can be one of the following values:
1416:Drivers/STM32U5xx_HAL_Driver/Src/stm32u5xx_hal_flash_ex.c ****   *            @arg OB_BOOT_LOCK_DISABLE: Boot Lock mode deactivated
1417:Drivers/STM32U5xx_HAL_Driver/Src/stm32u5xx_hal_flash_ex.c ****   *            @arg OB_BOOT_LOCK_ENABLE: Boot Lock mode activated
1418:Drivers/STM32U5xx_HAL_Driver/Src/stm32u5xx_hal_flash_ex.c ****   *
1419:Drivers/STM32U5xx_HAL_Driver/Src/stm32u5xx_hal_flash_ex.c ****   * @retval None
1420:Drivers/STM32U5xx_HAL_Driver/Src/stm32u5xx_hal_flash_ex.c ****   */
1421:Drivers/STM32U5xx_HAL_Driver/Src/stm32u5xx_hal_flash_ex.c **** static void FLASH_OB_BootLockConfig(uint32_t BootLockConfig)
1422:Drivers/STM32U5xx_HAL_Driver/Src/stm32u5xx_hal_flash_ex.c **** {
1423:Drivers/STM32U5xx_HAL_Driver/Src/stm32u5xx_hal_flash_ex.c ****   /* Check the parameters */
1424:Drivers/STM32U5xx_HAL_Driver/Src/stm32u5xx_hal_flash_ex.c ****   assert_param(IS_OB_BOOT_LOCK(BootLockConfig));
1425:Drivers/STM32U5xx_HAL_Driver/Src/stm32u5xx_hal_flash_ex.c **** 
1426:Drivers/STM32U5xx_HAL_Driver/Src/stm32u5xx_hal_flash_ex.c ****   /* Configure the option bytes register */
1427:Drivers/STM32U5xx_HAL_Driver/Src/stm32u5xx_hal_flash_ex.c ****   MODIFY_REG(FLASH->SECBOOTADD0R, FLASH_SECBOOTADD0R_BOOT_LOCK, BootLockConfig);
1428:Drivers/STM32U5xx_HAL_Driver/Src/stm32u5xx_hal_flash_ex.c **** }
1429:Drivers/STM32U5xx_HAL_Driver/Src/stm32u5xx_hal_flash_ex.c **** #endif /* __ARM_FEATURE_CMSE */
1430:Drivers/STM32U5xx_HAL_Driver/Src/stm32u5xx_hal_flash_ex.c **** 
1431:Drivers/STM32U5xx_HAL_Driver/Src/stm32u5xx_hal_flash_ex.c **** /**
1432:Drivers/STM32U5xx_HAL_Driver/Src/stm32u5xx_hal_flash_ex.c ****   * @brief  Configure the boot address.
1433:Drivers/STM32U5xx_HAL_Driver/Src/stm32u5xx_hal_flash_ex.c ****   *
1434:Drivers/STM32U5xx_HAL_Driver/Src/stm32u5xx_hal_flash_ex.c ****   * @param  BootAddrConfig specifies the area to be configured.
1435:Drivers/STM32U5xx_HAL_Driver/Src/stm32u5xx_hal_flash_ex.c ****   *          This parameter can be one of the following values:
1436:Drivers/STM32U5xx_HAL_Driver/Src/stm32u5xx_hal_flash_ex.c ****   *            @arg OB_BOOTADDR_NS0: Non-secure boot address 0
1437:Drivers/STM32U5xx_HAL_Driver/Src/stm32u5xx_hal_flash_ex.c ****   *            @arg OB_BOOTADDR_NS1: Non-secure boot address 1
1438:Drivers/STM32U5xx_HAL_Driver/Src/stm32u5xx_hal_flash_ex.c ****   *            @arg OB_BOOTADDR_SEC0: Secure boot address 0
1439:Drivers/STM32U5xx_HAL_Driver/Src/stm32u5xx_hal_flash_ex.c ****   *
1440:Drivers/STM32U5xx_HAL_Driver/Src/stm32u5xx_hal_flash_ex.c ****   * @param  BootAddr: specifies the address used for the boot
1441:Drivers/STM32U5xx_HAL_Driver/Src/stm32u5xx_hal_flash_ex.c ****   *          This parameter can be page number between 0 and 0xFFFFFF00
1442:Drivers/STM32U5xx_HAL_Driver/Src/stm32u5xx_hal_flash_ex.c ****   *
1443:Drivers/STM32U5xx_HAL_Driver/Src/stm32u5xx_hal_flash_ex.c ****   * @retval None
1444:Drivers/STM32U5xx_HAL_Driver/Src/stm32u5xx_hal_flash_ex.c ****   */
1445:Drivers/STM32U5xx_HAL_Driver/Src/stm32u5xx_hal_flash_ex.c **** static void FLASH_OB_BootAddrConfig(uint32_t BootAddrConfig, uint32_t BootAddr)
1446:Drivers/STM32U5xx_HAL_Driver/Src/stm32u5xx_hal_flash_ex.c **** {
 642              		.loc 1 1446 1 is_stmt 1 view -0
 643              		.cfi_startproc
 644              		@ args = 0, pretend = 0, frame = 0
 645              		@ frame_needed = 0, uses_anonymous_args = 0
 646              		@ link register save eliminated.
ARM GAS  /tmp/ccudYRdF.s 			page 38


1447:Drivers/STM32U5xx_HAL_Driver/Src/stm32u5xx_hal_flash_ex.c ****   /* Check the parameters */
1448:Drivers/STM32U5xx_HAL_Driver/Src/stm32u5xx_hal_flash_ex.c ****   assert_param(IS_OB_BOOTADDR_CONFIG(BootAddrConfig));
 647              		.loc 1 1448 3 view .LVU240
1449:Drivers/STM32U5xx_HAL_Driver/Src/stm32u5xx_hal_flash_ex.c **** 
1450:Drivers/STM32U5xx_HAL_Driver/Src/stm32u5xx_hal_flash_ex.c ****   if (BootAddrConfig == OB_BOOTADDR_NS0)
 648              		.loc 1 1450 3 view .LVU241
 649              		.loc 1 1450 6 is_stmt 0 view .LVU242
 650 0000 0128     		cmp	r0, #1
 651 0002 02D0     		beq	.L55
1451:Drivers/STM32U5xx_HAL_Driver/Src/stm32u5xx_hal_flash_ex.c ****   {
1452:Drivers/STM32U5xx_HAL_Driver/Src/stm32u5xx_hal_flash_ex.c ****     FLASH->NSBOOTADD0R = BootAddr;
1453:Drivers/STM32U5xx_HAL_Driver/Src/stm32u5xx_hal_flash_ex.c ****   }
1454:Drivers/STM32U5xx_HAL_Driver/Src/stm32u5xx_hal_flash_ex.c ****   else if (BootAddrConfig == OB_BOOTADDR_NS1)
 652              		.loc 1 1454 8 is_stmt 1 view .LVU243
 653              		.loc 1 1454 11 is_stmt 0 view .LVU244
 654 0004 0228     		cmp	r0, #2
 655 0006 03D0     		beq	.L56
 656              	.L52:
1455:Drivers/STM32U5xx_HAL_Driver/Src/stm32u5xx_hal_flash_ex.c ****   {
1456:Drivers/STM32U5xx_HAL_Driver/Src/stm32u5xx_hal_flash_ex.c ****     FLASH->NSBOOTADD1R = BootAddr;
1457:Drivers/STM32U5xx_HAL_Driver/Src/stm32u5xx_hal_flash_ex.c ****   }
1458:Drivers/STM32U5xx_HAL_Driver/Src/stm32u5xx_hal_flash_ex.c **** #if defined (__ARM_FEATURE_CMSE) && (__ARM_FEATURE_CMSE == 3U)
1459:Drivers/STM32U5xx_HAL_Driver/Src/stm32u5xx_hal_flash_ex.c ****   else if (BootAddrConfig == OB_BOOTADDR_SEC0)
1460:Drivers/STM32U5xx_HAL_Driver/Src/stm32u5xx_hal_flash_ex.c ****   {
1461:Drivers/STM32U5xx_HAL_Driver/Src/stm32u5xx_hal_flash_ex.c ****     MODIFY_REG(FLASH->SECBOOTADD0R, FLASH_SECBOOTADD0R_SECBOOTADD0, BootAddr);
1462:Drivers/STM32U5xx_HAL_Driver/Src/stm32u5xx_hal_flash_ex.c ****   }
1463:Drivers/STM32U5xx_HAL_Driver/Src/stm32u5xx_hal_flash_ex.c **** #endif /* __ARM_FEATURE_CMSE */
1464:Drivers/STM32U5xx_HAL_Driver/Src/stm32u5xx_hal_flash_ex.c ****   else
1465:Drivers/STM32U5xx_HAL_Driver/Src/stm32u5xx_hal_flash_ex.c ****   {
1466:Drivers/STM32U5xx_HAL_Driver/Src/stm32u5xx_hal_flash_ex.c ****     /* Empty statement (to be compliant MISRA 15.7) */
1467:Drivers/STM32U5xx_HAL_Driver/Src/stm32u5xx_hal_flash_ex.c ****   }
1468:Drivers/STM32U5xx_HAL_Driver/Src/stm32u5xx_hal_flash_ex.c **** }
 657              		.loc 1 1468 1 view .LVU245
 658 0008 7047     		bx	lr
 659              	.L55:
1452:Drivers/STM32U5xx_HAL_Driver/Src/stm32u5xx_hal_flash_ex.c ****   }
 660              		.loc 1 1452 5 is_stmt 1 view .LVU246
1452:Drivers/STM32U5xx_HAL_Driver/Src/stm32u5xx_hal_flash_ex.c ****   }
 661              		.loc 1 1452 24 is_stmt 0 view .LVU247
 662 000a 034B     		ldr	r3, .L57
 663 000c 5964     		str	r1, [r3, #68]
 664 000e 7047     		bx	lr
 665              	.L56:
1456:Drivers/STM32U5xx_HAL_Driver/Src/stm32u5xx_hal_flash_ex.c ****   }
 666              		.loc 1 1456 5 is_stmt 1 view .LVU248
1456:Drivers/STM32U5xx_HAL_Driver/Src/stm32u5xx_hal_flash_ex.c ****   }
 667              		.loc 1 1456 24 is_stmt 0 view .LVU249
 668 0010 014B     		ldr	r3, .L57
 669 0012 9964     		str	r1, [r3, #72]
1467:Drivers/STM32U5xx_HAL_Driver/Src/stm32u5xx_hal_flash_ex.c **** }
 670              		.loc 1 1467 3 is_stmt 1 view .LVU250
 671              		.loc 1 1468 1 is_stmt 0 view .LVU251
 672 0014 F8E7     		b	.L52
 673              	.L58:
 674 0016 00BF     		.align	2
 675              	.L57:
 676 0018 00200240 		.word	1073881088
ARM GAS  /tmp/ccudYRdF.s 			page 39


 677              		.cfi_endproc
 678              	.LFE363:
 680              		.section	.text.FLASH_OB_GetWRP,"ax",%progbits
 681              		.align	1
 682              		.syntax unified
 683              		.thumb
 684              		.thumb_func
 686              	FLASH_OB_GetWRP:
 687              	.LVL67:
 688              	.LFB364:
1469:Drivers/STM32U5xx_HAL_Driver/Src/stm32u5xx_hal_flash_ex.c **** 
1470:Drivers/STM32U5xx_HAL_Driver/Src/stm32u5xx_hal_flash_ex.c **** /**
1471:Drivers/STM32U5xx_HAL_Driver/Src/stm32u5xx_hal_flash_ex.c ****   * @brief  Return the FLASH Write Protection Option Bytes value.
1472:Drivers/STM32U5xx_HAL_Driver/Src/stm32u5xx_hal_flash_ex.c ****   *
1473:Drivers/STM32U5xx_HAL_Driver/Src/stm32u5xx_hal_flash_ex.c ****   * @param[in]  WRPArea specifies the area to be returned.
1474:Drivers/STM32U5xx_HAL_Driver/Src/stm32u5xx_hal_flash_ex.c ****   *          This parameter can be one of the following values:
1475:Drivers/STM32U5xx_HAL_Driver/Src/stm32u5xx_hal_flash_ex.c ****   *            @arg OB_WRPAREA_BANK1_AREAA: Flash Bank 1 Area A
1476:Drivers/STM32U5xx_HAL_Driver/Src/stm32u5xx_hal_flash_ex.c ****   *            @arg OB_WRPAREA_BANK1_AREAB: Flash Bank 1 Area B
1477:Drivers/STM32U5xx_HAL_Driver/Src/stm32u5xx_hal_flash_ex.c ****   *            @arg OB_WRPAREA_BANK2_AREAA: Flash Bank 2 Area A
1478:Drivers/STM32U5xx_HAL_Driver/Src/stm32u5xx_hal_flash_ex.c ****   *            @arg OB_WRPAREA_BANK2_AREAB: Flash Bank 2 Area B
1479:Drivers/STM32U5xx_HAL_Driver/Src/stm32u5xx_hal_flash_ex.c ****   *
1480:Drivers/STM32U5xx_HAL_Driver/Src/stm32u5xx_hal_flash_ex.c ****   * @param[out]  WRPStartOffset specifies the address where to copied the start page
1481:Drivers/STM32U5xx_HAL_Driver/Src/stm32u5xx_hal_flash_ex.c ****   *              of the write protected area
1482:Drivers/STM32U5xx_HAL_Driver/Src/stm32u5xx_hal_flash_ex.c ****   *
1483:Drivers/STM32U5xx_HAL_Driver/Src/stm32u5xx_hal_flash_ex.c ****   * @param[out]  WRPEndOffset specifies the address where to copied the end page of
1484:Drivers/STM32U5xx_HAL_Driver/Src/stm32u5xx_hal_flash_ex.c ****   *              the write protected area
1485:Drivers/STM32U5xx_HAL_Driver/Src/stm32u5xx_hal_flash_ex.c ****   *
1486:Drivers/STM32U5xx_HAL_Driver/Src/stm32u5xx_hal_flash_ex.c ****   * @param[out]  WRPLock specifies the lock status of the write protected area.
1487:Drivers/STM32U5xx_HAL_Driver/Src/stm32u5xx_hal_flash_ex.c ****   *              The returned value can be ENABLE or DISABLE
1488:Drivers/STM32U5xx_HAL_Driver/Src/stm32u5xx_hal_flash_ex.c ****   *
1489:Drivers/STM32U5xx_HAL_Driver/Src/stm32u5xx_hal_flash_ex.c ****   * @retval None
1490:Drivers/STM32U5xx_HAL_Driver/Src/stm32u5xx_hal_flash_ex.c ****   */
1491:Drivers/STM32U5xx_HAL_Driver/Src/stm32u5xx_hal_flash_ex.c **** static void FLASH_OB_GetWRP(uint32_t WRPArea, uint32_t *WRPStartOffset, uint32_t *WRPEndOffset,
1492:Drivers/STM32U5xx_HAL_Driver/Src/stm32u5xx_hal_flash_ex.c ****                             FunctionalState *WRPLock)
1493:Drivers/STM32U5xx_HAL_Driver/Src/stm32u5xx_hal_flash_ex.c **** {
 689              		.loc 1 1493 1 is_stmt 1 view -0
 690              		.cfi_startproc
 691              		@ args = 0, pretend = 0, frame = 0
 692              		@ frame_needed = 0, uses_anonymous_args = 0
 693              		@ link register save eliminated.
 694              		.loc 1 1493 1 is_stmt 0 view .LVU253
 695 0000 10B4     		push	{r4}
 696              	.LCFI1:
 697              		.cfi_def_cfa_offset 4
 698              		.cfi_offset 4, -4
1494:Drivers/STM32U5xx_HAL_Driver/Src/stm32u5xx_hal_flash_ex.c ****   /* Get the configuration of the write protected area */
1495:Drivers/STM32U5xx_HAL_Driver/Src/stm32u5xx_hal_flash_ex.c ****   if (WRPArea == OB_WRPAREA_BANK1_AREAA)
 699              		.loc 1 1495 3 is_stmt 1 view .LVU254
 700              		.loc 1 1495 6 is_stmt 0 view .LVU255
 701 0002 0128     		cmp	r0, #1
 702 0004 13D0     		beq	.L65
1496:Drivers/STM32U5xx_HAL_Driver/Src/stm32u5xx_hal_flash_ex.c ****   {
1497:Drivers/STM32U5xx_HAL_Driver/Src/stm32u5xx_hal_flash_ex.c ****     *WRPStartOffset = READ_BIT(FLASH->WRP1AR, FLASH_WRP1AR_WRP1A_PSTRT);
1498:Drivers/STM32U5xx_HAL_Driver/Src/stm32u5xx_hal_flash_ex.c ****     *WRPEndOffset = (READ_BIT(FLASH->WRP1AR, FLASH_WRP1AR_WRP1A_PEND) >> FLASH_WRP1AR_WRP1A_PEND_Po
1499:Drivers/STM32U5xx_HAL_Driver/Src/stm32u5xx_hal_flash_ex.c ****     *WRPLock = (READ_BIT(FLASH->WRP1AR, FLASH_WRP1AR_UNLOCK) != 0U) ? DISABLE : ENABLE;
1500:Drivers/STM32U5xx_HAL_Driver/Src/stm32u5xx_hal_flash_ex.c ****   }
1501:Drivers/STM32U5xx_HAL_Driver/Src/stm32u5xx_hal_flash_ex.c ****   else if (WRPArea == OB_WRPAREA_BANK1_AREAB)
ARM GAS  /tmp/ccudYRdF.s 			page 40


 703              		.loc 1 1501 8 is_stmt 1 view .LVU256
 704              		.loc 1 1501 11 is_stmt 0 view .LVU257
 705 0006 0228     		cmp	r0, #2
 706 0008 21D0     		beq	.L66
1502:Drivers/STM32U5xx_HAL_Driver/Src/stm32u5xx_hal_flash_ex.c ****   {
1503:Drivers/STM32U5xx_HAL_Driver/Src/stm32u5xx_hal_flash_ex.c ****     *WRPStartOffset = READ_BIT(FLASH->WRP1BR, FLASH_WRP1BR_WRP1B_PSTRT);
1504:Drivers/STM32U5xx_HAL_Driver/Src/stm32u5xx_hal_flash_ex.c ****     *WRPEndOffset = (READ_BIT(FLASH->WRP1BR, FLASH_WRP1BR_WRP1B_PEND) >> FLASH_WRP1BR_WRP1B_PEND_Po
1505:Drivers/STM32U5xx_HAL_Driver/Src/stm32u5xx_hal_flash_ex.c ****     *WRPLock = (READ_BIT(FLASH->WRP1BR, FLASH_WRP1BR_UNLOCK) != 0U) ? DISABLE : ENABLE;
1506:Drivers/STM32U5xx_HAL_Driver/Src/stm32u5xx_hal_flash_ex.c ****   }
1507:Drivers/STM32U5xx_HAL_Driver/Src/stm32u5xx_hal_flash_ex.c ****   else if (WRPArea == OB_WRPAREA_BANK2_AREAA)
 707              		.loc 1 1507 8 is_stmt 1 view .LVU258
 708              		.loc 1 1507 11 is_stmt 0 view .LVU259
 709 000a 0428     		cmp	r0, #4
 710 000c 2DD0     		beq	.L67
1508:Drivers/STM32U5xx_HAL_Driver/Src/stm32u5xx_hal_flash_ex.c ****   {
1509:Drivers/STM32U5xx_HAL_Driver/Src/stm32u5xx_hal_flash_ex.c ****     *WRPStartOffset = READ_BIT(FLASH->WRP2AR, FLASH_WRP2AR_WRP2A_PSTRT);
1510:Drivers/STM32U5xx_HAL_Driver/Src/stm32u5xx_hal_flash_ex.c ****     *WRPEndOffset = (READ_BIT(FLASH->WRP2AR, FLASH_WRP2AR_WRP2A_PEND) >> FLASH_WRP2AR_WRP2A_PEND_Po
1511:Drivers/STM32U5xx_HAL_Driver/Src/stm32u5xx_hal_flash_ex.c ****     *WRPLock = (READ_BIT(FLASH->WRP2AR, FLASH_WRP2AR_UNLOCK) != 0U) ? DISABLE : ENABLE;
1512:Drivers/STM32U5xx_HAL_Driver/Src/stm32u5xx_hal_flash_ex.c ****   }
1513:Drivers/STM32U5xx_HAL_Driver/Src/stm32u5xx_hal_flash_ex.c ****   else if (WRPArea == OB_WRPAREA_BANK2_AREAB)
 711              		.loc 1 1513 8 is_stmt 1 view .LVU260
 712              		.loc 1 1513 11 is_stmt 0 view .LVU261
 713 000e 0828     		cmp	r0, #8
 714 0010 1AD1     		bne	.L59
1514:Drivers/STM32U5xx_HAL_Driver/Src/stm32u5xx_hal_flash_ex.c ****   {
1515:Drivers/STM32U5xx_HAL_Driver/Src/stm32u5xx_hal_flash_ex.c ****     *WRPStartOffset = READ_BIT(FLASH->WRP2BR, FLASH_WRP2BR_WRP2B_PSTRT);
 715              		.loc 1 1515 5 is_stmt 1 view .LVU262
 716              		.loc 1 1515 23 is_stmt 0 view .LVU263
 717 0012 1D48     		ldr	r0, .L68
 718              	.LVL68:
 719              		.loc 1 1515 23 view .LVU264
 720 0014 C46E     		ldr	r4, [r0, #108]
 721 0016 04F07F04 		and	r4, r4, #127
 722              		.loc 1 1515 21 view .LVU265
 723 001a 0C60     		str	r4, [r1]
1516:Drivers/STM32U5xx_HAL_Driver/Src/stm32u5xx_hal_flash_ex.c ****     *WRPEndOffset = (READ_BIT(FLASH->WRP2BR, FLASH_WRP2BR_WRP2B_PEND) >> FLASH_WRP2BR_WRP2B_PEND_Po
 724              		.loc 1 1516 5 is_stmt 1 view .LVU266
 725              		.loc 1 1516 22 is_stmt 0 view .LVU267
 726 001c C16E     		ldr	r1, [r0, #108]
 727              	.LVL69:
 728              		.loc 1 1516 71 view .LVU268
 729 001e C1F30641 		ubfx	r1, r1, #16, #7
 730              		.loc 1 1516 19 view .LVU269
 731 0022 1160     		str	r1, [r2]
1517:Drivers/STM32U5xx_HAL_Driver/Src/stm32u5xx_hal_flash_ex.c ****     *WRPLock = (READ_BIT(FLASH->WRP2BR, FLASH_WRP2BR_UNLOCK) != 0U) ? DISABLE : ENABLE;
 732              		.loc 1 1517 5 is_stmt 1 view .LVU270
 733              		.loc 1 1517 17 is_stmt 0 view .LVU271
 734 0024 C26E     		ldr	r2, [r0, #108]
 735              	.LVL70:
 736              		.loc 1 1517 79 view .LVU272
 737 0026 D243     		mvns	r2, r2
 738 0028 D20F     		lsrs	r2, r2, #31
 739              		.loc 1 1517 14 view .LVU273
 740 002a 1A70     		strb	r2, [r3]
1518:Drivers/STM32U5xx_HAL_Driver/Src/stm32u5xx_hal_flash_ex.c ****   }
1519:Drivers/STM32U5xx_HAL_Driver/Src/stm32u5xx_hal_flash_ex.c ****   else
1520:Drivers/STM32U5xx_HAL_Driver/Src/stm32u5xx_hal_flash_ex.c ****   {
ARM GAS  /tmp/ccudYRdF.s 			page 41


1521:Drivers/STM32U5xx_HAL_Driver/Src/stm32u5xx_hal_flash_ex.c ****     /* Empty statement (to be compliant MISRA 15.7) */
1522:Drivers/STM32U5xx_HAL_Driver/Src/stm32u5xx_hal_flash_ex.c ****   }
 741              		.loc 1 1522 3 is_stmt 1 view .LVU274
1523:Drivers/STM32U5xx_HAL_Driver/Src/stm32u5xx_hal_flash_ex.c **** }
 742              		.loc 1 1523 1 is_stmt 0 view .LVU275
 743 002c 0CE0     		b	.L59
 744              	.LVL71:
 745              	.L65:
1497:Drivers/STM32U5xx_HAL_Driver/Src/stm32u5xx_hal_flash_ex.c ****     *WRPEndOffset = (READ_BIT(FLASH->WRP1AR, FLASH_WRP1AR_WRP1A_PEND) >> FLASH_WRP1AR_WRP1A_PEND_Po
 746              		.loc 1 1497 5 is_stmt 1 view .LVU276
1497:Drivers/STM32U5xx_HAL_Driver/Src/stm32u5xx_hal_flash_ex.c ****     *WRPEndOffset = (READ_BIT(FLASH->WRP1AR, FLASH_WRP1AR_WRP1A_PEND) >> FLASH_WRP1AR_WRP1A_PEND_Po
 747              		.loc 1 1497 23 is_stmt 0 view .LVU277
 748 002e 1648     		ldr	r0, .L68
 749              	.LVL72:
1497:Drivers/STM32U5xx_HAL_Driver/Src/stm32u5xx_hal_flash_ex.c ****     *WRPEndOffset = (READ_BIT(FLASH->WRP1AR, FLASH_WRP1AR_WRP1A_PEND) >> FLASH_WRP1AR_WRP1A_PEND_Po
 750              		.loc 1 1497 23 view .LVU278
 751 0030 846D     		ldr	r4, [r0, #88]
 752 0032 04F07F04 		and	r4, r4, #127
1497:Drivers/STM32U5xx_HAL_Driver/Src/stm32u5xx_hal_flash_ex.c ****     *WRPEndOffset = (READ_BIT(FLASH->WRP1AR, FLASH_WRP1AR_WRP1A_PEND) >> FLASH_WRP1AR_WRP1A_PEND_Po
 753              		.loc 1 1497 21 view .LVU279
 754 0036 0C60     		str	r4, [r1]
1498:Drivers/STM32U5xx_HAL_Driver/Src/stm32u5xx_hal_flash_ex.c ****     *WRPLock = (READ_BIT(FLASH->WRP1AR, FLASH_WRP1AR_UNLOCK) != 0U) ? DISABLE : ENABLE;
 755              		.loc 1 1498 5 is_stmt 1 view .LVU280
1498:Drivers/STM32U5xx_HAL_Driver/Src/stm32u5xx_hal_flash_ex.c ****     *WRPLock = (READ_BIT(FLASH->WRP1AR, FLASH_WRP1AR_UNLOCK) != 0U) ? DISABLE : ENABLE;
 756              		.loc 1 1498 22 is_stmt 0 view .LVU281
 757 0038 816D     		ldr	r1, [r0, #88]
 758              	.LVL73:
1498:Drivers/STM32U5xx_HAL_Driver/Src/stm32u5xx_hal_flash_ex.c ****     *WRPLock = (READ_BIT(FLASH->WRP1AR, FLASH_WRP1AR_UNLOCK) != 0U) ? DISABLE : ENABLE;
 759              		.loc 1 1498 71 view .LVU282
 760 003a C1F30641 		ubfx	r1, r1, #16, #7
1498:Drivers/STM32U5xx_HAL_Driver/Src/stm32u5xx_hal_flash_ex.c ****     *WRPLock = (READ_BIT(FLASH->WRP1AR, FLASH_WRP1AR_UNLOCK) != 0U) ? DISABLE : ENABLE;
 761              		.loc 1 1498 19 view .LVU283
 762 003e 1160     		str	r1, [r2]
1499:Drivers/STM32U5xx_HAL_Driver/Src/stm32u5xx_hal_flash_ex.c ****   }
 763              		.loc 1 1499 5 is_stmt 1 view .LVU284
1499:Drivers/STM32U5xx_HAL_Driver/Src/stm32u5xx_hal_flash_ex.c ****   }
 764              		.loc 1 1499 17 is_stmt 0 view .LVU285
 765 0040 826D     		ldr	r2, [r0, #88]
 766              	.LVL74:
1499:Drivers/STM32U5xx_HAL_Driver/Src/stm32u5xx_hal_flash_ex.c ****   }
 767              		.loc 1 1499 79 view .LVU286
 768 0042 D243     		mvns	r2, r2
 769 0044 D20F     		lsrs	r2, r2, #31
1499:Drivers/STM32U5xx_HAL_Driver/Src/stm32u5xx_hal_flash_ex.c ****   }
 770              		.loc 1 1499 14 view .LVU287
 771 0046 1A70     		strb	r2, [r3]
 772              	.L59:
 773              		.loc 1 1523 1 view .LVU288
 774 0048 5DF8044B 		ldr	r4, [sp], #4
 775              	.LCFI2:
 776              		.cfi_remember_state
 777              		.cfi_restore 4
 778              		.cfi_def_cfa_offset 0
 779 004c 7047     		bx	lr
 780              	.LVL75:
 781              	.L66:
 782              	.LCFI3:
ARM GAS  /tmp/ccudYRdF.s 			page 42


 783              		.cfi_restore_state
1503:Drivers/STM32U5xx_HAL_Driver/Src/stm32u5xx_hal_flash_ex.c ****     *WRPEndOffset = (READ_BIT(FLASH->WRP1BR, FLASH_WRP1BR_WRP1B_PEND) >> FLASH_WRP1BR_WRP1B_PEND_Po
 784              		.loc 1 1503 5 is_stmt 1 view .LVU289
1503:Drivers/STM32U5xx_HAL_Driver/Src/stm32u5xx_hal_flash_ex.c ****     *WRPEndOffset = (READ_BIT(FLASH->WRP1BR, FLASH_WRP1BR_WRP1B_PEND) >> FLASH_WRP1BR_WRP1B_PEND_Po
 785              		.loc 1 1503 23 is_stmt 0 view .LVU290
 786 004e 0E48     		ldr	r0, .L68
 787              	.LVL76:
1503:Drivers/STM32U5xx_HAL_Driver/Src/stm32u5xx_hal_flash_ex.c ****     *WRPEndOffset = (READ_BIT(FLASH->WRP1BR, FLASH_WRP1BR_WRP1B_PEND) >> FLASH_WRP1BR_WRP1B_PEND_Po
 788              		.loc 1 1503 23 view .LVU291
 789 0050 C46D     		ldr	r4, [r0, #92]
 790 0052 04F07F04 		and	r4, r4, #127
1503:Drivers/STM32U5xx_HAL_Driver/Src/stm32u5xx_hal_flash_ex.c ****     *WRPEndOffset = (READ_BIT(FLASH->WRP1BR, FLASH_WRP1BR_WRP1B_PEND) >> FLASH_WRP1BR_WRP1B_PEND_Po
 791              		.loc 1 1503 21 view .LVU292
 792 0056 0C60     		str	r4, [r1]
1504:Drivers/STM32U5xx_HAL_Driver/Src/stm32u5xx_hal_flash_ex.c ****     *WRPLock = (READ_BIT(FLASH->WRP1BR, FLASH_WRP1BR_UNLOCK) != 0U) ? DISABLE : ENABLE;
 793              		.loc 1 1504 5 is_stmt 1 view .LVU293
1504:Drivers/STM32U5xx_HAL_Driver/Src/stm32u5xx_hal_flash_ex.c ****     *WRPLock = (READ_BIT(FLASH->WRP1BR, FLASH_WRP1BR_UNLOCK) != 0U) ? DISABLE : ENABLE;
 794              		.loc 1 1504 22 is_stmt 0 view .LVU294
 795 0058 C16D     		ldr	r1, [r0, #92]
 796              	.LVL77:
1504:Drivers/STM32U5xx_HAL_Driver/Src/stm32u5xx_hal_flash_ex.c ****     *WRPLock = (READ_BIT(FLASH->WRP1BR, FLASH_WRP1BR_UNLOCK) != 0U) ? DISABLE : ENABLE;
 797              		.loc 1 1504 71 view .LVU295
 798 005a C1F30641 		ubfx	r1, r1, #16, #7
1504:Drivers/STM32U5xx_HAL_Driver/Src/stm32u5xx_hal_flash_ex.c ****     *WRPLock = (READ_BIT(FLASH->WRP1BR, FLASH_WRP1BR_UNLOCK) != 0U) ? DISABLE : ENABLE;
 799              		.loc 1 1504 19 view .LVU296
 800 005e 1160     		str	r1, [r2]
1505:Drivers/STM32U5xx_HAL_Driver/Src/stm32u5xx_hal_flash_ex.c ****   }
 801              		.loc 1 1505 5 is_stmt 1 view .LVU297
1505:Drivers/STM32U5xx_HAL_Driver/Src/stm32u5xx_hal_flash_ex.c ****   }
 802              		.loc 1 1505 17 is_stmt 0 view .LVU298
 803 0060 C26D     		ldr	r2, [r0, #92]
 804              	.LVL78:
1505:Drivers/STM32U5xx_HAL_Driver/Src/stm32u5xx_hal_flash_ex.c ****   }
 805              		.loc 1 1505 79 view .LVU299
 806 0062 D243     		mvns	r2, r2
 807 0064 D20F     		lsrs	r2, r2, #31
1505:Drivers/STM32U5xx_HAL_Driver/Src/stm32u5xx_hal_flash_ex.c ****   }
 808              		.loc 1 1505 14 view .LVU300
 809 0066 1A70     		strb	r2, [r3]
 810 0068 EEE7     		b	.L59
 811              	.LVL79:
 812              	.L67:
1509:Drivers/STM32U5xx_HAL_Driver/Src/stm32u5xx_hal_flash_ex.c ****     *WRPEndOffset = (READ_BIT(FLASH->WRP2AR, FLASH_WRP2AR_WRP2A_PEND) >> FLASH_WRP2AR_WRP2A_PEND_Po
 813              		.loc 1 1509 5 is_stmt 1 view .LVU301
1509:Drivers/STM32U5xx_HAL_Driver/Src/stm32u5xx_hal_flash_ex.c ****     *WRPEndOffset = (READ_BIT(FLASH->WRP2AR, FLASH_WRP2AR_WRP2A_PEND) >> FLASH_WRP2AR_WRP2A_PEND_Po
 814              		.loc 1 1509 23 is_stmt 0 view .LVU302
 815 006a 0748     		ldr	r0, .L68
 816              	.LVL80:
1509:Drivers/STM32U5xx_HAL_Driver/Src/stm32u5xx_hal_flash_ex.c ****     *WRPEndOffset = (READ_BIT(FLASH->WRP2AR, FLASH_WRP2AR_WRP2A_PEND) >> FLASH_WRP2AR_WRP2A_PEND_Po
 817              		.loc 1 1509 23 view .LVU303
 818 006c 846E     		ldr	r4, [r0, #104]
 819 006e 04F07F04 		and	r4, r4, #127
1509:Drivers/STM32U5xx_HAL_Driver/Src/stm32u5xx_hal_flash_ex.c ****     *WRPEndOffset = (READ_BIT(FLASH->WRP2AR, FLASH_WRP2AR_WRP2A_PEND) >> FLASH_WRP2AR_WRP2A_PEND_Po
 820              		.loc 1 1509 21 view .LVU304
 821 0072 0C60     		str	r4, [r1]
1510:Drivers/STM32U5xx_HAL_Driver/Src/stm32u5xx_hal_flash_ex.c ****     *WRPLock = (READ_BIT(FLASH->WRP2AR, FLASH_WRP2AR_UNLOCK) != 0U) ? DISABLE : ENABLE;
 822              		.loc 1 1510 5 is_stmt 1 view .LVU305
ARM GAS  /tmp/ccudYRdF.s 			page 43


1510:Drivers/STM32U5xx_HAL_Driver/Src/stm32u5xx_hal_flash_ex.c ****     *WRPLock = (READ_BIT(FLASH->WRP2AR, FLASH_WRP2AR_UNLOCK) != 0U) ? DISABLE : ENABLE;
 823              		.loc 1 1510 22 is_stmt 0 view .LVU306
 824 0074 816E     		ldr	r1, [r0, #104]
 825              	.LVL81:
1510:Drivers/STM32U5xx_HAL_Driver/Src/stm32u5xx_hal_flash_ex.c ****     *WRPLock = (READ_BIT(FLASH->WRP2AR, FLASH_WRP2AR_UNLOCK) != 0U) ? DISABLE : ENABLE;
 826              		.loc 1 1510 71 view .LVU307
 827 0076 C1F30641 		ubfx	r1, r1, #16, #7
1510:Drivers/STM32U5xx_HAL_Driver/Src/stm32u5xx_hal_flash_ex.c ****     *WRPLock = (READ_BIT(FLASH->WRP2AR, FLASH_WRP2AR_UNLOCK) != 0U) ? DISABLE : ENABLE;
 828              		.loc 1 1510 19 view .LVU308
 829 007a 1160     		str	r1, [r2]
1511:Drivers/STM32U5xx_HAL_Driver/Src/stm32u5xx_hal_flash_ex.c ****   }
 830              		.loc 1 1511 5 is_stmt 1 view .LVU309
1511:Drivers/STM32U5xx_HAL_Driver/Src/stm32u5xx_hal_flash_ex.c ****   }
 831              		.loc 1 1511 17 is_stmt 0 view .LVU310
 832 007c 826E     		ldr	r2, [r0, #104]
 833              	.LVL82:
1511:Drivers/STM32U5xx_HAL_Driver/Src/stm32u5xx_hal_flash_ex.c ****   }
 834              		.loc 1 1511 79 view .LVU311
 835 007e D243     		mvns	r2, r2
 836 0080 D20F     		lsrs	r2, r2, #31
1511:Drivers/STM32U5xx_HAL_Driver/Src/stm32u5xx_hal_flash_ex.c ****   }
 837              		.loc 1 1511 14 view .LVU312
 838 0082 1A70     		strb	r2, [r3]
 839 0084 E0E7     		b	.L59
 840              	.L69:
 841 0086 00BF     		.align	2
 842              	.L68:
 843 0088 00200240 		.word	1073881088
 844              		.cfi_endproc
 845              	.LFE364:
 847              		.section	.text.FLASH_OB_GetRDP,"ax",%progbits
 848              		.align	1
 849              		.syntax unified
 850              		.thumb
 851              		.thumb_func
 853              	FLASH_OB_GetRDP:
 854              	.LFB365:
1524:Drivers/STM32U5xx_HAL_Driver/Src/stm32u5xx_hal_flash_ex.c **** 
1525:Drivers/STM32U5xx_HAL_Driver/Src/stm32u5xx_hal_flash_ex.c **** /**
1526:Drivers/STM32U5xx_HAL_Driver/Src/stm32u5xx_hal_flash_ex.c ****   * @brief  Return the FLASH Read Protection level.
1527:Drivers/STM32U5xx_HAL_Driver/Src/stm32u5xx_hal_flash_ex.c ****   * @retval FLASH ReadOut Protection Level.
1528:Drivers/STM32U5xx_HAL_Driver/Src/stm32u5xx_hal_flash_ex.c ****   *         This return value can be one of the following values:
1529:Drivers/STM32U5xx_HAL_Driver/Src/stm32u5xx_hal_flash_ex.c ****   *            @arg OB_RDP_LEVEL_0: No protection
1530:Drivers/STM32U5xx_HAL_Driver/Src/stm32u5xx_hal_flash_ex.c ****   *            @arg OB_RDP_LEVEL_0_5: No debug access to secure area
1531:Drivers/STM32U5xx_HAL_Driver/Src/stm32u5xx_hal_flash_ex.c ****   *            @arg OB_RDP_LEVEL_1: Read protection of the memory
1532:Drivers/STM32U5xx_HAL_Driver/Src/stm32u5xx_hal_flash_ex.c ****   *            @arg OB_RDP_LEVEL_2: Full chip protection
1533:Drivers/STM32U5xx_HAL_Driver/Src/stm32u5xx_hal_flash_ex.c ****   */
1534:Drivers/STM32U5xx_HAL_Driver/Src/stm32u5xx_hal_flash_ex.c **** static uint32_t FLASH_OB_GetRDP(void)
1535:Drivers/STM32U5xx_HAL_Driver/Src/stm32u5xx_hal_flash_ex.c **** {
 855              		.loc 1 1535 1 is_stmt 1 view -0
 856              		.cfi_startproc
 857              		@ args = 0, pretend = 0, frame = 0
 858              		@ frame_needed = 0, uses_anonymous_args = 0
 859              		@ link register save eliminated.
1536:Drivers/STM32U5xx_HAL_Driver/Src/stm32u5xx_hal_flash_ex.c ****   uint32_t rdp_level = READ_BIT(FLASH->OPTR, FLASH_OPTR_RDP);
 860              		.loc 1 1536 3 view .LVU314
 861              		.loc 1 1536 24 is_stmt 0 view .LVU315
ARM GAS  /tmp/ccudYRdF.s 			page 44


 862 0000 054B     		ldr	r3, .L73
 863 0002 186C     		ldr	r0, [r3, #64]
 864              		.loc 1 1536 12 view .LVU316
 865 0004 C0B2     		uxtb	r0, r0
 866              	.LVL83:
1537:Drivers/STM32U5xx_HAL_Driver/Src/stm32u5xx_hal_flash_ex.c **** 
1538:Drivers/STM32U5xx_HAL_Driver/Src/stm32u5xx_hal_flash_ex.c ****   if ((rdp_level != OB_RDP_LEVEL_0) && (rdp_level != OB_RDP_LEVEL_0_5) && (rdp_level != OB_RDP_LEVE
 867              		.loc 1 1538 3 is_stmt 1 view .LVU317
 868              		.loc 1 1538 6 is_stmt 0 view .LVU318
 869 0006 AA28     		cmp	r0, #170
 870 0008 04D0     		beq	.L70
 871              		.loc 1 1538 37 discriminator 1 view .LVU319
 872 000a 5528     		cmp	r0, #85
 873 000c 02D0     		beq	.L70
 874              		.loc 1 1538 72 discriminator 2 view .LVU320
 875 000e CC28     		cmp	r0, #204
 876 0010 00D0     		beq	.L70
1539:Drivers/STM32U5xx_HAL_Driver/Src/stm32u5xx_hal_flash_ex.c ****   {
1540:Drivers/STM32U5xx_HAL_Driver/Src/stm32u5xx_hal_flash_ex.c ****     return (OB_RDP_LEVEL_1);
 877              		.loc 1 1540 12 view .LVU321
 878 0012 BB20     		movs	r0, #187
 879              	.LVL84:
 880              	.L70:
1541:Drivers/STM32U5xx_HAL_Driver/Src/stm32u5xx_hal_flash_ex.c ****   }
1542:Drivers/STM32U5xx_HAL_Driver/Src/stm32u5xx_hal_flash_ex.c ****   else
1543:Drivers/STM32U5xx_HAL_Driver/Src/stm32u5xx_hal_flash_ex.c ****   {
1544:Drivers/STM32U5xx_HAL_Driver/Src/stm32u5xx_hal_flash_ex.c ****     return rdp_level;
1545:Drivers/STM32U5xx_HAL_Driver/Src/stm32u5xx_hal_flash_ex.c ****   }
1546:Drivers/STM32U5xx_HAL_Driver/Src/stm32u5xx_hal_flash_ex.c **** }
 881              		.loc 1 1546 1 view .LVU322
 882 0014 7047     		bx	lr
 883              	.L74:
 884 0016 00BF     		.align	2
 885              	.L73:
 886 0018 00200240 		.word	1073881088
 887              		.cfi_endproc
 888              	.LFE365:
 890              		.section	.text.FLASH_OB_GetUser,"ax",%progbits
 891              		.align	1
 892              		.syntax unified
 893              		.thumb
 894              		.thumb_func
 896              	FLASH_OB_GetUser:
 897              	.LFB366:
1547:Drivers/STM32U5xx_HAL_Driver/Src/stm32u5xx_hal_flash_ex.c **** 
1548:Drivers/STM32U5xx_HAL_Driver/Src/stm32u5xx_hal_flash_ex.c **** /**
1549:Drivers/STM32U5xx_HAL_Driver/Src/stm32u5xx_hal_flash_ex.c ****   * @brief  Return the FLASH User Option Byte value.
1550:Drivers/STM32U5xx_HAL_Driver/Src/stm32u5xx_hal_flash_ex.c ****   * @retval The FLASH User Option Bytes values.
1551:Drivers/STM32U5xx_HAL_Driver/Src/stm32u5xx_hal_flash_ex.c ****   *         The return value can be a combination of @ref FLASH_OB_USER_BOR_LEVEL,
1552:Drivers/STM32U5xx_HAL_Driver/Src/stm32u5xx_hal_flash_ex.c ****   *         @ref FLASH_OB_USER_nRST_STOP, @ref FLASH_OB_USER_nRST_STANDBY,
1553:Drivers/STM32U5xx_HAL_Driver/Src/stm32u5xx_hal_flash_ex.c ****   *         @ref FLASH_OB_USER_nRST_SHUTDOWN, @ref FLASH_OB_USER_SRAM_RST,
1554:Drivers/STM32U5xx_HAL_Driver/Src/stm32u5xx_hal_flash_ex.c ****   *         @ref FLASH_OB_USER_IWDG_SW, @ref FLASH_OB_USER_IWDG_STOP,
1555:Drivers/STM32U5xx_HAL_Driver/Src/stm32u5xx_hal_flash_ex.c ****   *         @ref FLASH_OB_USER_IWDG_STANDBY, @ref FLASH_OB_USER_WWDG_SW,
1556:Drivers/STM32U5xx_HAL_Driver/Src/stm32u5xx_hal_flash_ex.c ****   *         @ref OB_USER_SWAP_BANK, @ref FLASH_OB_USER_DUALBANK,
1557:Drivers/STM32U5xx_HAL_Driver/Src/stm32u5xx_hal_flash_ex.c ****   *         @ref FLASH_OB_USER_BKPRAM_RST, @ref FLASH_OB_USER_SRAM3_ECC,
1558:Drivers/STM32U5xx_HAL_Driver/Src/stm32u5xx_hal_flash_ex.c ****   *         @ref FLASH_OB_USER_SRAM2_ECC, @ref FLASH_OB_USER_SRAM2_RST,
1559:Drivers/STM32U5xx_HAL_Driver/Src/stm32u5xx_hal_flash_ex.c ****   *         @ref FLASH_OB_USER_nSWBOOT0, @ref FLASH_OB_USER_nBOOT0,
ARM GAS  /tmp/ccudYRdF.s 			page 45


1560:Drivers/STM32U5xx_HAL_Driver/Src/stm32u5xx_hal_flash_ex.c ****   *         @ref FLASH_OB_USER_PA15_PUPEN, @ref FLASH_OB_USER_IO_VDD_HSLV,
1561:Drivers/STM32U5xx_HAL_Driver/Src/stm32u5xx_hal_flash_ex.c ****   *         @ref FLASH_OB_USER_IO_VDDIO2_HSLV and @ref OB_USER_TZEN
1562:Drivers/STM32U5xx_HAL_Driver/Src/stm32u5xx_hal_flash_ex.c ****   */
1563:Drivers/STM32U5xx_HAL_Driver/Src/stm32u5xx_hal_flash_ex.c **** static uint32_t FLASH_OB_GetUser(void)
1564:Drivers/STM32U5xx_HAL_Driver/Src/stm32u5xx_hal_flash_ex.c **** {
 898              		.loc 1 1564 1 is_stmt 1 view -0
 899              		.cfi_startproc
 900              		@ args = 0, pretend = 0, frame = 0
 901              		@ frame_needed = 0, uses_anonymous_args = 0
 902              		@ link register save eliminated.
1565:Drivers/STM32U5xx_HAL_Driver/Src/stm32u5xx_hal_flash_ex.c ****   uint32_t user_config = READ_REG(FLASH->OPTR);
 903              		.loc 1 1565 3 view .LVU324
 904              		.loc 1 1565 12 is_stmt 0 view .LVU325
 905 0000 024B     		ldr	r3, .L76
 906 0002 186C     		ldr	r0, [r3, #64]
 907              	.LVL85:
1566:Drivers/STM32U5xx_HAL_Driver/Src/stm32u5xx_hal_flash_ex.c ****   CLEAR_BIT(user_config, FLASH_OPTR_RDP);
 908              		.loc 1 1566 3 is_stmt 1 view .LVU326
1567:Drivers/STM32U5xx_HAL_Driver/Src/stm32u5xx_hal_flash_ex.c **** 
1568:Drivers/STM32U5xx_HAL_Driver/Src/stm32u5xx_hal_flash_ex.c ****   return user_config;
 909              		.loc 1 1568 3 view .LVU327
1569:Drivers/STM32U5xx_HAL_Driver/Src/stm32u5xx_hal_flash_ex.c **** }
 910              		.loc 1 1569 1 is_stmt 0 view .LVU328
 911 0004 20F0FF00 		bic	r0, r0, #255
 912              	.LVL86:
 913              		.loc 1 1569 1 view .LVU329
 914 0008 7047     		bx	lr
 915              	.L77:
 916 000a 00BF     		.align	2
 917              	.L76:
 918 000c 00200240 		.word	1073881088
 919              		.cfi_endproc
 920              	.LFE366:
 922              		.section	.text.FLASH_OB_GetBootAddr,"ax",%progbits
 923              		.align	1
 924              		.syntax unified
 925              		.thumb
 926              		.thumb_func
 928              	FLASH_OB_GetBootAddr:
 929              	.LVL87:
 930              	.LFB367:
1570:Drivers/STM32U5xx_HAL_Driver/Src/stm32u5xx_hal_flash_ex.c **** 
1571:Drivers/STM32U5xx_HAL_Driver/Src/stm32u5xx_hal_flash_ex.c **** #if defined (__ARM_FEATURE_CMSE) && (__ARM_FEATURE_CMSE == 3U)
1572:Drivers/STM32U5xx_HAL_Driver/Src/stm32u5xx_hal_flash_ex.c **** /**
1573:Drivers/STM32U5xx_HAL_Driver/Src/stm32u5xx_hal_flash_ex.c ****   * @brief  Return the watermarked-based secure area configuration.
1574:Drivers/STM32U5xx_HAL_Driver/Src/stm32u5xx_hal_flash_ex.c ****   *
1575:Drivers/STM32U5xx_HAL_Driver/Src/stm32u5xx_hal_flash_ex.c ****   * @param  WMSecConfig [in/out] specifies the area to be returned.
1576:Drivers/STM32U5xx_HAL_Driver/Src/stm32u5xx_hal_flash_ex.c ****   *                  This parameter can be one of the following values:
1577:Drivers/STM32U5xx_HAL_Driver/Src/stm32u5xx_hal_flash_ex.c ****   *                   @arg OB_WMSEC_AREA1: select Flash Secure Area 1
1578:Drivers/STM32U5xx_HAL_Driver/Src/stm32u5xx_hal_flash_ex.c ****   *                   @arg OB_WMSEC_AREA2: select Flash Secure Area 2
1579:Drivers/STM32U5xx_HAL_Driver/Src/stm32u5xx_hal_flash_ex.c ****   *                  When return from the function, this parameter will be a combinaison of the fol
1580:Drivers/STM32U5xx_HAL_Driver/Src/stm32u5xx_hal_flash_ex.c ****   *                   @arg OB_WMSEC_AREAA or @arg OB_WMSEC_AREAB: selected Flash Secure Area A or A
1581:Drivers/STM32U5xx_HAL_Driver/Src/stm32u5xx_hal_flash_ex.c ****   *                   @arg OB_WMSEC_HDP_AREA_ENABLE: Secure Hide Area in Secure Area enabled
1582:Drivers/STM32U5xx_HAL_Driver/Src/stm32u5xx_hal_flash_ex.c ****   *                   @arg OB_WMSEC_HDP_AREA_DISABLE: Secure Hide Area in Secure Area disabled
1583:Drivers/STM32U5xx_HAL_Driver/Src/stm32u5xx_hal_flash_ex.c ****   *
1584:Drivers/STM32U5xx_HAL_Driver/Src/stm32u5xx_hal_flash_ex.c ****   * @param  WMSecStartPage [out] specifies the start page of the secure area
1585:Drivers/STM32U5xx_HAL_Driver/Src/stm32u5xx_hal_flash_ex.c ****   *
ARM GAS  /tmp/ccudYRdF.s 			page 46


1586:Drivers/STM32U5xx_HAL_Driver/Src/stm32u5xx_hal_flash_ex.c ****   * @param  WMSecEndPage [out] specifies the end page of the secure area
1587:Drivers/STM32U5xx_HAL_Driver/Src/stm32u5xx_hal_flash_ex.c ****   *
1588:Drivers/STM32U5xx_HAL_Driver/Src/stm32u5xx_hal_flash_ex.c ****   * @param  WMHDPEndPage [out] specifies the end page of the secure hide area
1589:Drivers/STM32U5xx_HAL_Driver/Src/stm32u5xx_hal_flash_ex.c ****   *
1590:Drivers/STM32U5xx_HAL_Driver/Src/stm32u5xx_hal_flash_ex.c ****   *
1591:Drivers/STM32U5xx_HAL_Driver/Src/stm32u5xx_hal_flash_ex.c ****   * @retval None
1592:Drivers/STM32U5xx_HAL_Driver/Src/stm32u5xx_hal_flash_ex.c ****   */
1593:Drivers/STM32U5xx_HAL_Driver/Src/stm32u5xx_hal_flash_ex.c **** static void FLASH_OB_GetWMSEC(uint32_t *WMSecConfig, uint32_t *WMSecStartPage, uint32_t *WMSecEndPa
1594:Drivers/STM32U5xx_HAL_Driver/Src/stm32u5xx_hal_flash_ex.c ****                               uint32_t *WMHDPEndPage)
1595:Drivers/STM32U5xx_HAL_Driver/Src/stm32u5xx_hal_flash_ex.c **** {
1596:Drivers/STM32U5xx_HAL_Driver/Src/stm32u5xx_hal_flash_ex.c ****   uint32_t tmp_secwm1 = 0U;
1597:Drivers/STM32U5xx_HAL_Driver/Src/stm32u5xx_hal_flash_ex.c ****   uint32_t tmp_secwm2 = 0U;
1598:Drivers/STM32U5xx_HAL_Driver/Src/stm32u5xx_hal_flash_ex.c **** 
1599:Drivers/STM32U5xx_HAL_Driver/Src/stm32u5xx_hal_flash_ex.c ****   /* Check the parameters */
1600:Drivers/STM32U5xx_HAL_Driver/Src/stm32u5xx_hal_flash_ex.c ****   assert_param(IS_OB_WMSEC_CONFIG(*WMSecConfig));
1601:Drivers/STM32U5xx_HAL_Driver/Src/stm32u5xx_hal_flash_ex.c ****   assert_param(IS_FLASH_BANK_EXCLUSIVE((*WMSecConfig) & 0x3U));
1602:Drivers/STM32U5xx_HAL_Driver/Src/stm32u5xx_hal_flash_ex.c **** 
1603:Drivers/STM32U5xx_HAL_Driver/Src/stm32u5xx_hal_flash_ex.c ****   /* Read SECWM registers */
1604:Drivers/STM32U5xx_HAL_Driver/Src/stm32u5xx_hal_flash_ex.c ****   if (((*WMSecConfig) & OB_WMSEC_AREA1) != 0U)
1605:Drivers/STM32U5xx_HAL_Driver/Src/stm32u5xx_hal_flash_ex.c ****   {
1606:Drivers/STM32U5xx_HAL_Driver/Src/stm32u5xx_hal_flash_ex.c ****     tmp_secwm1 = FLASH->SECWM1R1;
1607:Drivers/STM32U5xx_HAL_Driver/Src/stm32u5xx_hal_flash_ex.c ****     tmp_secwm2 = FLASH->SECWM1R2;
1608:Drivers/STM32U5xx_HAL_Driver/Src/stm32u5xx_hal_flash_ex.c ****   }
1609:Drivers/STM32U5xx_HAL_Driver/Src/stm32u5xx_hal_flash_ex.c ****   else if (((*WMSecConfig) & OB_WMSEC_AREA2) != 0U)
1610:Drivers/STM32U5xx_HAL_Driver/Src/stm32u5xx_hal_flash_ex.c ****   {
1611:Drivers/STM32U5xx_HAL_Driver/Src/stm32u5xx_hal_flash_ex.c ****     tmp_secwm1 = FLASH->SECWM2R1;
1612:Drivers/STM32U5xx_HAL_Driver/Src/stm32u5xx_hal_flash_ex.c ****     tmp_secwm2 = FLASH->SECWM2R2;
1613:Drivers/STM32U5xx_HAL_Driver/Src/stm32u5xx_hal_flash_ex.c ****   }
1614:Drivers/STM32U5xx_HAL_Driver/Src/stm32u5xx_hal_flash_ex.c ****   else
1615:Drivers/STM32U5xx_HAL_Driver/Src/stm32u5xx_hal_flash_ex.c ****   {
1616:Drivers/STM32U5xx_HAL_Driver/Src/stm32u5xx_hal_flash_ex.c ****     /* Empty statement (to be compliant MISRA 15.7) */
1617:Drivers/STM32U5xx_HAL_Driver/Src/stm32u5xx_hal_flash_ex.c ****   }
1618:Drivers/STM32U5xx_HAL_Driver/Src/stm32u5xx_hal_flash_ex.c **** 
1619:Drivers/STM32U5xx_HAL_Driver/Src/stm32u5xx_hal_flash_ex.c ****   /* Configuration of secure area */
1620:Drivers/STM32U5xx_HAL_Driver/Src/stm32u5xx_hal_flash_ex.c ****   *WMSecStartPage = (tmp_secwm1 & FLASH_SECWM1R1_SECWM1_PSTRT);
1621:Drivers/STM32U5xx_HAL_Driver/Src/stm32u5xx_hal_flash_ex.c ****   *WMSecEndPage = ((tmp_secwm1 & FLASH_SECWM1R1_SECWM1_PEND) >> FLASH_SECWM1R1_SECWM1_PEND_Pos);
1622:Drivers/STM32U5xx_HAL_Driver/Src/stm32u5xx_hal_flash_ex.c **** 
1623:Drivers/STM32U5xx_HAL_Driver/Src/stm32u5xx_hal_flash_ex.c ****   /* Configuration of secure hide area */
1624:Drivers/STM32U5xx_HAL_Driver/Src/stm32u5xx_hal_flash_ex.c ****   *WMHDPEndPage = ((tmp_secwm2 & FLASH_SECWM1R2_HDP1_PEND) >> FLASH_SECWM1R2_HDP1_PEND_Pos);
1625:Drivers/STM32U5xx_HAL_Driver/Src/stm32u5xx_hal_flash_ex.c **** 
1626:Drivers/STM32U5xx_HAL_Driver/Src/stm32u5xx_hal_flash_ex.c ****   if ((tmp_secwm2 & FLASH_SECWM1R2_HDP1EN) == 0U)
1627:Drivers/STM32U5xx_HAL_Driver/Src/stm32u5xx_hal_flash_ex.c ****   {
1628:Drivers/STM32U5xx_HAL_Driver/Src/stm32u5xx_hal_flash_ex.c ****     *WMSecConfig = ((*WMSecConfig) | OB_WMSEC_HDP_AREA_DISABLE);
1629:Drivers/STM32U5xx_HAL_Driver/Src/stm32u5xx_hal_flash_ex.c ****   }
1630:Drivers/STM32U5xx_HAL_Driver/Src/stm32u5xx_hal_flash_ex.c ****   else
1631:Drivers/STM32U5xx_HAL_Driver/Src/stm32u5xx_hal_flash_ex.c ****   {
1632:Drivers/STM32U5xx_HAL_Driver/Src/stm32u5xx_hal_flash_ex.c ****     *WMSecConfig = ((*WMSecConfig) | OB_WMSEC_HDP_AREA_ENABLE);
1633:Drivers/STM32U5xx_HAL_Driver/Src/stm32u5xx_hal_flash_ex.c ****   }
1634:Drivers/STM32U5xx_HAL_Driver/Src/stm32u5xx_hal_flash_ex.c **** 
1635:Drivers/STM32U5xx_HAL_Driver/Src/stm32u5xx_hal_flash_ex.c **** }
1636:Drivers/STM32U5xx_HAL_Driver/Src/stm32u5xx_hal_flash_ex.c **** 
1637:Drivers/STM32U5xx_HAL_Driver/Src/stm32u5xx_hal_flash_ex.c **** /**
1638:Drivers/STM32U5xx_HAL_Driver/Src/stm32u5xx_hal_flash_ex.c ****   * @brief  Return the boot lock configuration.
1639:Drivers/STM32U5xx_HAL_Driver/Src/stm32u5xx_hal_flash_ex.c ****   *
1640:Drivers/STM32U5xx_HAL_Driver/Src/stm32u5xx_hal_flash_ex.c ****   * @retval  Value of Boot Lock configuration.
1641:Drivers/STM32U5xx_HAL_Driver/Src/stm32u5xx_hal_flash_ex.c ****   *          It can be one of the following values:
1642:Drivers/STM32U5xx_HAL_Driver/Src/stm32u5xx_hal_flash_ex.c ****   *            @arg OB_BOOT_LOCK_DISABLE: Boot Lock mode deactivated
ARM GAS  /tmp/ccudYRdF.s 			page 47


1643:Drivers/STM32U5xx_HAL_Driver/Src/stm32u5xx_hal_flash_ex.c ****   *            @arg OB_BOOT_LOCK_ENABLE: Boot Lock mode activated
1644:Drivers/STM32U5xx_HAL_Driver/Src/stm32u5xx_hal_flash_ex.c ****   */
1645:Drivers/STM32U5xx_HAL_Driver/Src/stm32u5xx_hal_flash_ex.c **** static uint32_t FLASH_OB_GetBootLock(void)
1646:Drivers/STM32U5xx_HAL_Driver/Src/stm32u5xx_hal_flash_ex.c **** {
1647:Drivers/STM32U5xx_HAL_Driver/Src/stm32u5xx_hal_flash_ex.c ****   return (FLASH->SECBOOTADD0R & FLASH_SECBOOTADD0R_BOOT_LOCK);
1648:Drivers/STM32U5xx_HAL_Driver/Src/stm32u5xx_hal_flash_ex.c **** }
1649:Drivers/STM32U5xx_HAL_Driver/Src/stm32u5xx_hal_flash_ex.c **** #endif /* __ARM_FEATURE_CMSE */
1650:Drivers/STM32U5xx_HAL_Driver/Src/stm32u5xx_hal_flash_ex.c **** 
1651:Drivers/STM32U5xx_HAL_Driver/Src/stm32u5xx_hal_flash_ex.c **** /**
1652:Drivers/STM32U5xx_HAL_Driver/Src/stm32u5xx_hal_flash_ex.c ****   * @brief  Return the boot address.
1653:Drivers/STM32U5xx_HAL_Driver/Src/stm32u5xx_hal_flash_ex.c ****   *
1654:Drivers/STM32U5xx_HAL_Driver/Src/stm32u5xx_hal_flash_ex.c ****   * @param[in]  BootAddrConfig specifies the area to be returned.
1655:Drivers/STM32U5xx_HAL_Driver/Src/stm32u5xx_hal_flash_ex.c ****   *              This parameter can be one of the following values:
1656:Drivers/STM32U5xx_HAL_Driver/Src/stm32u5xx_hal_flash_ex.c ****   *                @arg OB_BOOTADDR_NS0: Non-secure boot address 0
1657:Drivers/STM32U5xx_HAL_Driver/Src/stm32u5xx_hal_flash_ex.c ****   *                @arg OB_BOOTADDR_NS1: Non-secure boot address 1
1658:Drivers/STM32U5xx_HAL_Driver/Src/stm32u5xx_hal_flash_ex.c ****   *                @arg OB_BOOTADDR_SEC0: Secure boot address 0
1659:Drivers/STM32U5xx_HAL_Driver/Src/stm32u5xx_hal_flash_ex.c ****   *
1660:Drivers/STM32U5xx_HAL_Driver/Src/stm32u5xx_hal_flash_ex.c ****   * @param[out]  BootAddr specifies the boot address value
1661:Drivers/STM32U5xx_HAL_Driver/Src/stm32u5xx_hal_flash_ex.c ****   *
1662:Drivers/STM32U5xx_HAL_Driver/Src/stm32u5xx_hal_flash_ex.c ****   * @retval None
1663:Drivers/STM32U5xx_HAL_Driver/Src/stm32u5xx_hal_flash_ex.c ****   */
1664:Drivers/STM32U5xx_HAL_Driver/Src/stm32u5xx_hal_flash_ex.c **** static void FLASH_OB_GetBootAddr(uint32_t BootAddrConfig, uint32_t *BootAddr)
1665:Drivers/STM32U5xx_HAL_Driver/Src/stm32u5xx_hal_flash_ex.c **** {
 931              		.loc 1 1665 1 is_stmt 1 view -0
 932              		.cfi_startproc
 933              		@ args = 0, pretend = 0, frame = 0
 934              		@ frame_needed = 0, uses_anonymous_args = 0
 935              		@ link register save eliminated.
1666:Drivers/STM32U5xx_HAL_Driver/Src/stm32u5xx_hal_flash_ex.c ****   if (BootAddrConfig == OB_BOOTADDR_NS0)
 936              		.loc 1 1666 3 view .LVU331
 937              		.loc 1 1666 6 is_stmt 0 view .LVU332
 938 0000 0128     		cmp	r0, #1
 939 0002 02D0     		beq	.L81
1667:Drivers/STM32U5xx_HAL_Driver/Src/stm32u5xx_hal_flash_ex.c ****   {
1668:Drivers/STM32U5xx_HAL_Driver/Src/stm32u5xx_hal_flash_ex.c ****     *BootAddr = (FLASH->NSBOOTADD0R & FLASH_NSBOOTADD0R_NSBOOTADD0);
1669:Drivers/STM32U5xx_HAL_Driver/Src/stm32u5xx_hal_flash_ex.c ****   }
1670:Drivers/STM32U5xx_HAL_Driver/Src/stm32u5xx_hal_flash_ex.c ****   else if (BootAddrConfig == OB_BOOTADDR_NS1)
 940              		.loc 1 1670 8 is_stmt 1 view .LVU333
 941              		.loc 1 1670 11 is_stmt 0 view .LVU334
 942 0004 0228     		cmp	r0, #2
 943 0006 06D0     		beq	.L82
 944              	.L78:
1671:Drivers/STM32U5xx_HAL_Driver/Src/stm32u5xx_hal_flash_ex.c ****   {
1672:Drivers/STM32U5xx_HAL_Driver/Src/stm32u5xx_hal_flash_ex.c ****     *BootAddr = (FLASH->NSBOOTADD1R & FLASH_NSBOOTADD1R_NSBOOTADD1);
1673:Drivers/STM32U5xx_HAL_Driver/Src/stm32u5xx_hal_flash_ex.c ****   }
1674:Drivers/STM32U5xx_HAL_Driver/Src/stm32u5xx_hal_flash_ex.c **** #if defined (__ARM_FEATURE_CMSE) && (__ARM_FEATURE_CMSE == 3U)
1675:Drivers/STM32U5xx_HAL_Driver/Src/stm32u5xx_hal_flash_ex.c ****   else if (BootAddrConfig == OB_BOOTADDR_SEC0)
1676:Drivers/STM32U5xx_HAL_Driver/Src/stm32u5xx_hal_flash_ex.c ****   {
1677:Drivers/STM32U5xx_HAL_Driver/Src/stm32u5xx_hal_flash_ex.c ****     *BootAddr = (FLASH->SECBOOTADD0R & FLASH_SECBOOTADD0R_SECBOOTADD0);
1678:Drivers/STM32U5xx_HAL_Driver/Src/stm32u5xx_hal_flash_ex.c ****   }
1679:Drivers/STM32U5xx_HAL_Driver/Src/stm32u5xx_hal_flash_ex.c **** #endif /* __ARM_FEATURE_CMSE */
1680:Drivers/STM32U5xx_HAL_Driver/Src/stm32u5xx_hal_flash_ex.c ****   else
1681:Drivers/STM32U5xx_HAL_Driver/Src/stm32u5xx_hal_flash_ex.c ****   {
1682:Drivers/STM32U5xx_HAL_Driver/Src/stm32u5xx_hal_flash_ex.c ****     /* Empty statement (to be compliant MISRA 15.7) */
1683:Drivers/STM32U5xx_HAL_Driver/Src/stm32u5xx_hal_flash_ex.c ****   }
1684:Drivers/STM32U5xx_HAL_Driver/Src/stm32u5xx_hal_flash_ex.c **** }
 945              		.loc 1 1684 1 view .LVU335
ARM GAS  /tmp/ccudYRdF.s 			page 48


 946 0008 7047     		bx	lr
 947              	.L81:
1668:Drivers/STM32U5xx_HAL_Driver/Src/stm32u5xx_hal_flash_ex.c ****   }
 948              		.loc 1 1668 5 is_stmt 1 view .LVU336
1668:Drivers/STM32U5xx_HAL_Driver/Src/stm32u5xx_hal_flash_ex.c ****   }
 949              		.loc 1 1668 23 is_stmt 0 view .LVU337
 950 000a 064B     		ldr	r3, .L83
 951 000c 5B6C     		ldr	r3, [r3, #68]
1668:Drivers/STM32U5xx_HAL_Driver/Src/stm32u5xx_hal_flash_ex.c ****   }
 952              		.loc 1 1668 37 view .LVU338
 953 000e 23F07F03 		bic	r3, r3, #127
1668:Drivers/STM32U5xx_HAL_Driver/Src/stm32u5xx_hal_flash_ex.c ****   }
 954              		.loc 1 1668 15 view .LVU339
 955 0012 0B60     		str	r3, [r1]
 956 0014 7047     		bx	lr
 957              	.L82:
1672:Drivers/STM32U5xx_HAL_Driver/Src/stm32u5xx_hal_flash_ex.c ****   }
 958              		.loc 1 1672 5 is_stmt 1 view .LVU340
1672:Drivers/STM32U5xx_HAL_Driver/Src/stm32u5xx_hal_flash_ex.c ****   }
 959              		.loc 1 1672 23 is_stmt 0 view .LVU341
 960 0016 034B     		ldr	r3, .L83
 961 0018 9B6C     		ldr	r3, [r3, #72]
1672:Drivers/STM32U5xx_HAL_Driver/Src/stm32u5xx_hal_flash_ex.c ****   }
 962              		.loc 1 1672 37 view .LVU342
 963 001a 23F07F03 		bic	r3, r3, #127
1672:Drivers/STM32U5xx_HAL_Driver/Src/stm32u5xx_hal_flash_ex.c ****   }
 964              		.loc 1 1672 15 view .LVU343
 965 001e 0B60     		str	r3, [r1]
1683:Drivers/STM32U5xx_HAL_Driver/Src/stm32u5xx_hal_flash_ex.c **** }
 966              		.loc 1 1683 3 is_stmt 1 view .LVU344
 967              		.loc 1 1684 1 is_stmt 0 view .LVU345
 968 0020 F2E7     		b	.L78
 969              	.L84:
 970 0022 00BF     		.align	2
 971              	.L83:
 972 0024 00200240 		.word	1073881088
 973              		.cfi_endproc
 974              	.LFE367:
 976              		.section	.text.HAL_FLASHEx_OBProgram,"ax",%progbits
 977              		.align	1
 978              		.global	HAL_FLASHEx_OBProgram
 979              		.syntax unified
 980              		.thumb
 981              		.thumb_func
 983              	HAL_FLASHEx_OBProgram:
 984              	.LVL88:
 985              	.LFB347:
 319:Drivers/STM32U5xx_HAL_Driver/Src/stm32u5xx_hal_flash_ex.c ****   HAL_StatusTypeDef status;
 986              		.loc 1 319 1 is_stmt 1 view -0
 987              		.cfi_startproc
 988              		@ args = 0, pretend = 0, frame = 0
 989              		@ frame_needed = 0, uses_anonymous_args = 0
 320:Drivers/STM32U5xx_HAL_Driver/Src/stm32u5xx_hal_flash_ex.c **** 
 990              		.loc 1 320 3 view .LVU347
 323:Drivers/STM32U5xx_HAL_Driver/Src/stm32u5xx_hal_flash_ex.c **** 
 991              		.loc 1 323 3 view .LVU348
 326:Drivers/STM32U5xx_HAL_Driver/Src/stm32u5xx_hal_flash_ex.c **** 
ARM GAS  /tmp/ccudYRdF.s 			page 49


 992              		.loc 1 326 3 view .LVU349
 326:Drivers/STM32U5xx_HAL_Driver/Src/stm32u5xx_hal_flash_ex.c **** 
 993              		.loc 1 326 3 view .LVU350
 994 0000 264B     		ldr	r3, .L103
 995 0002 1B78     		ldrb	r3, [r3]	@ zero_extendqisi2
 996 0004 012B     		cmp	r3, #1
 997 0006 47D0     		beq	.L93
 319:Drivers/STM32U5xx_HAL_Driver/Src/stm32u5xx_hal_flash_ex.c ****   HAL_StatusTypeDef status;
 998              		.loc 1 319 1 is_stmt 0 discriminator 2 view .LVU351
 999 0008 10B5     		push	{r4, lr}
 1000              	.LCFI4:
 1001              		.cfi_def_cfa_offset 8
 1002              		.cfi_offset 4, -8
 1003              		.cfi_offset 14, -4
 1004 000a 0446     		mov	r4, r0
 326:Drivers/STM32U5xx_HAL_Driver/Src/stm32u5xx_hal_flash_ex.c **** 
 1005              		.loc 1 326 3 is_stmt 1 discriminator 2 view .LVU352
 1006 000c 234B     		ldr	r3, .L103
 1007 000e 0122     		movs	r2, #1
 1008 0010 1A70     		strb	r2, [r3]
 326:Drivers/STM32U5xx_HAL_Driver/Src/stm32u5xx_hal_flash_ex.c **** 
 1009              		.loc 1 326 3 discriminator 2 view .LVU353
 329:Drivers/STM32U5xx_HAL_Driver/Src/stm32u5xx_hal_flash_ex.c **** 
 1010              		.loc 1 329 3 discriminator 2 view .LVU354
 329:Drivers/STM32U5xx_HAL_Driver/Src/stm32u5xx_hal_flash_ex.c **** 
 1011              		.loc 1 329 20 is_stmt 0 discriminator 2 view .LVU355
 1012 0012 0022     		movs	r2, #0
 1013 0014 5A60     		str	r2, [r3, #4]
 332:Drivers/STM32U5xx_HAL_Driver/Src/stm32u5xx_hal_flash_ex.c **** 
 1014              		.loc 1 332 3 is_stmt 1 discriminator 2 view .LVU356
 332:Drivers/STM32U5xx_HAL_Driver/Src/stm32u5xx_hal_flash_ex.c **** 
 1015              		.loc 1 332 12 is_stmt 0 discriminator 2 view .LVU357
 1016 0016 4FF47A70 		mov	r0, #1000
 1017              	.LVL89:
 332:Drivers/STM32U5xx_HAL_Driver/Src/stm32u5xx_hal_flash_ex.c **** 
 1018              		.loc 1 332 12 discriminator 2 view .LVU358
 1019 001a FFF7FEFF 		bl	FLASH_WaitForLastOperation
 1020              	.LVL90:
 334:Drivers/STM32U5xx_HAL_Driver/Src/stm32u5xx_hal_flash_ex.c ****   {
 1021              		.loc 1 334 3 is_stmt 1 discriminator 2 view .LVU359
 334:Drivers/STM32U5xx_HAL_Driver/Src/stm32u5xx_hal_flash_ex.c ****   {
 1022              		.loc 1 334 6 is_stmt 0 discriminator 2 view .LVU360
 1023 001e E0B9     		cbnz	r0, .L87
 337:Drivers/STM32U5xx_HAL_Driver/Src/stm32u5xx_hal_flash_ex.c ****     {
 1024              		.loc 1 337 5 is_stmt 1 view .LVU361
 337:Drivers/STM32U5xx_HAL_Driver/Src/stm32u5xx_hal_flash_ex.c ****     {
 1025              		.loc 1 337 17 is_stmt 0 view .LVU362
 1026 0020 2368     		ldr	r3, [r4]
 337:Drivers/STM32U5xx_HAL_Driver/Src/stm32u5xx_hal_flash_ex.c ****     {
 1027              		.loc 1 337 8 view .LVU363
 1028 0022 13F0010F 		tst	r3, #1
 1029 0026 1CD1     		bne	.L98
 1030              	.LVL91:
 1031              	.L88:
 344:Drivers/STM32U5xx_HAL_Driver/Src/stm32u5xx_hal_flash_ex.c ****     {
 1032              		.loc 1 344 5 is_stmt 1 view .LVU364
 344:Drivers/STM32U5xx_HAL_Driver/Src/stm32u5xx_hal_flash_ex.c ****     {
ARM GAS  /tmp/ccudYRdF.s 			page 50


 1033              		.loc 1 344 17 is_stmt 0 view .LVU365
 1034 0028 2368     		ldr	r3, [r4]
 344:Drivers/STM32U5xx_HAL_Driver/Src/stm32u5xx_hal_flash_ex.c ****     {
 1035              		.loc 1 344 8 view .LVU366
 1036 002a 13F0020F 		tst	r3, #2
 1037 002e 1FD1     		bne	.L99
 1038              	.L89:
 351:Drivers/STM32U5xx_HAL_Driver/Src/stm32u5xx_hal_flash_ex.c ****     {
 1039              		.loc 1 351 5 is_stmt 1 view .LVU367
 351:Drivers/STM32U5xx_HAL_Driver/Src/stm32u5xx_hal_flash_ex.c ****     {
 1040              		.loc 1 351 17 is_stmt 0 view .LVU368
 1041 0030 2368     		ldr	r3, [r4]
 351:Drivers/STM32U5xx_HAL_Driver/Src/stm32u5xx_hal_flash_ex.c ****     {
 1042              		.loc 1 351 8 view .LVU369
 1043 0032 13F0400F 		tst	r3, #64
 1044 0036 1FD1     		bne	.L100
 1045              	.L90:
 358:Drivers/STM32U5xx_HAL_Driver/Src/stm32u5xx_hal_flash_ex.c ****     {
 1046              		.loc 1 358 5 is_stmt 1 view .LVU370
 358:Drivers/STM32U5xx_HAL_Driver/Src/stm32u5xx_hal_flash_ex.c ****     {
 1047              		.loc 1 358 17 is_stmt 0 view .LVU371
 1048 0038 2368     		ldr	r3, [r4]
 358:Drivers/STM32U5xx_HAL_Driver/Src/stm32u5xx_hal_flash_ex.c ****     {
 1049              		.loc 1 358 8 view .LVU372
 1050 003a 13F0040F 		tst	r3, #4
 1051 003e 21D1     		bne	.L101
 1052              	.L91:
 382:Drivers/STM32U5xx_HAL_Driver/Src/stm32u5xx_hal_flash_ex.c ****     {
 1053              		.loc 1 382 5 is_stmt 1 view .LVU373
 382:Drivers/STM32U5xx_HAL_Driver/Src/stm32u5xx_hal_flash_ex.c ****     {
 1054              		.loc 1 382 17 is_stmt 0 view .LVU374
 1055 0040 2368     		ldr	r3, [r4]
 382:Drivers/STM32U5xx_HAL_Driver/Src/stm32u5xx_hal_flash_ex.c ****     {
 1056              		.loc 1 382 8 view .LVU375
 1057 0042 13F0080F 		tst	r3, #8
 1058 0046 22D1     		bne	.L102
 1059              	.L92:
 389:Drivers/STM32U5xx_HAL_Driver/Src/stm32u5xx_hal_flash_ex.c **** 
 1060              		.loc 1 389 5 is_stmt 1 view .LVU376
 1061 0048 154A     		ldr	r2, .L103+4
 1062 004a 936A     		ldr	r3, [r2, #40]
 1063 004c 43F40033 		orr	r3, r3, #131072
 1064 0050 9362     		str	r3, [r2, #40]
 392:Drivers/STM32U5xx_HAL_Driver/Src/stm32u5xx_hal_flash_ex.c ****   }
 1065              		.loc 1 392 5 view .LVU377
 392:Drivers/STM32U5xx_HAL_Driver/Src/stm32u5xx_hal_flash_ex.c ****   }
 1066              		.loc 1 392 14 is_stmt 0 view .LVU378
 1067 0052 4FF47A70 		mov	r0, #1000
 1068 0056 FFF7FEFF 		bl	FLASH_WaitForLastOperation
 1069              	.LVL92:
 1070              	.L87:
 396:Drivers/STM32U5xx_HAL_Driver/Src/stm32u5xx_hal_flash_ex.c **** 
 1071              		.loc 1 396 3 is_stmt 1 view .LVU379
 396:Drivers/STM32U5xx_HAL_Driver/Src/stm32u5xx_hal_flash_ex.c **** 
 1072              		.loc 1 396 3 view .LVU380
 1073 005a 104B     		ldr	r3, .L103
 1074 005c 0022     		movs	r2, #0
ARM GAS  /tmp/ccudYRdF.s 			page 51


 1075 005e 1A70     		strb	r2, [r3]
 396:Drivers/STM32U5xx_HAL_Driver/Src/stm32u5xx_hal_flash_ex.c **** 
 1076              		.loc 1 396 3 view .LVU381
 398:Drivers/STM32U5xx_HAL_Driver/Src/stm32u5xx_hal_flash_ex.c **** }
 1077              		.loc 1 398 3 view .LVU382
 399:Drivers/STM32U5xx_HAL_Driver/Src/stm32u5xx_hal_flash_ex.c **** 
 1078              		.loc 1 399 1 is_stmt 0 view .LVU383
 1079 0060 10BD     		pop	{r4, pc}
 1080              	.LVL93:
 1081              	.L98:
 340:Drivers/STM32U5xx_HAL_Driver/Src/stm32u5xx_hal_flash_ex.c ****     }
 1082              		.loc 1 340 7 is_stmt 1 view .LVU384
 1083 0062 237C     		ldrb	r3, [r4, #16]	@ zero_extendqisi2
 1084 0064 E268     		ldr	r2, [r4, #12]
 1085 0066 A168     		ldr	r1, [r4, #8]
 1086 0068 6068     		ldr	r0, [r4, #4]
 1087              	.LVL94:
 340:Drivers/STM32U5xx_HAL_Driver/Src/stm32u5xx_hal_flash_ex.c ****     }
 1088              		.loc 1 340 7 is_stmt 0 view .LVU385
 1089 006a FFF7FEFF 		bl	FLASH_OB_WRPConfig
 1090              	.LVL95:
 1091 006e DBE7     		b	.L88
 1092              	.L99:
 347:Drivers/STM32U5xx_HAL_Driver/Src/stm32u5xx_hal_flash_ex.c ****     }
 1093              		.loc 1 347 7 is_stmt 1 view .LVU386
 1094 0070 6069     		ldr	r0, [r4, #20]
 1095 0072 FFF7FEFF 		bl	FLASH_OB_RDPConfig
 1096              	.LVL96:
 1097 0076 DBE7     		b	.L89
 1098              	.L100:
 354:Drivers/STM32U5xx_HAL_Driver/Src/stm32u5xx_hal_flash_ex.c ****     }
 1099              		.loc 1 354 7 view .LVU387
 1100 0078 226B     		ldr	r2, [r4, #48]
 1101 007a E16A     		ldr	r1, [r4, #44]
 1102 007c A06A     		ldr	r0, [r4, #40]
 1103 007e FFF7FEFF 		bl	FLASH_OB_RDPKeyConfig
 1104              	.LVL97:
 1105 0082 D9E7     		b	.L90
 1106              	.L101:
 361:Drivers/STM32U5xx_HAL_Driver/Src/stm32u5xx_hal_flash_ex.c ****     }
 1107              		.loc 1 361 7 view .LVU388
 1108 0084 E169     		ldr	r1, [r4, #28]
 1109 0086 A069     		ldr	r0, [r4, #24]
 1110 0088 FFF7FEFF 		bl	FLASH_OB_UserConfig
 1111              	.LVL98:
 1112 008c D8E7     		b	.L91
 1113              	.L102:
 385:Drivers/STM32U5xx_HAL_Driver/Src/stm32u5xx_hal_flash_ex.c ****     }
 1114              		.loc 1 385 7 view .LVU389
 1115 008e 616A     		ldr	r1, [r4, #36]
 1116 0090 206A     		ldr	r0, [r4, #32]
 1117 0092 FFF7FEFF 		bl	FLASH_OB_BootAddrConfig
 1118              	.LVL99:
 1119 0096 D7E7     		b	.L92
 1120              	.LVL100:
 1121              	.L93:
 1122              	.LCFI5:
ARM GAS  /tmp/ccudYRdF.s 			page 52


 1123              		.cfi_def_cfa_offset 0
 1124              		.cfi_restore 4
 1125              		.cfi_restore 14
 326:Drivers/STM32U5xx_HAL_Driver/Src/stm32u5xx_hal_flash_ex.c **** 
 1126              		.loc 1 326 3 is_stmt 0 view .LVU390
 1127 0098 0220     		movs	r0, #2
 1128              	.LVL101:
 399:Drivers/STM32U5xx_HAL_Driver/Src/stm32u5xx_hal_flash_ex.c **** 
 1129              		.loc 1 399 1 view .LVU391
 1130 009a 7047     		bx	lr
 1131              	.L104:
 1132              		.align	2
 1133              	.L103:
 1134 009c 00000000 		.word	pFlash
 1135 00a0 00200240 		.word	1073881088
 1136              		.cfi_endproc
 1137              	.LFE347:
 1139              		.section	.text.HAL_FLASHEx_OBGetConfig,"ax",%progbits
 1140              		.align	1
 1141              		.global	HAL_FLASHEx_OBGetConfig
 1142              		.syntax unified
 1143              		.thumb
 1144              		.thumb_func
 1146              	HAL_FLASHEx_OBGetConfig:
 1147              	.LVL102:
 1148              	.LFB348:
 412:Drivers/STM32U5xx_HAL_Driver/Src/stm32u5xx_hal_flash_ex.c ****   pOBInit->OptionType = (OPTIONBYTE_RDP | OPTIONBYTE_USER);
 1149              		.loc 1 412 1 is_stmt 1 view -0
 1150              		.cfi_startproc
 1151              		@ args = 0, pretend = 0, frame = 0
 1152              		@ frame_needed = 0, uses_anonymous_args = 0
 412:Drivers/STM32U5xx_HAL_Driver/Src/stm32u5xx_hal_flash_ex.c ****   pOBInit->OptionType = (OPTIONBYTE_RDP | OPTIONBYTE_USER);
 1153              		.loc 1 412 1 is_stmt 0 view .LVU393
 1154 0000 10B5     		push	{r4, lr}
 1155              	.LCFI6:
 1156              		.cfi_def_cfa_offset 8
 1157              		.cfi_offset 4, -8
 1158              		.cfi_offset 14, -4
 1159 0002 0446     		mov	r4, r0
 413:Drivers/STM32U5xx_HAL_Driver/Src/stm32u5xx_hal_flash_ex.c **** 
 1160              		.loc 1 413 3 is_stmt 1 view .LVU394
 413:Drivers/STM32U5xx_HAL_Driver/Src/stm32u5xx_hal_flash_ex.c **** 
 1161              		.loc 1 413 23 is_stmt 0 view .LVU395
 1162 0004 0623     		movs	r3, #6
 1163 0006 0360     		str	r3, [r0]
 415:Drivers/STM32U5xx_HAL_Driver/Src/stm32u5xx_hal_flash_ex.c ****       (pOBInit->WRPArea == OB_WRPAREA_BANK2_AREAA) || (pOBInit->WRPArea == OB_WRPAREA_BANK2_AREAB))
 1164              		.loc 1 415 3 is_stmt 1 view .LVU396
 415:Drivers/STM32U5xx_HAL_Driver/Src/stm32u5xx_hal_flash_ex.c ****       (pOBInit->WRPArea == OB_WRPAREA_BANK2_AREAA) || (pOBInit->WRPArea == OB_WRPAREA_BANK2_AREAB))
 1165              		.loc 1 415 15 is_stmt 0 view .LVU397
 1166 0008 4068     		ldr	r0, [r0, #4]
 1167              	.LVL103:
 415:Drivers/STM32U5xx_HAL_Driver/Src/stm32u5xx_hal_flash_ex.c ****       (pOBInit->WRPArea == OB_WRPAREA_BANK2_AREAA) || (pOBInit->WRPArea == OB_WRPAREA_BANK2_AREAB))
 1168              		.loc 1 415 52 view .LVU398
 1169 000a 431E     		subs	r3, r0, #1
 415:Drivers/STM32U5xx_HAL_Driver/Src/stm32u5xx_hal_flash_ex.c ****       (pOBInit->WRPArea == OB_WRPAREA_BANK2_AREAA) || (pOBInit->WRPArea == OB_WRPAREA_BANK2_AREAB))
 1170              		.loc 1 415 6 view .LVU399
 1171 000c 012B     		cmp	r3, #1
ARM GAS  /tmp/ccudYRdF.s 			page 53


 1172 000e 03D9     		bls	.L106
 415:Drivers/STM32U5xx_HAL_Driver/Src/stm32u5xx_hal_flash_ex.c ****       (pOBInit->WRPArea == OB_WRPAREA_BANK2_AREAA) || (pOBInit->WRPArea == OB_WRPAREA_BANK2_AREAB))
 1173              		.loc 1 415 100 discriminator 1 view .LVU400
 1174 0010 0428     		cmp	r0, #4
 1175 0012 01D0     		beq	.L106
 416:Drivers/STM32U5xx_HAL_Driver/Src/stm32u5xx_hal_flash_ex.c ****   {
 1176              		.loc 1 416 52 view .LVU401
 1177 0014 0828     		cmp	r0, #8
 1178 0016 09D1     		bne	.L107
 1179              	.L106:
 418:Drivers/STM32U5xx_HAL_Driver/Src/stm32u5xx_hal_flash_ex.c ****     /* Get write protection on the selected area */
 1180              		.loc 1 418 5 is_stmt 1 view .LVU402
 418:Drivers/STM32U5xx_HAL_Driver/Src/stm32u5xx_hal_flash_ex.c ****     /* Get write protection on the selected area */
 1181              		.loc 1 418 25 is_stmt 0 view .LVU403
 1182 0018 2346     		mov	r3, r4
 1183 001a 0722     		movs	r2, #7
 1184 001c 43F8102B 		str	r2, [r3], #16
 420:Drivers/STM32U5xx_HAL_Driver/Src/stm32u5xx_hal_flash_ex.c ****   }
 1185              		.loc 1 420 5 is_stmt 1 view .LVU404
 1186 0020 04F10C02 		add	r2, r4, #12
 1187 0024 04F10801 		add	r1, r4, #8
 1188 0028 FFF7FEFF 		bl	FLASH_OB_GetWRP
 1189              	.LVL104:
 1190              	.L107:
 424:Drivers/STM32U5xx_HAL_Driver/Src/stm32u5xx_hal_flash_ex.c **** 
 1191              		.loc 1 424 3 view .LVU405
 424:Drivers/STM32U5xx_HAL_Driver/Src/stm32u5xx_hal_flash_ex.c **** 
 1192              		.loc 1 424 23 is_stmt 0 view .LVU406
 1193 002c FFF7FEFF 		bl	FLASH_OB_GetRDP
 1194              	.LVL105:
 424:Drivers/STM32U5xx_HAL_Driver/Src/stm32u5xx_hal_flash_ex.c **** 
 1195              		.loc 1 424 21 view .LVU407
 1196 0030 6061     		str	r0, [r4, #20]
 427:Drivers/STM32U5xx_HAL_Driver/Src/stm32u5xx_hal_flash_ex.c **** 
 1197              		.loc 1 427 3 is_stmt 1 view .LVU408
 427:Drivers/STM32U5xx_HAL_Driver/Src/stm32u5xx_hal_flash_ex.c **** 
 1198              		.loc 1 427 25 is_stmt 0 view .LVU409
 1199 0032 FFF7FEFF 		bl	FLASH_OB_GetUser
 1200              	.LVL106:
 427:Drivers/STM32U5xx_HAL_Driver/Src/stm32u5xx_hal_flash_ex.c **** 
 1201              		.loc 1 427 23 view .LVU410
 1202 0036 E061     		str	r0, [r4, #28]
 449:Drivers/STM32U5xx_HAL_Driver/Src/stm32u5xx_hal_flash_ex.c **** #endif /* __ARM_FEATURE_CMSE */
 1203              		.loc 1 449 3 is_stmt 1 view .LVU411
 449:Drivers/STM32U5xx_HAL_Driver/Src/stm32u5xx_hal_flash_ex.c **** #endif /* __ARM_FEATURE_CMSE */
 1204              		.loc 1 449 15 is_stmt 0 view .LVU412
 1205 0038 206A     		ldr	r0, [r4, #32]
 449:Drivers/STM32U5xx_HAL_Driver/Src/stm32u5xx_hal_flash_ex.c **** #endif /* __ARM_FEATURE_CMSE */
 1206              		.loc 1 449 52 view .LVU413
 1207 003a 431E     		subs	r3, r0, #1
 449:Drivers/STM32U5xx_HAL_Driver/Src/stm32u5xx_hal_flash_ex.c **** #endif /* __ARM_FEATURE_CMSE */
 1208              		.loc 1 449 6 view .LVU414
 1209 003c 012B     		cmp	r3, #1
 1210 003e 00D9     		bls	.L110
 1211              	.L105:
 455:Drivers/STM32U5xx_HAL_Driver/Src/stm32u5xx_hal_flash_ex.c **** 
 1212              		.loc 1 455 1 view .LVU415
ARM GAS  /tmp/ccudYRdF.s 			page 54


 1213 0040 10BD     		pop	{r4, pc}
 1214              	.LVL107:
 1215              	.L110:
 452:Drivers/STM32U5xx_HAL_Driver/Src/stm32u5xx_hal_flash_ex.c ****     FLASH_OB_GetBootAddr(pOBInit->BootAddrConfig, &(pOBInit->BootAddr));
 1216              		.loc 1 452 5 is_stmt 1 view .LVU416
 452:Drivers/STM32U5xx_HAL_Driver/Src/stm32u5xx_hal_flash_ex.c ****     FLASH_OB_GetBootAddr(pOBInit->BootAddrConfig, &(pOBInit->BootAddr));
 1217              		.loc 1 452 25 is_stmt 0 view .LVU417
 1218 0042 2368     		ldr	r3, [r4]
 1219 0044 43F00803 		orr	r3, r3, #8
 1220 0048 2146     		mov	r1, r4
 1221 004a 41F8243B 		str	r3, [r1], #36
 453:Drivers/STM32U5xx_HAL_Driver/Src/stm32u5xx_hal_flash_ex.c ****   }
 1222              		.loc 1 453 5 is_stmt 1 view .LVU418
 1223 004e FFF7FEFF 		bl	FLASH_OB_GetBootAddr
 1224              	.LVL108:
 455:Drivers/STM32U5xx_HAL_Driver/Src/stm32u5xx_hal_flash_ex.c **** 
 1225              		.loc 1 455 1 is_stmt 0 view .LVU419
 1226 0052 F5E7     		b	.L105
 1227              		.cfi_endproc
 1228              	.LFE348:
 1230              		.section	.text.HAL_FLASHEx_ConfigBBAttributes,"ax",%progbits
 1231              		.align	1
 1232              		.global	HAL_FLASHEx_ConfigBBAttributes
 1233              		.syntax unified
 1234              		.thumb
 1235              		.thumb_func
 1237              	HAL_FLASHEx_ConfigBBAttributes:
 1238              	.LVL109:
 1239              	.LFB349:
 471:Drivers/STM32U5xx_HAL_Driver/Src/stm32u5xx_hal_flash_ex.c ****   HAL_StatusTypeDef status;
 1240              		.loc 1 471 1 is_stmt 1 view -0
 1241              		.cfi_startproc
 1242              		@ args = 0, pretend = 0, frame = 0
 1243              		@ frame_needed = 0, uses_anonymous_args = 0
 471:Drivers/STM32U5xx_HAL_Driver/Src/stm32u5xx_hal_flash_ex.c ****   HAL_StatusTypeDef status;
 1244              		.loc 1 471 1 is_stmt 0 view .LVU421
 1245 0000 38B5     		push	{r3, r4, r5, lr}
 1246              	.LCFI7:
 1247              		.cfi_def_cfa_offset 16
 1248              		.cfi_offset 3, -16
 1249              		.cfi_offset 4, -12
 1250              		.cfi_offset 5, -8
 1251              		.cfi_offset 14, -4
 1252 0002 0446     		mov	r4, r0
 472:Drivers/STM32U5xx_HAL_Driver/Src/stm32u5xx_hal_flash_ex.c ****   uint8_t index;
 1253              		.loc 1 472 3 is_stmt 1 view .LVU422
 473:Drivers/STM32U5xx_HAL_Driver/Src/stm32u5xx_hal_flash_ex.c ****   __IO uint32_t *reg;
 1254              		.loc 1 473 3 view .LVU423
 474:Drivers/STM32U5xx_HAL_Driver/Src/stm32u5xx_hal_flash_ex.c **** 
 1255              		.loc 1 474 3 view .LVU424
 477:Drivers/STM32U5xx_HAL_Driver/Src/stm32u5xx_hal_flash_ex.c ****   assert_param(IS_FLASH_BB_EXCLUSIVE(pBBAttributes->BBAttributesType));
 1256              		.loc 1 477 3 view .LVU425
 478:Drivers/STM32U5xx_HAL_Driver/Src/stm32u5xx_hal_flash_ex.c **** 
 1257              		.loc 1 478 3 view .LVU426
 481:Drivers/STM32U5xx_HAL_Driver/Src/stm32u5xx_hal_flash_ex.c **** 
 1258              		.loc 1 481 3 view .LVU427
 481:Drivers/STM32U5xx_HAL_Driver/Src/stm32u5xx_hal_flash_ex.c **** 
ARM GAS  /tmp/ccudYRdF.s 			page 55


 1259              		.loc 1 481 12 is_stmt 0 view .LVU428
 1260 0004 4FF47A70 		mov	r0, #1000
 1261              	.LVL110:
 481:Drivers/STM32U5xx_HAL_Driver/Src/stm32u5xx_hal_flash_ex.c **** 
 1262              		.loc 1 481 12 view .LVU429
 1263 0008 FFF7FEFF 		bl	FLASH_WaitForLastOperation
 1264              	.LVL111:
 483:Drivers/STM32U5xx_HAL_Driver/Src/stm32u5xx_hal_flash_ex.c ****   {
 1265              		.loc 1 483 3 is_stmt 1 view .LVU430
 483:Drivers/STM32U5xx_HAL_Driver/Src/stm32u5xx_hal_flash_ex.c ****   {
 1266              		.loc 1 483 6 is_stmt 0 view .LVU431
 1267 000c C8B9     		cbnz	r0, .L112
 501:Drivers/STM32U5xx_HAL_Driver/Src/stm32u5xx_hal_flash_ex.c ****       {
 1268              		.loc 1 501 7 is_stmt 1 view .LVU432
 501:Drivers/STM32U5xx_HAL_Driver/Src/stm32u5xx_hal_flash_ex.c ****       {
 1269              		.loc 1 501 24 is_stmt 0 view .LVU433
 1270 000e 2368     		ldr	r3, [r4]
 501:Drivers/STM32U5xx_HAL_Driver/Src/stm32u5xx_hal_flash_ex.c ****       {
 1271              		.loc 1 501 10 view .LVU434
 1272 0010 012B     		cmp	r3, #1
 1273 0012 02D0     		beq	.L120
 507:Drivers/STM32U5xx_HAL_Driver/Src/stm32u5xx_hal_flash_ex.c ****       }
 1274              		.loc 1 507 13 view .LVU435
 1275 0014 0D4A     		ldr	r2, .L122
 1276              	.L113:
 517:Drivers/STM32U5xx_HAL_Driver/Src/stm32u5xx_hal_flash_ex.c ****       }
 1277              		.loc 1 517 16 discriminator 1 view .LVU436
 1278 0016 0346     		mov	r3, r0
 1279 0018 04E0     		b	.L114
 1280              	.L120:
 503:Drivers/STM32U5xx_HAL_Driver/Src/stm32u5xx_hal_flash_ex.c ****       }
 1281              		.loc 1 503 13 view .LVU437
 1282 001a 0D4A     		ldr	r2, .L122+4
 1283 001c FBE7     		b	.L113
 1284              	.LVL112:
 1285              	.L115:
 519:Drivers/STM32U5xx_HAL_Driver/Src/stm32u5xx_hal_flash_ex.c ****     }
 1286              		.loc 1 519 7 is_stmt 1 discriminator 2 view .LVU438
 519:Drivers/STM32U5xx_HAL_Driver/Src/stm32u5xx_hal_flash_ex.c ****     }
 1287              		.loc 1 519 10 is_stmt 0 discriminator 2 view .LVU439
 1288 001e 0432     		adds	r2, r2, #4
 1289              	.LVL113:
 512:Drivers/STM32U5xx_HAL_Driver/Src/stm32u5xx_hal_flash_ex.c ****     {
 1290              		.loc 1 512 54 is_stmt 1 discriminator 2 view .LVU440
 512:Drivers/STM32U5xx_HAL_Driver/Src/stm32u5xx_hal_flash_ex.c ****     {
 1291              		.loc 1 512 59 is_stmt 0 discriminator 2 view .LVU441
 1292 0020 0133     		adds	r3, r3, #1
 1293              	.LVL114:
 512:Drivers/STM32U5xx_HAL_Driver/Src/stm32u5xx_hal_flash_ex.c ****     {
 1294              		.loc 1 512 59 discriminator 2 view .LVU442
 1295 0022 DBB2     		uxtb	r3, r3
 1296              	.LVL115:
 1297              	.L114:
 512:Drivers/STM32U5xx_HAL_Driver/Src/stm32u5xx_hal_flash_ex.c ****     {
 1298              		.loc 1 512 21 is_stmt 1 discriminator 1 view .LVU443
 512:Drivers/STM32U5xx_HAL_Driver/Src/stm32u5xx_hal_flash_ex.c ****     {
 1299              		.loc 1 512 5 is_stmt 0 discriminator 1 view .LVU444
ARM GAS  /tmp/ccudYRdF.s 			page 56


 1300 0024 032B     		cmp	r3, #3
 1301 0026 0AD8     		bhi	.L121
 514:Drivers/STM32U5xx_HAL_Driver/Src/stm32u5xx_hal_flash_ex.c ****       if ((*reg) != pBBAttributes->BBAttributes_array[index])
 1302              		.loc 1 514 7 is_stmt 1 view .LVU445
 514:Drivers/STM32U5xx_HAL_Driver/Src/stm32u5xx_hal_flash_ex.c ****       if ((*reg) != pBBAttributes->BBAttributes_array[index])
 1303              		.loc 1 514 47 is_stmt 0 view .LVU446
 1304 0028 991C     		adds	r1, r3, #2
 1305 002a 54F82150 		ldr	r5, [r4, r1, lsl #2]
 514:Drivers/STM32U5xx_HAL_Driver/Src/stm32u5xx_hal_flash_ex.c ****       if ((*reg) != pBBAttributes->BBAttributes_array[index])
 1306              		.loc 1 514 12 view .LVU447
 1307 002e 1560     		str	r5, [r2]
 515:Drivers/STM32U5xx_HAL_Driver/Src/stm32u5xx_hal_flash_ex.c ****       {
 1308              		.loc 1 515 7 is_stmt 1 view .LVU448
 515:Drivers/STM32U5xx_HAL_Driver/Src/stm32u5xx_hal_flash_ex.c ****       {
 1309              		.loc 1 515 12 is_stmt 0 view .LVU449
 1310 0030 1568     		ldr	r5, [r2]
 515:Drivers/STM32U5xx_HAL_Driver/Src/stm32u5xx_hal_flash_ex.c ****       {
 1311              		.loc 1 515 54 view .LVU450
 1312 0032 54F82110 		ldr	r1, [r4, r1, lsl #2]
 515:Drivers/STM32U5xx_HAL_Driver/Src/stm32u5xx_hal_flash_ex.c ****       {
 1313              		.loc 1 515 10 view .LVU451
 1314 0036 8D42     		cmp	r5, r1
 1315 0038 F1D0     		beq	.L115
 517:Drivers/STM32U5xx_HAL_Driver/Src/stm32u5xx_hal_flash_ex.c ****       }
 1316              		.loc 1 517 16 view .LVU452
 1317 003a 0120     		movs	r0, #1
 1318              	.LVL116:
 517:Drivers/STM32U5xx_HAL_Driver/Src/stm32u5xx_hal_flash_ex.c ****       }
 1319              		.loc 1 517 16 view .LVU453
 1320 003c EFE7     		b	.L115
 1321              	.LVL117:
 1322              	.L121:
 523:Drivers/STM32U5xx_HAL_Driver/Src/stm32u5xx_hal_flash_ex.c ****   }
 1323              		.loc 1 523 5 is_stmt 1 view .LVU454
 1324              	.LBB4:
 1325              	.LBI4:
 1326              		.file 2 "Drivers/CMSIS/Include/cmsis_gcc.h"
   1:Drivers/CMSIS/Include/cmsis_gcc.h **** /**************************************************************************//**
   2:Drivers/CMSIS/Include/cmsis_gcc.h ****  * @file     cmsis_gcc.h
   3:Drivers/CMSIS/Include/cmsis_gcc.h ****  * @brief    CMSIS compiler GCC header file
   4:Drivers/CMSIS/Include/cmsis_gcc.h ****  * @version  V5.4.1
   5:Drivers/CMSIS/Include/cmsis_gcc.h ****  * @date     27. May 2021
   6:Drivers/CMSIS/Include/cmsis_gcc.h ****  ******************************************************************************/
   7:Drivers/CMSIS/Include/cmsis_gcc.h **** /*
   8:Drivers/CMSIS/Include/cmsis_gcc.h ****  * Copyright (c) 2009-2021 Arm Limited. All rights reserved.
   9:Drivers/CMSIS/Include/cmsis_gcc.h ****  *
  10:Drivers/CMSIS/Include/cmsis_gcc.h ****  * SPDX-License-Identifier: Apache-2.0
  11:Drivers/CMSIS/Include/cmsis_gcc.h ****  *
  12:Drivers/CMSIS/Include/cmsis_gcc.h ****  * Licensed under the Apache License, Version 2.0 (the License); you may
  13:Drivers/CMSIS/Include/cmsis_gcc.h ****  * not use this file except in compliance with the License.
  14:Drivers/CMSIS/Include/cmsis_gcc.h ****  * You may obtain a copy of the License at
  15:Drivers/CMSIS/Include/cmsis_gcc.h ****  *
  16:Drivers/CMSIS/Include/cmsis_gcc.h ****  * www.apache.org/licenses/LICENSE-2.0
  17:Drivers/CMSIS/Include/cmsis_gcc.h ****  *
  18:Drivers/CMSIS/Include/cmsis_gcc.h ****  * Unless required by applicable law or agreed to in writing, software
  19:Drivers/CMSIS/Include/cmsis_gcc.h ****  * distributed under the License is distributed on an AS IS BASIS, WITHOUT
  20:Drivers/CMSIS/Include/cmsis_gcc.h ****  * WARRANTIES OR CONDITIONS OF ANY KIND, either express or implied.
ARM GAS  /tmp/ccudYRdF.s 			page 57


  21:Drivers/CMSIS/Include/cmsis_gcc.h ****  * See the License for the specific language governing permissions and
  22:Drivers/CMSIS/Include/cmsis_gcc.h ****  * limitations under the License.
  23:Drivers/CMSIS/Include/cmsis_gcc.h ****  */
  24:Drivers/CMSIS/Include/cmsis_gcc.h **** 
  25:Drivers/CMSIS/Include/cmsis_gcc.h **** #ifndef __CMSIS_GCC_H
  26:Drivers/CMSIS/Include/cmsis_gcc.h **** #define __CMSIS_GCC_H
  27:Drivers/CMSIS/Include/cmsis_gcc.h **** 
  28:Drivers/CMSIS/Include/cmsis_gcc.h **** /* ignore some GCC warnings */
  29:Drivers/CMSIS/Include/cmsis_gcc.h **** #pragma GCC diagnostic push
  30:Drivers/CMSIS/Include/cmsis_gcc.h **** #pragma GCC diagnostic ignored "-Wsign-conversion"
  31:Drivers/CMSIS/Include/cmsis_gcc.h **** #pragma GCC diagnostic ignored "-Wconversion"
  32:Drivers/CMSIS/Include/cmsis_gcc.h **** #pragma GCC diagnostic ignored "-Wunused-parameter"
  33:Drivers/CMSIS/Include/cmsis_gcc.h **** 
  34:Drivers/CMSIS/Include/cmsis_gcc.h **** /* Fallback for __has_builtin */
  35:Drivers/CMSIS/Include/cmsis_gcc.h **** #ifndef __has_builtin
  36:Drivers/CMSIS/Include/cmsis_gcc.h ****   #define __has_builtin(x) (0)
  37:Drivers/CMSIS/Include/cmsis_gcc.h **** #endif
  38:Drivers/CMSIS/Include/cmsis_gcc.h **** 
  39:Drivers/CMSIS/Include/cmsis_gcc.h **** /* CMSIS compiler specific defines */
  40:Drivers/CMSIS/Include/cmsis_gcc.h **** #ifndef   __ASM
  41:Drivers/CMSIS/Include/cmsis_gcc.h ****   #define __ASM                                  __asm
  42:Drivers/CMSIS/Include/cmsis_gcc.h **** #endif
  43:Drivers/CMSIS/Include/cmsis_gcc.h **** #ifndef   __INLINE
  44:Drivers/CMSIS/Include/cmsis_gcc.h ****   #define __INLINE                               inline
  45:Drivers/CMSIS/Include/cmsis_gcc.h **** #endif
  46:Drivers/CMSIS/Include/cmsis_gcc.h **** #ifndef   __STATIC_INLINE
  47:Drivers/CMSIS/Include/cmsis_gcc.h ****   #define __STATIC_INLINE                        static inline
  48:Drivers/CMSIS/Include/cmsis_gcc.h **** #endif
  49:Drivers/CMSIS/Include/cmsis_gcc.h **** #ifndef   __STATIC_FORCEINLINE
  50:Drivers/CMSIS/Include/cmsis_gcc.h ****   #define __STATIC_FORCEINLINE                   __attribute__((always_inline)) static inline
  51:Drivers/CMSIS/Include/cmsis_gcc.h **** #endif
  52:Drivers/CMSIS/Include/cmsis_gcc.h **** #ifndef   __NO_RETURN
  53:Drivers/CMSIS/Include/cmsis_gcc.h ****   #define __NO_RETURN                            __attribute__((__noreturn__))
  54:Drivers/CMSIS/Include/cmsis_gcc.h **** #endif
  55:Drivers/CMSIS/Include/cmsis_gcc.h **** #ifndef   __USED
  56:Drivers/CMSIS/Include/cmsis_gcc.h ****   #define __USED                                 __attribute__((used))
  57:Drivers/CMSIS/Include/cmsis_gcc.h **** #endif
  58:Drivers/CMSIS/Include/cmsis_gcc.h **** #ifndef   __WEAK
  59:Drivers/CMSIS/Include/cmsis_gcc.h ****   #define __WEAK                                 __attribute__((weak))
  60:Drivers/CMSIS/Include/cmsis_gcc.h **** #endif
  61:Drivers/CMSIS/Include/cmsis_gcc.h **** #ifndef   __PACKED
  62:Drivers/CMSIS/Include/cmsis_gcc.h ****   #define __PACKED                               __attribute__((packed, aligned(1)))
  63:Drivers/CMSIS/Include/cmsis_gcc.h **** #endif
  64:Drivers/CMSIS/Include/cmsis_gcc.h **** #ifndef   __PACKED_STRUCT
  65:Drivers/CMSIS/Include/cmsis_gcc.h ****   #define __PACKED_STRUCT                        struct __attribute__((packed, aligned(1)))
  66:Drivers/CMSIS/Include/cmsis_gcc.h **** #endif
  67:Drivers/CMSIS/Include/cmsis_gcc.h **** #ifndef   __PACKED_UNION
  68:Drivers/CMSIS/Include/cmsis_gcc.h ****   #define __PACKED_UNION                         union __attribute__((packed, aligned(1)))
  69:Drivers/CMSIS/Include/cmsis_gcc.h **** #endif
  70:Drivers/CMSIS/Include/cmsis_gcc.h **** #ifndef   __UNALIGNED_UINT32        /* deprecated */
  71:Drivers/CMSIS/Include/cmsis_gcc.h ****   #pragma GCC diagnostic push
  72:Drivers/CMSIS/Include/cmsis_gcc.h ****   #pragma GCC diagnostic ignored "-Wpacked"
  73:Drivers/CMSIS/Include/cmsis_gcc.h ****   #pragma GCC diagnostic ignored "-Wattributes"
  74:Drivers/CMSIS/Include/cmsis_gcc.h ****   struct __attribute__((packed)) T_UINT32 { uint32_t v; };
  75:Drivers/CMSIS/Include/cmsis_gcc.h ****   #pragma GCC diagnostic pop
  76:Drivers/CMSIS/Include/cmsis_gcc.h ****   #define __UNALIGNED_UINT32(x)                  (((struct T_UINT32 *)(x))->v)
  77:Drivers/CMSIS/Include/cmsis_gcc.h **** #endif
ARM GAS  /tmp/ccudYRdF.s 			page 58


  78:Drivers/CMSIS/Include/cmsis_gcc.h **** #ifndef   __UNALIGNED_UINT16_WRITE
  79:Drivers/CMSIS/Include/cmsis_gcc.h ****   #pragma GCC diagnostic push
  80:Drivers/CMSIS/Include/cmsis_gcc.h ****   #pragma GCC diagnostic ignored "-Wpacked"
  81:Drivers/CMSIS/Include/cmsis_gcc.h ****   #pragma GCC diagnostic ignored "-Wattributes"
  82:Drivers/CMSIS/Include/cmsis_gcc.h ****   __PACKED_STRUCT T_UINT16_WRITE { uint16_t v; };
  83:Drivers/CMSIS/Include/cmsis_gcc.h ****   #pragma GCC diagnostic pop
  84:Drivers/CMSIS/Include/cmsis_gcc.h ****   #define __UNALIGNED_UINT16_WRITE(addr, val)    (void)((((struct T_UINT16_WRITE *)(void *)(addr))-
  85:Drivers/CMSIS/Include/cmsis_gcc.h **** #endif
  86:Drivers/CMSIS/Include/cmsis_gcc.h **** #ifndef   __UNALIGNED_UINT16_READ
  87:Drivers/CMSIS/Include/cmsis_gcc.h ****   #pragma GCC diagnostic push
  88:Drivers/CMSIS/Include/cmsis_gcc.h ****   #pragma GCC diagnostic ignored "-Wpacked"
  89:Drivers/CMSIS/Include/cmsis_gcc.h ****   #pragma GCC diagnostic ignored "-Wattributes"
  90:Drivers/CMSIS/Include/cmsis_gcc.h ****   __PACKED_STRUCT T_UINT16_READ { uint16_t v; };
  91:Drivers/CMSIS/Include/cmsis_gcc.h ****   #pragma GCC diagnostic pop
  92:Drivers/CMSIS/Include/cmsis_gcc.h ****   #define __UNALIGNED_UINT16_READ(addr)          (((const struct T_UINT16_READ *)(const void *)(add
  93:Drivers/CMSIS/Include/cmsis_gcc.h **** #endif
  94:Drivers/CMSIS/Include/cmsis_gcc.h **** #ifndef   __UNALIGNED_UINT32_WRITE
  95:Drivers/CMSIS/Include/cmsis_gcc.h ****   #pragma GCC diagnostic push
  96:Drivers/CMSIS/Include/cmsis_gcc.h ****   #pragma GCC diagnostic ignored "-Wpacked"
  97:Drivers/CMSIS/Include/cmsis_gcc.h ****   #pragma GCC diagnostic ignored "-Wattributes"
  98:Drivers/CMSIS/Include/cmsis_gcc.h ****   __PACKED_STRUCT T_UINT32_WRITE { uint32_t v; };
  99:Drivers/CMSIS/Include/cmsis_gcc.h ****   #pragma GCC diagnostic pop
 100:Drivers/CMSIS/Include/cmsis_gcc.h ****   #define __UNALIGNED_UINT32_WRITE(addr, val)    (void)((((struct T_UINT32_WRITE *)(void *)(addr))-
 101:Drivers/CMSIS/Include/cmsis_gcc.h **** #endif
 102:Drivers/CMSIS/Include/cmsis_gcc.h **** #ifndef   __UNALIGNED_UINT32_READ
 103:Drivers/CMSIS/Include/cmsis_gcc.h ****   #pragma GCC diagnostic push
 104:Drivers/CMSIS/Include/cmsis_gcc.h ****   #pragma GCC diagnostic ignored "-Wpacked"
 105:Drivers/CMSIS/Include/cmsis_gcc.h ****   #pragma GCC diagnostic ignored "-Wattributes"
 106:Drivers/CMSIS/Include/cmsis_gcc.h ****   __PACKED_STRUCT T_UINT32_READ { uint32_t v; };
 107:Drivers/CMSIS/Include/cmsis_gcc.h ****   #pragma GCC diagnostic pop
 108:Drivers/CMSIS/Include/cmsis_gcc.h ****   #define __UNALIGNED_UINT32_READ(addr)          (((const struct T_UINT32_READ *)(const void *)(add
 109:Drivers/CMSIS/Include/cmsis_gcc.h **** #endif
 110:Drivers/CMSIS/Include/cmsis_gcc.h **** #ifndef   __ALIGNED
 111:Drivers/CMSIS/Include/cmsis_gcc.h ****   #define __ALIGNED(x)                           __attribute__((aligned(x)))
 112:Drivers/CMSIS/Include/cmsis_gcc.h **** #endif
 113:Drivers/CMSIS/Include/cmsis_gcc.h **** #ifndef   __RESTRICT
 114:Drivers/CMSIS/Include/cmsis_gcc.h ****   #define __RESTRICT                             __restrict
 115:Drivers/CMSIS/Include/cmsis_gcc.h **** #endif
 116:Drivers/CMSIS/Include/cmsis_gcc.h **** #ifndef   __COMPILER_BARRIER
 117:Drivers/CMSIS/Include/cmsis_gcc.h ****   #define __COMPILER_BARRIER()                   __ASM volatile("":::"memory")
 118:Drivers/CMSIS/Include/cmsis_gcc.h **** #endif
 119:Drivers/CMSIS/Include/cmsis_gcc.h **** 
 120:Drivers/CMSIS/Include/cmsis_gcc.h **** /* #########################  Startup and Lowlevel Init  ######################## */
 121:Drivers/CMSIS/Include/cmsis_gcc.h **** 
 122:Drivers/CMSIS/Include/cmsis_gcc.h **** #ifndef __PROGRAM_START
 123:Drivers/CMSIS/Include/cmsis_gcc.h **** 
 124:Drivers/CMSIS/Include/cmsis_gcc.h **** /**
 125:Drivers/CMSIS/Include/cmsis_gcc.h ****   \brief   Initializes data and bss sections
 126:Drivers/CMSIS/Include/cmsis_gcc.h ****   \details This default implementations initialized all data and additional bss
 127:Drivers/CMSIS/Include/cmsis_gcc.h ****            sections relying on .copy.table and .zero.table specified properly
 128:Drivers/CMSIS/Include/cmsis_gcc.h ****            in the used linker script.
 129:Drivers/CMSIS/Include/cmsis_gcc.h **** 
 130:Drivers/CMSIS/Include/cmsis_gcc.h ****  */
 131:Drivers/CMSIS/Include/cmsis_gcc.h **** __STATIC_FORCEINLINE __NO_RETURN void __cmsis_start(void)
 132:Drivers/CMSIS/Include/cmsis_gcc.h **** {
 133:Drivers/CMSIS/Include/cmsis_gcc.h ****   extern void _start(void) __NO_RETURN;
 134:Drivers/CMSIS/Include/cmsis_gcc.h **** 
ARM GAS  /tmp/ccudYRdF.s 			page 59


 135:Drivers/CMSIS/Include/cmsis_gcc.h ****   typedef struct {
 136:Drivers/CMSIS/Include/cmsis_gcc.h ****     uint32_t const* src;
 137:Drivers/CMSIS/Include/cmsis_gcc.h ****     uint32_t* dest;
 138:Drivers/CMSIS/Include/cmsis_gcc.h ****     uint32_t  wlen;
 139:Drivers/CMSIS/Include/cmsis_gcc.h ****   } __copy_table_t;
 140:Drivers/CMSIS/Include/cmsis_gcc.h **** 
 141:Drivers/CMSIS/Include/cmsis_gcc.h ****   typedef struct {
 142:Drivers/CMSIS/Include/cmsis_gcc.h ****     uint32_t* dest;
 143:Drivers/CMSIS/Include/cmsis_gcc.h ****     uint32_t  wlen;
 144:Drivers/CMSIS/Include/cmsis_gcc.h ****   } __zero_table_t;
 145:Drivers/CMSIS/Include/cmsis_gcc.h **** 
 146:Drivers/CMSIS/Include/cmsis_gcc.h ****   extern const __copy_table_t __copy_table_start__;
 147:Drivers/CMSIS/Include/cmsis_gcc.h ****   extern const __copy_table_t __copy_table_end__;
 148:Drivers/CMSIS/Include/cmsis_gcc.h ****   extern const __zero_table_t __zero_table_start__;
 149:Drivers/CMSIS/Include/cmsis_gcc.h ****   extern const __zero_table_t __zero_table_end__;
 150:Drivers/CMSIS/Include/cmsis_gcc.h **** 
 151:Drivers/CMSIS/Include/cmsis_gcc.h ****   for (__copy_table_t const* pTable = &__copy_table_start__; pTable < &__copy_table_end__; ++pTable
 152:Drivers/CMSIS/Include/cmsis_gcc.h ****     for(uint32_t i=0u; i<pTable->wlen; ++i) {
 153:Drivers/CMSIS/Include/cmsis_gcc.h ****       pTable->dest[i] = pTable->src[i];
 154:Drivers/CMSIS/Include/cmsis_gcc.h ****     }
 155:Drivers/CMSIS/Include/cmsis_gcc.h ****   }
 156:Drivers/CMSIS/Include/cmsis_gcc.h **** 
 157:Drivers/CMSIS/Include/cmsis_gcc.h ****   for (__zero_table_t const* pTable = &__zero_table_start__; pTable < &__zero_table_end__; ++pTable
 158:Drivers/CMSIS/Include/cmsis_gcc.h ****     for(uint32_t i=0u; i<pTable->wlen; ++i) {
 159:Drivers/CMSIS/Include/cmsis_gcc.h ****       pTable->dest[i] = 0u;
 160:Drivers/CMSIS/Include/cmsis_gcc.h ****     }
 161:Drivers/CMSIS/Include/cmsis_gcc.h ****   }
 162:Drivers/CMSIS/Include/cmsis_gcc.h **** 
 163:Drivers/CMSIS/Include/cmsis_gcc.h ****   _start();
 164:Drivers/CMSIS/Include/cmsis_gcc.h **** }
 165:Drivers/CMSIS/Include/cmsis_gcc.h **** 
 166:Drivers/CMSIS/Include/cmsis_gcc.h **** #define __PROGRAM_START           __cmsis_start
 167:Drivers/CMSIS/Include/cmsis_gcc.h **** #endif
 168:Drivers/CMSIS/Include/cmsis_gcc.h **** 
 169:Drivers/CMSIS/Include/cmsis_gcc.h **** #ifndef __INITIAL_SP
 170:Drivers/CMSIS/Include/cmsis_gcc.h **** #define __INITIAL_SP              __StackTop
 171:Drivers/CMSIS/Include/cmsis_gcc.h **** #endif
 172:Drivers/CMSIS/Include/cmsis_gcc.h **** 
 173:Drivers/CMSIS/Include/cmsis_gcc.h **** #ifndef __STACK_LIMIT
 174:Drivers/CMSIS/Include/cmsis_gcc.h **** #define __STACK_LIMIT             __StackLimit
 175:Drivers/CMSIS/Include/cmsis_gcc.h **** #endif
 176:Drivers/CMSIS/Include/cmsis_gcc.h **** 
 177:Drivers/CMSIS/Include/cmsis_gcc.h **** #ifndef __VECTOR_TABLE
 178:Drivers/CMSIS/Include/cmsis_gcc.h **** #define __VECTOR_TABLE            __Vectors
 179:Drivers/CMSIS/Include/cmsis_gcc.h **** #endif
 180:Drivers/CMSIS/Include/cmsis_gcc.h **** 
 181:Drivers/CMSIS/Include/cmsis_gcc.h **** #ifndef __VECTOR_TABLE_ATTRIBUTE
 182:Drivers/CMSIS/Include/cmsis_gcc.h **** #define __VECTOR_TABLE_ATTRIBUTE  __attribute__((used, section(".vectors")))
 183:Drivers/CMSIS/Include/cmsis_gcc.h **** #endif
 184:Drivers/CMSIS/Include/cmsis_gcc.h **** 
 185:Drivers/CMSIS/Include/cmsis_gcc.h **** #if defined (__ARM_FEATURE_CMSE) && (__ARM_FEATURE_CMSE == 3U)
 186:Drivers/CMSIS/Include/cmsis_gcc.h **** #ifndef __STACK_SEAL
 187:Drivers/CMSIS/Include/cmsis_gcc.h **** #define __STACK_SEAL              __StackSeal
 188:Drivers/CMSIS/Include/cmsis_gcc.h **** #endif
 189:Drivers/CMSIS/Include/cmsis_gcc.h **** 
 190:Drivers/CMSIS/Include/cmsis_gcc.h **** #ifndef __TZ_STACK_SEAL_SIZE
 191:Drivers/CMSIS/Include/cmsis_gcc.h **** #define __TZ_STACK_SEAL_SIZE      8U
ARM GAS  /tmp/ccudYRdF.s 			page 60


 192:Drivers/CMSIS/Include/cmsis_gcc.h **** #endif
 193:Drivers/CMSIS/Include/cmsis_gcc.h **** 
 194:Drivers/CMSIS/Include/cmsis_gcc.h **** #ifndef __TZ_STACK_SEAL_VALUE
 195:Drivers/CMSIS/Include/cmsis_gcc.h **** #define __TZ_STACK_SEAL_VALUE     0xFEF5EDA5FEF5EDA5ULL
 196:Drivers/CMSIS/Include/cmsis_gcc.h **** #endif
 197:Drivers/CMSIS/Include/cmsis_gcc.h **** 
 198:Drivers/CMSIS/Include/cmsis_gcc.h **** 
 199:Drivers/CMSIS/Include/cmsis_gcc.h **** __STATIC_FORCEINLINE void __TZ_set_STACKSEAL_S (uint32_t* stackTop) {
 200:Drivers/CMSIS/Include/cmsis_gcc.h ****   *((uint64_t *)stackTop) = __TZ_STACK_SEAL_VALUE;
 201:Drivers/CMSIS/Include/cmsis_gcc.h **** }
 202:Drivers/CMSIS/Include/cmsis_gcc.h **** #endif
 203:Drivers/CMSIS/Include/cmsis_gcc.h **** 
 204:Drivers/CMSIS/Include/cmsis_gcc.h **** 
 205:Drivers/CMSIS/Include/cmsis_gcc.h **** /* ##########################  Core Instruction Access  ######################### */
 206:Drivers/CMSIS/Include/cmsis_gcc.h **** /** \defgroup CMSIS_Core_InstructionInterface CMSIS Core Instruction Interface
 207:Drivers/CMSIS/Include/cmsis_gcc.h ****   Access to dedicated instructions
 208:Drivers/CMSIS/Include/cmsis_gcc.h ****   @{
 209:Drivers/CMSIS/Include/cmsis_gcc.h **** */
 210:Drivers/CMSIS/Include/cmsis_gcc.h **** 
 211:Drivers/CMSIS/Include/cmsis_gcc.h **** /* Define macros for porting to both thumb1 and thumb2.
 212:Drivers/CMSIS/Include/cmsis_gcc.h ****  * For thumb1, use low register (r0-r7), specified by constraint "l"
 213:Drivers/CMSIS/Include/cmsis_gcc.h ****  * Otherwise, use general registers, specified by constraint "r" */
 214:Drivers/CMSIS/Include/cmsis_gcc.h **** #if defined (__thumb__) && !defined (__thumb2__)
 215:Drivers/CMSIS/Include/cmsis_gcc.h **** #define __CMSIS_GCC_OUT_REG(r) "=l" (r)
 216:Drivers/CMSIS/Include/cmsis_gcc.h **** #define __CMSIS_GCC_RW_REG(r) "+l" (r)
 217:Drivers/CMSIS/Include/cmsis_gcc.h **** #define __CMSIS_GCC_USE_REG(r) "l" (r)
 218:Drivers/CMSIS/Include/cmsis_gcc.h **** #else
 219:Drivers/CMSIS/Include/cmsis_gcc.h **** #define __CMSIS_GCC_OUT_REG(r) "=r" (r)
 220:Drivers/CMSIS/Include/cmsis_gcc.h **** #define __CMSIS_GCC_RW_REG(r) "+r" (r)
 221:Drivers/CMSIS/Include/cmsis_gcc.h **** #define __CMSIS_GCC_USE_REG(r) "r" (r)
 222:Drivers/CMSIS/Include/cmsis_gcc.h **** #endif
 223:Drivers/CMSIS/Include/cmsis_gcc.h **** 
 224:Drivers/CMSIS/Include/cmsis_gcc.h **** /**
 225:Drivers/CMSIS/Include/cmsis_gcc.h ****   \brief   No Operation
 226:Drivers/CMSIS/Include/cmsis_gcc.h ****   \details No Operation does nothing. This instruction can be used for code alignment purposes.
 227:Drivers/CMSIS/Include/cmsis_gcc.h ****  */
 228:Drivers/CMSIS/Include/cmsis_gcc.h **** #define __NOP()                             __ASM volatile ("nop")
 229:Drivers/CMSIS/Include/cmsis_gcc.h **** 
 230:Drivers/CMSIS/Include/cmsis_gcc.h **** /**
 231:Drivers/CMSIS/Include/cmsis_gcc.h ****   \brief   Wait For Interrupt
 232:Drivers/CMSIS/Include/cmsis_gcc.h ****   \details Wait For Interrupt is a hint instruction that suspends execution until one of a number o
 233:Drivers/CMSIS/Include/cmsis_gcc.h ****  */
 234:Drivers/CMSIS/Include/cmsis_gcc.h **** #define __WFI()                             __ASM volatile ("wfi":::"memory")
 235:Drivers/CMSIS/Include/cmsis_gcc.h **** 
 236:Drivers/CMSIS/Include/cmsis_gcc.h **** 
 237:Drivers/CMSIS/Include/cmsis_gcc.h **** /**
 238:Drivers/CMSIS/Include/cmsis_gcc.h ****   \brief   Wait For Event
 239:Drivers/CMSIS/Include/cmsis_gcc.h ****   \details Wait For Event is a hint instruction that permits the processor to enter
 240:Drivers/CMSIS/Include/cmsis_gcc.h ****            a low-power state until one of a number of events occurs.
 241:Drivers/CMSIS/Include/cmsis_gcc.h ****  */
 242:Drivers/CMSIS/Include/cmsis_gcc.h **** #define __WFE()                             __ASM volatile ("wfe":::"memory")
 243:Drivers/CMSIS/Include/cmsis_gcc.h **** 
 244:Drivers/CMSIS/Include/cmsis_gcc.h **** 
 245:Drivers/CMSIS/Include/cmsis_gcc.h **** /**
 246:Drivers/CMSIS/Include/cmsis_gcc.h ****   \brief   Send Event
 247:Drivers/CMSIS/Include/cmsis_gcc.h ****   \details Send Event is a hint instruction. It causes an event to be signaled to the CPU.
 248:Drivers/CMSIS/Include/cmsis_gcc.h ****  */
ARM GAS  /tmp/ccudYRdF.s 			page 61


 249:Drivers/CMSIS/Include/cmsis_gcc.h **** #define __SEV()                             __ASM volatile ("sev")
 250:Drivers/CMSIS/Include/cmsis_gcc.h **** 
 251:Drivers/CMSIS/Include/cmsis_gcc.h **** 
 252:Drivers/CMSIS/Include/cmsis_gcc.h **** /**
 253:Drivers/CMSIS/Include/cmsis_gcc.h ****   \brief   Instruction Synchronization Barrier
 254:Drivers/CMSIS/Include/cmsis_gcc.h ****   \details Instruction Synchronization Barrier flushes the pipeline in the processor,
 255:Drivers/CMSIS/Include/cmsis_gcc.h ****            so that all instructions following the ISB are fetched from cache or memory,
 256:Drivers/CMSIS/Include/cmsis_gcc.h ****            after the instruction has been completed.
 257:Drivers/CMSIS/Include/cmsis_gcc.h ****  */
 258:Drivers/CMSIS/Include/cmsis_gcc.h **** __STATIC_FORCEINLINE void __ISB(void)
 1327              		.loc 2 258 27 view .LVU455
 1328              	.LBB5:
 259:Drivers/CMSIS/Include/cmsis_gcc.h **** {
 260:Drivers/CMSIS/Include/cmsis_gcc.h ****   __ASM volatile ("isb 0xF":::"memory");
 1329              		.loc 2 260 3 view .LVU456
 1330              		.syntax unified
 1331              	@ 260 "Drivers/CMSIS/Include/cmsis_gcc.h" 1
 1332 003e BFF36F8F 		isb 0xF
 1333              	@ 0 "" 2
 1334              	.LVL118:
 1335              		.thumb
 1336              		.syntax unified
 1337              	.L112:
 1338              		.loc 2 260 3 is_stmt 0 view .LVU457
 1339              	.LBE5:
 1340              	.LBE4:
 527:Drivers/STM32U5xx_HAL_Driver/Src/stm32u5xx_hal_flash_ex.c **** 
 1341              		.loc 1 527 3 is_stmt 1 view .LVU458
 527:Drivers/STM32U5xx_HAL_Driver/Src/stm32u5xx_hal_flash_ex.c **** 
 1342              		.loc 1 527 3 view .LVU459
 1343 0042 044B     		ldr	r3, .L122+8
 1344 0044 0022     		movs	r2, #0
 1345 0046 1A70     		strb	r2, [r3]
 527:Drivers/STM32U5xx_HAL_Driver/Src/stm32u5xx_hal_flash_ex.c **** 
 1346              		.loc 1 527 3 view .LVU460
 529:Drivers/STM32U5xx_HAL_Driver/Src/stm32u5xx_hal_flash_ex.c **** }
 1347              		.loc 1 529 3 view .LVU461
 530:Drivers/STM32U5xx_HAL_Driver/Src/stm32u5xx_hal_flash_ex.c **** 
 1348              		.loc 1 530 1 is_stmt 0 view .LVU462
 1349 0048 38BD     		pop	{r3, r4, r5, pc}
 1350              	.LVL119:
 1351              	.L123:
 530:Drivers/STM32U5xx_HAL_Driver/Src/stm32u5xx_hal_flash_ex.c **** 
 1352              		.loc 1 530 1 view .LVU463
 1353 004a 00BF     		.align	2
 1354              	.L122:
 1355 004c F0200240 		.word	1073881328
 1356 0050 D0200240 		.word	1073881296
 1357 0054 00000000 		.word	pFlash
 1358              		.cfi_endproc
 1359              	.LFE349:
 1361              		.section	.text.HAL_FLASHEx_GetConfigBBAttributes,"ax",%progbits
 1362              		.align	1
 1363              		.global	HAL_FLASHEx_GetConfigBBAttributes
 1364              		.syntax unified
 1365              		.thumb
 1366              		.thumb_func
ARM GAS  /tmp/ccudYRdF.s 			page 62


 1368              	HAL_FLASHEx_GetConfigBBAttributes:
 1369              	.LVL120:
 1370              	.LFB350:
 545:Drivers/STM32U5xx_HAL_Driver/Src/stm32u5xx_hal_flash_ex.c ****   uint8_t index;
 1371              		.loc 1 545 1 is_stmt 1 view -0
 1372              		.cfi_startproc
 1373              		@ args = 0, pretend = 0, frame = 0
 1374              		@ frame_needed = 0, uses_anonymous_args = 0
 1375              		@ link register save eliminated.
 546:Drivers/STM32U5xx_HAL_Driver/Src/stm32u5xx_hal_flash_ex.c ****   __IO uint32_t *reg;
 1376              		.loc 1 546 3 view .LVU465
 547:Drivers/STM32U5xx_HAL_Driver/Src/stm32u5xx_hal_flash_ex.c **** 
 1377              		.loc 1 547 3 view .LVU466
 550:Drivers/STM32U5xx_HAL_Driver/Src/stm32u5xx_hal_flash_ex.c ****   assert_param(IS_FLASH_BB_EXCLUSIVE(pBBAttributes->BBAttributesType));
 1378              		.loc 1 550 3 view .LVU467
 551:Drivers/STM32U5xx_HAL_Driver/Src/stm32u5xx_hal_flash_ex.c **** 
 1379              		.loc 1 551 3 view .LVU468
 554:Drivers/STM32U5xx_HAL_Driver/Src/stm32u5xx_hal_flash_ex.c ****   {
 1380              		.loc 1 554 3 view .LVU469
 554:Drivers/STM32U5xx_HAL_Driver/Src/stm32u5xx_hal_flash_ex.c ****   {
 1381              		.loc 1 554 20 is_stmt 0 view .LVU470
 1382 0000 4368     		ldr	r3, [r0, #4]
 554:Drivers/STM32U5xx_HAL_Driver/Src/stm32u5xx_hal_flash_ex.c ****   {
 1383              		.loc 1 554 6 view .LVU471
 1384 0002 012B     		cmp	r3, #1
 1385 0004 13D0     		beq	.L134
 567:Drivers/STM32U5xx_HAL_Driver/Src/stm32u5xx_hal_flash_ex.c ****     {
 1386              		.loc 1 567 5 is_stmt 1 view .LVU472
 567:Drivers/STM32U5xx_HAL_Driver/Src/stm32u5xx_hal_flash_ex.c ****     {
 1387              		.loc 1 567 22 is_stmt 0 view .LVU473
 1388 0006 0368     		ldr	r3, [r0]
 567:Drivers/STM32U5xx_HAL_Driver/Src/stm32u5xx_hal_flash_ex.c ****     {
 1389              		.loc 1 567 8 view .LVU474
 1390 0008 012B     		cmp	r3, #1
 1391 000a 17D0     		beq	.L135
 573:Drivers/STM32U5xx_HAL_Driver/Src/stm32u5xx_hal_flash_ex.c ****     }
 1392              		.loc 1 573 11 view .LVU475
 1393 000c 0D4A     		ldr	r2, .L138
 1394              	.L126:
 569:Drivers/STM32U5xx_HAL_Driver/Src/stm32u5xx_hal_flash_ex.c ****     }
 1395              		.loc 1 569 11 discriminator 1 view .LVU476
 1396 000e 0023     		movs	r3, #0
 1397              	.LVL121:
 578:Drivers/STM32U5xx_HAL_Driver/Src/stm32u5xx_hal_flash_ex.c ****   {
 1398              		.loc 1 578 19 is_stmt 1 discriminator 1 view .LVU477
 578:Drivers/STM32U5xx_HAL_Driver/Src/stm32u5xx_hal_flash_ex.c ****   {
 1399              		.loc 1 578 3 is_stmt 0 discriminator 1 view .LVU478
 1400 0010 032B     		cmp	r3, #3
 1401 0012 15D8     		bhi	.L136
 545:Drivers/STM32U5xx_HAL_Driver/Src/stm32u5xx_hal_flash_ex.c ****   uint8_t index;
 1402              		.loc 1 545 1 view .LVU479
 1403 0014 10B4     		push	{r4}
 1404              	.LCFI8:
 1405              		.cfi_def_cfa_offset 4
 1406              		.cfi_offset 4, -4
 1407              	.L128:
 580:Drivers/STM32U5xx_HAL_Driver/Src/stm32u5xx_hal_flash_ex.c ****     reg++;
ARM GAS  /tmp/ccudYRdF.s 			page 63


 1408              		.loc 1 580 5 is_stmt 1 discriminator 3 view .LVU480
 580:Drivers/STM32U5xx_HAL_Driver/Src/stm32u5xx_hal_flash_ex.c ****     reg++;
 1409              		.loc 1 580 49 is_stmt 0 discriminator 3 view .LVU481
 1410 0016 52F8044B 		ldr	r4, [r2], #4
 1411              	.LVL122:
 580:Drivers/STM32U5xx_HAL_Driver/Src/stm32u5xx_hal_flash_ex.c ****     reg++;
 1412              		.loc 1 580 46 discriminator 3 view .LVU482
 1413 001a 991C     		adds	r1, r3, #2
 1414 001c 40F82140 		str	r4, [r0, r1, lsl #2]
 581:Drivers/STM32U5xx_HAL_Driver/Src/stm32u5xx_hal_flash_ex.c ****   }
 1415              		.loc 1 581 5 is_stmt 1 discriminator 3 view .LVU483
 1416              	.LVL123:
 578:Drivers/STM32U5xx_HAL_Driver/Src/stm32u5xx_hal_flash_ex.c ****   {
 1417              		.loc 1 578 52 discriminator 3 view .LVU484
 578:Drivers/STM32U5xx_HAL_Driver/Src/stm32u5xx_hal_flash_ex.c ****   {
 1418              		.loc 1 578 57 is_stmt 0 discriminator 3 view .LVU485
 1419 0020 0133     		adds	r3, r3, #1
 1420              	.LVL124:
 578:Drivers/STM32U5xx_HAL_Driver/Src/stm32u5xx_hal_flash_ex.c ****   {
 1421              		.loc 1 578 57 discriminator 3 view .LVU486
 1422 0022 DBB2     		uxtb	r3, r3
 1423              	.LVL125:
 578:Drivers/STM32U5xx_HAL_Driver/Src/stm32u5xx_hal_flash_ex.c ****   {
 1424              		.loc 1 578 19 is_stmt 1 discriminator 3 view .LVU487
 578:Drivers/STM32U5xx_HAL_Driver/Src/stm32u5xx_hal_flash_ex.c ****   {
 1425              		.loc 1 578 3 is_stmt 0 discriminator 3 view .LVU488
 1426 0024 032B     		cmp	r3, #3
 1427 0026 F6D9     		bls	.L128
 583:Drivers/STM32U5xx_HAL_Driver/Src/stm32u5xx_hal_flash_ex.c **** 
 1428              		.loc 1 583 1 view .LVU489
 1429 0028 5DF8044B 		ldr	r4, [sp], #4
 1430              	.LCFI9:
 1431              		.cfi_restore 4
 1432              		.cfi_def_cfa_offset 0
 1433 002c 7047     		bx	lr
 1434              	.LVL126:
 1435              	.L134:
 556:Drivers/STM32U5xx_HAL_Driver/Src/stm32u5xx_hal_flash_ex.c ****     {
 1436              		.loc 1 556 5 is_stmt 1 view .LVU490
 556:Drivers/STM32U5xx_HAL_Driver/Src/stm32u5xx_hal_flash_ex.c ****     {
 1437              		.loc 1 556 22 is_stmt 0 view .LVU491
 1438 002e 0368     		ldr	r3, [r0]
 556:Drivers/STM32U5xx_HAL_Driver/Src/stm32u5xx_hal_flash_ex.c ****     {
 1439              		.loc 1 556 8 view .LVU492
 1440 0030 012B     		cmp	r3, #1
 1441 0032 01D0     		beq	.L137
 562:Drivers/STM32U5xx_HAL_Driver/Src/stm32u5xx_hal_flash_ex.c ****     }
 1442              		.loc 1 562 11 view .LVU493
 1443 0034 044A     		ldr	r2, .L138+4
 1444 0036 EAE7     		b	.L126
 1445              	.L137:
 558:Drivers/STM32U5xx_HAL_Driver/Src/stm32u5xx_hal_flash_ex.c ****     }
 1446              		.loc 1 558 11 view .LVU494
 1447 0038 044A     		ldr	r2, .L138+8
 1448 003a E8E7     		b	.L126
 1449              	.L135:
 569:Drivers/STM32U5xx_HAL_Driver/Src/stm32u5xx_hal_flash_ex.c ****     }
ARM GAS  /tmp/ccudYRdF.s 			page 64


 1450              		.loc 1 569 11 view .LVU495
 1451 003c 044A     		ldr	r2, .L138+12
 1452 003e E6E7     		b	.L126
 1453              	.LVL127:
 1454              	.L136:
 569:Drivers/STM32U5xx_HAL_Driver/Src/stm32u5xx_hal_flash_ex.c ****     }
 1455              		.loc 1 569 11 view .LVU496
 1456 0040 7047     		bx	lr
 1457              	.L139:
 1458 0042 00BF     		.align	2
 1459              	.L138:
 1460 0044 F0200240 		.word	1073881328
 1461 0048 A0200240 		.word	1073881248
 1462 004c 80200240 		.word	1073881216
 1463 0050 D0200240 		.word	1073881296
 1464              		.cfi_endproc
 1465              	.LFE350:
 1467              		.section	.text.HAL_FLASHEx_ConfigPrivMode,"ax",%progbits
 1468              		.align	1
 1469              		.global	HAL_FLASHEx_ConfigPrivMode
 1470              		.syntax unified
 1471              		.thumb
 1472              		.thumb_func
 1474              	HAL_FLASHEx_ConfigPrivMode:
 1475              	.LVL128:
 1476              	.LFB351:
 639:Drivers/STM32U5xx_HAL_Driver/Src/stm32u5xx_hal_flash_ex.c ****   /* Check the parameters */
 1477              		.loc 1 639 1 is_stmt 1 view -0
 1478              		.cfi_startproc
 1479              		@ args = 0, pretend = 0, frame = 0
 1480              		@ frame_needed = 0, uses_anonymous_args = 0
 1481              		@ link register save eliminated.
 641:Drivers/STM32U5xx_HAL_Driver/Src/stm32u5xx_hal_flash_ex.c **** 
 1482              		.loc 1 641 3 view .LVU498
 643:Drivers/STM32U5xx_HAL_Driver/Src/stm32u5xx_hal_flash_ex.c **** }
 1483              		.loc 1 643 3 view .LVU499
 1484 0000 044A     		ldr	r2, .L141
 1485 0002 D2F8C430 		ldr	r3, [r2, #196]
 1486 0006 23F00303 		bic	r3, r3, #3
 1487 000a 0343     		orrs	r3, r3, r0
 1488 000c C2F8C430 		str	r3, [r2, #196]
 644:Drivers/STM32U5xx_HAL_Driver/Src/stm32u5xx_hal_flash_ex.c **** 
 1489              		.loc 1 644 1 is_stmt 0 view .LVU500
 1490 0010 7047     		bx	lr
 1491              	.L142:
 1492 0012 00BF     		.align	2
 1493              	.L141:
 1494 0014 00200240 		.word	1073881088
 1495              		.cfi_endproc
 1496              	.LFE351:
 1498              		.section	.text.HAL_FLASHEx_GetPrivMode,"ax",%progbits
 1499              		.align	1
 1500              		.global	HAL_FLASHEx_GetPrivMode
 1501              		.syntax unified
 1502              		.thumb
 1503              		.thumb_func
 1505              	HAL_FLASHEx_GetPrivMode:
ARM GAS  /tmp/ccudYRdF.s 			page 65


 1506              	.LFB352:
 661:Drivers/STM32U5xx_HAL_Driver/Src/stm32u5xx_hal_flash_ex.c ****   return (FLASH->PRIVCFGR & (FLASH_PRIVCFGR_SPRIV | FLASH_PRIVCFGR_NSPRIV));
 1507              		.loc 1 661 1 is_stmt 1 view -0
 1508              		.cfi_startproc
 1509              		@ args = 0, pretend = 0, frame = 0
 1510              		@ frame_needed = 0, uses_anonymous_args = 0
 1511              		@ link register save eliminated.
 662:Drivers/STM32U5xx_HAL_Driver/Src/stm32u5xx_hal_flash_ex.c **** }
 1512              		.loc 1 662 3 view .LVU502
 662:Drivers/STM32U5xx_HAL_Driver/Src/stm32u5xx_hal_flash_ex.c **** }
 1513              		.loc 1 662 16 is_stmt 0 view .LVU503
 1514 0000 024B     		ldr	r3, .L144
 1515 0002 D3F8C400 		ldr	r0, [r3, #196]
 663:Drivers/STM32U5xx_HAL_Driver/Src/stm32u5xx_hal_flash_ex.c **** 
 1516              		.loc 1 663 1 view .LVU504
 1517 0006 00F00300 		and	r0, r0, #3
 1518 000a 7047     		bx	lr
 1519              	.L145:
 1520              		.align	2
 1521              	.L144:
 1522 000c 00200240 		.word	1073881088
 1523              		.cfi_endproc
 1524              	.LFE352:
 1526              		.section	.text.HAL_FLASHEx_EnablePowerDown,"ax",%progbits
 1527              		.align	1
 1528              		.global	HAL_FLASHEx_EnablePowerDown
 1529              		.syntax unified
 1530              		.thumb
 1531              		.thumb_func
 1533              	HAL_FLASHEx_EnablePowerDown:
 1534              	.LVL129:
 1535              	.LFB353:
 724:Drivers/STM32U5xx_HAL_Driver/Src/stm32u5xx_hal_flash_ex.c ****   HAL_StatusTypeDef status = HAL_OK;
 1536              		.loc 1 724 1 is_stmt 1 view -0
 1537              		.cfi_startproc
 1538              		@ args = 0, pretend = 0, frame = 0
 1539              		@ frame_needed = 0, uses_anonymous_args = 0
 724:Drivers/STM32U5xx_HAL_Driver/Src/stm32u5xx_hal_flash_ex.c ****   HAL_StatusTypeDef status = HAL_OK;
 1540              		.loc 1 724 1 is_stmt 0 view .LVU506
 1541 0000 38B5     		push	{r3, r4, r5, lr}
 1542              	.LCFI10:
 1543              		.cfi_def_cfa_offset 16
 1544              		.cfi_offset 3, -16
 1545              		.cfi_offset 4, -12
 1546              		.cfi_offset 5, -8
 1547              		.cfi_offset 14, -4
 1548 0002 0446     		mov	r4, r0
 725:Drivers/STM32U5xx_HAL_Driver/Src/stm32u5xx_hal_flash_ex.c ****   uint32_t tickstart;
 1549              		.loc 1 725 3 is_stmt 1 view .LVU507
 1550              	.LVL130:
 726:Drivers/STM32U5xx_HAL_Driver/Src/stm32u5xx_hal_flash_ex.c **** 
 1551              		.loc 1 726 3 view .LVU508
 729:Drivers/STM32U5xx_HAL_Driver/Src/stm32u5xx_hal_flash_ex.c **** 
 1552              		.loc 1 729 3 view .LVU509
 732:Drivers/STM32U5xx_HAL_Driver/Src/stm32u5xx_hal_flash_ex.c ****   {
 1553              		.loc 1 732 3 view .LVU510
 732:Drivers/STM32U5xx_HAL_Driver/Src/stm32u5xx_hal_flash_ex.c ****   {
ARM GAS  /tmp/ccudYRdF.s 			page 66


 1554              		.loc 1 732 6 is_stmt 0 view .LVU511
 1555 0004 10F0010F 		tst	r0, #1
 1556 0008 26D0     		beq	.L153
 736:Drivers/STM32U5xx_HAL_Driver/Src/stm32u5xx_hal_flash_ex.c ****     {
 1557              		.loc 1 736 5 is_stmt 1 view .LVU512
 736:Drivers/STM32U5xx_HAL_Driver/Src/stm32u5xx_hal_flash_ex.c ****     {
 1558              		.loc 1 736 15 is_stmt 0 view .LVU513
 1559 000a 2A4B     		ldr	r3, .L164
 1560 000c 1B6A     		ldr	r3, [r3, #32]
 736:Drivers/STM32U5xx_HAL_Driver/Src/stm32u5xx_hal_flash_ex.c ****     {
 1561              		.loc 1 736 8 view .LVU514
 1562 000e 13F4801F 		tst	r3, #1048576
 1563 0012 31D1     		bne	.L154
 740:Drivers/STM32U5xx_HAL_Driver/Src/stm32u5xx_hal_flash_ex.c ****     {
 1564              		.loc 1 740 10 is_stmt 1 view .LVU515
 740:Drivers/STM32U5xx_HAL_Driver/Src/stm32u5xx_hal_flash_ex.c ****     {
 1565              		.loc 1 740 20 is_stmt 0 view .LVU516
 1566 0014 274B     		ldr	r3, .L164
 1567 0016 1B68     		ldr	r3, [r3]
 740:Drivers/STM32U5xx_HAL_Driver/Src/stm32u5xx_hal_flash_ex.c ****     {
 1568              		.loc 1 740 13 view .LVU517
 1569 0018 13F4805F 		tst	r3, #4096
 1570 001c 01D0     		beq	.L161
 742:Drivers/STM32U5xx_HAL_Driver/Src/stm32u5xx_hal_flash_ex.c ****     }
 1571              		.loc 1 742 14 view .LVU518
 1572 001e 0125     		movs	r5, #1
 1573 0020 1BE0     		b	.L147
 1574              	.L161:
 747:Drivers/STM32U5xx_HAL_Driver/Src/stm32u5xx_hal_flash_ex.c ****       WRITE_REG(FLASH->PDKEY1R, FLASH_PDKEY1_2);
 1575              		.loc 1 747 7 is_stmt 1 view .LVU519
 1576 0022 244B     		ldr	r3, .L164
 1577 0024 244A     		ldr	r2, .L164+4
 1578 0026 9A61     		str	r2, [r3, #24]
 748:Drivers/STM32U5xx_HAL_Driver/Src/stm32u5xx_hal_flash_ex.c **** 
 1579              		.loc 1 748 7 view .LVU520
 1580 0028 244A     		ldr	r2, .L164+8
 1581 002a 9A61     		str	r2, [r3, #24]
 751:Drivers/STM32U5xx_HAL_Driver/Src/stm32u5xx_hal_flash_ex.c **** 
 1582              		.loc 1 751 7 view .LVU521
 1583 002c 1A68     		ldr	r2, [r3]
 1584 002e 42F48052 		orr	r2, r2, #4096
 1585 0032 1A60     		str	r2, [r3]
 754:Drivers/STM32U5xx_HAL_Driver/Src/stm32u5xx_hal_flash_ex.c ****       while (((FLASH->NSSR & FLASH_NSSR_PD1) != FLASH_NSSR_PD1))
 1586              		.loc 1 754 7 view .LVU522
 754:Drivers/STM32U5xx_HAL_Driver/Src/stm32u5xx_hal_flash_ex.c ****       while (((FLASH->NSSR & FLASH_NSSR_PD1) != FLASH_NSSR_PD1))
 1587              		.loc 1 754 19 is_stmt 0 view .LVU523
 1588 0034 FFF7FEFF 		bl	HAL_GetTick
 1589              	.LVL131:
 754:Drivers/STM32U5xx_HAL_Driver/Src/stm32u5xx_hal_flash_ex.c ****       while (((FLASH->NSSR & FLASH_NSSR_PD1) != FLASH_NSSR_PD1))
 1590              		.loc 1 754 19 view .LVU524
 1591 0038 0546     		mov	r5, r0
 1592              	.LVL132:
 755:Drivers/STM32U5xx_HAL_Driver/Src/stm32u5xx_hal_flash_ex.c ****       {
 1593              		.loc 1 755 7 is_stmt 1 view .LVU525
 1594              	.L148:
 755:Drivers/STM32U5xx_HAL_Driver/Src/stm32u5xx_hal_flash_ex.c ****       {
 1595              		.loc 1 755 13 view .LVU526
ARM GAS  /tmp/ccudYRdF.s 			page 67


 755:Drivers/STM32U5xx_HAL_Driver/Src/stm32u5xx_hal_flash_ex.c ****       {
 1596              		.loc 1 755 21 is_stmt 0 view .LVU527
 1597 003a 1E4B     		ldr	r3, .L164
 1598 003c 1B6A     		ldr	r3, [r3, #32]
 755:Drivers/STM32U5xx_HAL_Driver/Src/stm32u5xx_hal_flash_ex.c ****       {
 1599              		.loc 1 755 13 view .LVU528
 1600 003e 13F4801F 		tst	r3, #1048576
 1601 0042 07D1     		bne	.L162
 757:Drivers/STM32U5xx_HAL_Driver/Src/stm32u5xx_hal_flash_ex.c ****         {
 1602              		.loc 1 757 9 is_stmt 1 view .LVU529
 757:Drivers/STM32U5xx_HAL_Driver/Src/stm32u5xx_hal_flash_ex.c ****         {
 1603              		.loc 1 757 14 is_stmt 0 view .LVU530
 1604 0044 FFF7FEFF 		bl	HAL_GetTick
 1605              	.LVL133:
 757:Drivers/STM32U5xx_HAL_Driver/Src/stm32u5xx_hal_flash_ex.c ****         {
 1606              		.loc 1 757 28 view .LVU531
 1607 0048 401B     		subs	r0, r0, r5
 757:Drivers/STM32U5xx_HAL_Driver/Src/stm32u5xx_hal_flash_ex.c ****         {
 1608              		.loc 1 757 12 view .LVU532
 1609 004a B0F57A7F 		cmp	r0, #1000
 1610 004e F4D9     		bls	.L148
 759:Drivers/STM32U5xx_HAL_Driver/Src/stm32u5xx_hal_flash_ex.c ****         }
 1611              		.loc 1 759 18 view .LVU533
 1612 0050 0325     		movs	r5, #3
 1613              	.LVL134:
 759:Drivers/STM32U5xx_HAL_Driver/Src/stm32u5xx_hal_flash_ex.c ****         }
 1614              		.loc 1 759 18 view .LVU534
 1615 0052 2DE0     		b	.L149
 1616              	.LVL135:
 1617              	.L162:
 725:Drivers/STM32U5xx_HAL_Driver/Src/stm32u5xx_hal_flash_ex.c ****   uint32_t tickstart;
 1618              		.loc 1 725 21 view .LVU535
 1619 0054 0025     		movs	r5, #0
 1620              	.LVL136:
 725:Drivers/STM32U5xx_HAL_Driver/Src/stm32u5xx_hal_flash_ex.c ****   uint32_t tickstart;
 1621              		.loc 1 725 21 view .LVU536
 1622 0056 00E0     		b	.L147
 1623              	.LVL137:
 1624              	.L153:
 725:Drivers/STM32U5xx_HAL_Driver/Src/stm32u5xx_hal_flash_ex.c ****   uint32_t tickstart;
 1625              		.loc 1 725 21 view .LVU537
 1626 0058 0025     		movs	r5, #0
 1627              	.LVL138:
 1628              	.L147:
 766:Drivers/STM32U5xx_HAL_Driver/Src/stm32u5xx_hal_flash_ex.c ****   {
 1629              		.loc 1 766 3 is_stmt 1 view .LVU538
 766:Drivers/STM32U5xx_HAL_Driver/Src/stm32u5xx_hal_flash_ex.c ****   {
 1630              		.loc 1 766 6 is_stmt 0 view .LVU539
 1631 005a 14F0020F 		tst	r4, #2
 1632 005e 27D0     		beq	.L149
 770:Drivers/STM32U5xx_HAL_Driver/Src/stm32u5xx_hal_flash_ex.c ****     {
 1633              		.loc 1 770 5 is_stmt 1 view .LVU540
 770:Drivers/STM32U5xx_HAL_Driver/Src/stm32u5xx_hal_flash_ex.c ****     {
 1634              		.loc 1 770 15 is_stmt 0 view .LVU541
 1635 0060 144B     		ldr	r3, .L164
 1636 0062 1B6A     		ldr	r3, [r3, #32]
 770:Drivers/STM32U5xx_HAL_Driver/Src/stm32u5xx_hal_flash_ex.c ****     {
ARM GAS  /tmp/ccudYRdF.s 			page 68


 1637              		.loc 1 770 8 view .LVU542
 1638 0064 13F4001F 		tst	r3, #2097152
 1639 0068 21D1     		bne	.L157
 774:Drivers/STM32U5xx_HAL_Driver/Src/stm32u5xx_hal_flash_ex.c ****     {
 1640              		.loc 1 774 10 is_stmt 1 view .LVU543
 774:Drivers/STM32U5xx_HAL_Driver/Src/stm32u5xx_hal_flash_ex.c ****     {
 1641              		.loc 1 774 20 is_stmt 0 view .LVU544
 1642 006a 124B     		ldr	r3, .L164
 1643 006c 1B68     		ldr	r3, [r3]
 774:Drivers/STM32U5xx_HAL_Driver/Src/stm32u5xx_hal_flash_ex.c ****     {
 1644              		.loc 1 774 13 view .LVU545
 1645 006e 13F4005F 		tst	r3, #8192
 1646 0072 03D0     		beq	.L163
 776:Drivers/STM32U5xx_HAL_Driver/Src/stm32u5xx_hal_flash_ex.c ****     }
 1647              		.loc 1 776 14 view .LVU546
 1648 0074 0125     		movs	r5, #1
 1649              	.LVL139:
 776:Drivers/STM32U5xx_HAL_Driver/Src/stm32u5xx_hal_flash_ex.c ****     }
 1650              		.loc 1 776 14 view .LVU547
 1651 0076 1BE0     		b	.L149
 1652              	.LVL140:
 1653              	.L154:
 738:Drivers/STM32U5xx_HAL_Driver/Src/stm32u5xx_hal_flash_ex.c ****     }
 1654              		.loc 1 738 14 view .LVU548
 1655 0078 0125     		movs	r5, #1
 1656 007a EEE7     		b	.L147
 1657              	.LVL141:
 1658              	.L163:
 781:Drivers/STM32U5xx_HAL_Driver/Src/stm32u5xx_hal_flash_ex.c ****       WRITE_REG(FLASH->PDKEY2R, FLASH_PDKEY2_2);
 1659              		.loc 1 781 7 is_stmt 1 view .LVU549
 1660 007c 0D4B     		ldr	r3, .L164
 1661 007e 104A     		ldr	r2, .L164+12
 1662 0080 DA61     		str	r2, [r3, #28]
 782:Drivers/STM32U5xx_HAL_Driver/Src/stm32u5xx_hal_flash_ex.c **** 
 1663              		.loc 1 782 7 view .LVU550
 1664 0082 104A     		ldr	r2, .L164+16
 1665 0084 DA61     		str	r2, [r3, #28]
 785:Drivers/STM32U5xx_HAL_Driver/Src/stm32u5xx_hal_flash_ex.c **** 
 1666              		.loc 1 785 7 view .LVU551
 1667 0086 1A68     		ldr	r2, [r3]
 1668 0088 42F40052 		orr	r2, r2, #8192
 1669 008c 1A60     		str	r2, [r3]
 788:Drivers/STM32U5xx_HAL_Driver/Src/stm32u5xx_hal_flash_ex.c ****       while (((FLASH->NSSR & FLASH_NSSR_PD2) != FLASH_NSSR_PD2))
 1670              		.loc 1 788 7 view .LVU552
 788:Drivers/STM32U5xx_HAL_Driver/Src/stm32u5xx_hal_flash_ex.c ****       while (((FLASH->NSSR & FLASH_NSSR_PD2) != FLASH_NSSR_PD2))
 1671              		.loc 1 788 19 is_stmt 0 view .LVU553
 1672 008e FFF7FEFF 		bl	HAL_GetTick
 1673              	.LVL142:
 1674 0092 0446     		mov	r4, r0
 1675              	.LVL143:
 789:Drivers/STM32U5xx_HAL_Driver/Src/stm32u5xx_hal_flash_ex.c ****       {
 1676              		.loc 1 789 7 is_stmt 1 view .LVU554
 1677              	.L151:
 789:Drivers/STM32U5xx_HAL_Driver/Src/stm32u5xx_hal_flash_ex.c ****       {
 1678              		.loc 1 789 13 view .LVU555
 789:Drivers/STM32U5xx_HAL_Driver/Src/stm32u5xx_hal_flash_ex.c ****       {
 1679              		.loc 1 789 21 is_stmt 0 view .LVU556
ARM GAS  /tmp/ccudYRdF.s 			page 69


 1680 0094 074B     		ldr	r3, .L164
 1681 0096 1B6A     		ldr	r3, [r3, #32]
 789:Drivers/STM32U5xx_HAL_Driver/Src/stm32u5xx_hal_flash_ex.c ****       {
 1682              		.loc 1 789 13 view .LVU557
 1683 0098 13F4001F 		tst	r3, #2097152
 1684 009c 08D1     		bne	.L149
 791:Drivers/STM32U5xx_HAL_Driver/Src/stm32u5xx_hal_flash_ex.c ****         {
 1685              		.loc 1 791 9 is_stmt 1 view .LVU558
 791:Drivers/STM32U5xx_HAL_Driver/Src/stm32u5xx_hal_flash_ex.c ****         {
 1686              		.loc 1 791 14 is_stmt 0 view .LVU559
 1687 009e FFF7FEFF 		bl	HAL_GetTick
 1688              	.LVL144:
 791:Drivers/STM32U5xx_HAL_Driver/Src/stm32u5xx_hal_flash_ex.c ****         {
 1689              		.loc 1 791 28 view .LVU560
 1690 00a2 001B     		subs	r0, r0, r4
 791:Drivers/STM32U5xx_HAL_Driver/Src/stm32u5xx_hal_flash_ex.c ****         {
 1691              		.loc 1 791 12 view .LVU561
 1692 00a4 B0F57A7F 		cmp	r0, #1000
 1693 00a8 F4D9     		bls	.L151
 793:Drivers/STM32U5xx_HAL_Driver/Src/stm32u5xx_hal_flash_ex.c ****         }
 1694              		.loc 1 793 18 view .LVU562
 1695 00aa 0325     		movs	r5, #3
 1696              	.LVL145:
 793:Drivers/STM32U5xx_HAL_Driver/Src/stm32u5xx_hal_flash_ex.c ****         }
 1697              		.loc 1 793 18 view .LVU563
 1698 00ac 00E0     		b	.L149
 1699              	.LVL146:
 1700              	.L157:
 772:Drivers/STM32U5xx_HAL_Driver/Src/stm32u5xx_hal_flash_ex.c ****     }
 1701              		.loc 1 772 14 view .LVU564
 1702 00ae 0125     		movs	r5, #1
 1703              	.LVL147:
 1704              	.L149:
 800:Drivers/STM32U5xx_HAL_Driver/Src/stm32u5xx_hal_flash_ex.c **** 
 1705              		.loc 1 800 1 view .LVU565
 1706 00b0 2846     		mov	r0, r5
 1707 00b2 38BD     		pop	{r3, r4, r5, pc}
 1708              	.L165:
 1709              		.align	2
 1710              	.L164:
 1711 00b4 00200240 		.word	1073881088
 1712 00b8 37261504 		.word	68494903
 1713 00bc FDFCFBFA 		.word	-84148995
 1714 00c0 73625140 		.word	1079075443
 1715 00c4 DFCFBFAF 		.word	-1346383905
 1716              		.cfi_endproc
 1717              	.LFE353:
 1719              		.section	.text.HAL_FLASHEx_ConfigLowPowerRead,"ax",%progbits
 1720              		.align	1
 1721              		.global	HAL_FLASHEx_ConfigLowPowerRead
 1722              		.syntax unified
 1723              		.thumb
 1724              		.thumb_func
 1726              	HAL_FLASHEx_ConfigLowPowerRead:
 1727              	.LVL148:
 1728              	.LFB354:
 813:Drivers/STM32U5xx_HAL_Driver/Src/stm32u5xx_hal_flash_ex.c ****   HAL_StatusTypeDef status = HAL_OK;
ARM GAS  /tmp/ccudYRdF.s 			page 70


 1729              		.loc 1 813 1 is_stmt 1 view -0
 1730              		.cfi_startproc
 1731              		@ args = 0, pretend = 0, frame = 0
 1732              		@ frame_needed = 0, uses_anonymous_args = 0
 1733              		@ link register save eliminated.
 814:Drivers/STM32U5xx_HAL_Driver/Src/stm32u5xx_hal_flash_ex.c **** 
 1734              		.loc 1 814 3 view .LVU567
 817:Drivers/STM32U5xx_HAL_Driver/Src/stm32u5xx_hal_flash_ex.c **** 
 1735              		.loc 1 817 3 view .LVU568
 820:Drivers/STM32U5xx_HAL_Driver/Src/stm32u5xx_hal_flash_ex.c **** 
 1736              		.loc 1 820 3 view .LVU569
 1737 0000 074A     		ldr	r2, .L170
 1738 0002 1368     		ldr	r3, [r2]
 1739 0004 23F40063 		bic	r3, r3, #2048
 1740 0008 0343     		orrs	r3, r3, r0
 1741 000a 1360     		str	r3, [r2]
 823:Drivers/STM32U5xx_HAL_Driver/Src/stm32u5xx_hal_flash_ex.c ****   {
 1742              		.loc 1 823 3 view .LVU570
 823:Drivers/STM32U5xx_HAL_Driver/Src/stm32u5xx_hal_flash_ex.c ****   {
 1743              		.loc 1 823 7 is_stmt 0 view .LVU571
 1744 000c 1368     		ldr	r3, [r2]
 1745 000e 03F40063 		and	r3, r3, #2048
 823:Drivers/STM32U5xx_HAL_Driver/Src/stm32u5xx_hal_flash_ex.c ****   {
 1746              		.loc 1 823 6 view .LVU572
 1747 0012 8342     		cmp	r3, r0
 1748 0014 01D0     		beq	.L169
 825:Drivers/STM32U5xx_HAL_Driver/Src/stm32u5xx_hal_flash_ex.c ****   }
 1749              		.loc 1 825 12 view .LVU573
 1750 0016 0120     		movs	r0, #1
 1751              	.LVL149:
 828:Drivers/STM32U5xx_HAL_Driver/Src/stm32u5xx_hal_flash_ex.c **** }
 1752              		.loc 1 828 3 is_stmt 1 view .LVU574
 829:Drivers/STM32U5xx_HAL_Driver/Src/stm32u5xx_hal_flash_ex.c **** 
 1753              		.loc 1 829 1 is_stmt 0 view .LVU575
 1754 0018 7047     		bx	lr
 1755              	.LVL150:
 1756              	.L169:
 814:Drivers/STM32U5xx_HAL_Driver/Src/stm32u5xx_hal_flash_ex.c **** 
 1757              		.loc 1 814 21 view .LVU576
 1758 001a 0020     		movs	r0, #0
 1759              	.LVL151:
 814:Drivers/STM32U5xx_HAL_Driver/Src/stm32u5xx_hal_flash_ex.c **** 
 1760              		.loc 1 814 21 view .LVU577
 1761 001c 7047     		bx	lr
 1762              	.L171:
 1763 001e 00BF     		.align	2
 1764              	.L170:
 1765 0020 00200240 		.word	1073881088
 1766              		.cfi_endproc
 1767              	.LFE354:
 1769              		.section	.text.HAL_FLASHEx_GetLowPowerRead,"ax",%progbits
 1770              		.align	1
 1771              		.global	HAL_FLASHEx_GetLowPowerRead
 1772              		.syntax unified
 1773              		.thumb
 1774              		.thumb_func
 1776              	HAL_FLASHEx_GetLowPowerRead:
ARM GAS  /tmp/ccudYRdF.s 			page 71


 1777              	.LFB355:
 840:Drivers/STM32U5xx_HAL_Driver/Src/stm32u5xx_hal_flash_ex.c ****   return (FLASH->ACR & FLASH_ACR_LPM);
 1778              		.loc 1 840 1 is_stmt 1 view -0
 1779              		.cfi_startproc
 1780              		@ args = 0, pretend = 0, frame = 0
 1781              		@ frame_needed = 0, uses_anonymous_args = 0
 1782              		@ link register save eliminated.
 841:Drivers/STM32U5xx_HAL_Driver/Src/stm32u5xx_hal_flash_ex.c **** }
 1783              		.loc 1 841 3 view .LVU579
 841:Drivers/STM32U5xx_HAL_Driver/Src/stm32u5xx_hal_flash_ex.c **** }
 1784              		.loc 1 841 16 is_stmt 0 view .LVU580
 1785 0000 024B     		ldr	r3, .L173
 1786 0002 1868     		ldr	r0, [r3]
 842:Drivers/STM32U5xx_HAL_Driver/Src/stm32u5xx_hal_flash_ex.c **** 
 1787              		.loc 1 842 1 view .LVU581
 1788 0004 00F40060 		and	r0, r0, #2048
 1789 0008 7047     		bx	lr
 1790              	.L174:
 1791 000a 00BF     		.align	2
 1792              	.L173:
 1793 000c 00200240 		.word	1073881088
 1794              		.cfi_endproc
 1795              	.LFE355:
 1797              		.section	.text.HAL_FLASHEx_GetOperation,"ax",%progbits
 1798              		.align	1
 1799              		.global	HAL_FLASHEx_GetOperation
 1800              		.syntax unified
 1801              		.thumb
 1802              		.thumb_func
 1804              	HAL_FLASHEx_GetOperation:
 1805              	.LVL152:
 1806              	.LFB356:
 853:Drivers/STM32U5xx_HAL_Driver/Src/stm32u5xx_hal_flash_ex.c ****   uint32_t opsr_reg = FLASH->OPSR;
 1807              		.loc 1 853 1 is_stmt 1 view -0
 1808              		.cfi_startproc
 1809              		@ args = 0, pretend = 0, frame = 0
 1810              		@ frame_needed = 0, uses_anonymous_args = 0
 1811              		@ link register save eliminated.
 854:Drivers/STM32U5xx_HAL_Driver/Src/stm32u5xx_hal_flash_ex.c **** 
 1812              		.loc 1 854 3 view .LVU583
 854:Drivers/STM32U5xx_HAL_Driver/Src/stm32u5xx_hal_flash_ex.c **** 
 1813              		.loc 1 854 12 is_stmt 0 view .LVU584
 1814 0000 054B     		ldr	r3, .L176
 1815 0002 5B6B     		ldr	r3, [r3, #52]
 1816              	.LVL153:
 857:Drivers/STM32U5xx_HAL_Driver/Src/stm32u5xx_hal_flash_ex.c **** 
 1817              		.loc 1 857 3 is_stmt 1 view .LVU585
 857:Drivers/STM32U5xx_HAL_Driver/Src/stm32u5xx_hal_flash_ex.c **** 
 1818              		.loc 1 857 45 is_stmt 0 view .LVU586
 1819 0004 03F06042 		and	r2, r3, #-536870912
 857:Drivers/STM32U5xx_HAL_Driver/Src/stm32u5xx_hal_flash_ex.c **** 
 1820              		.loc 1 857 34 view .LVU587
 1821 0008 0260     		str	r2, [r0]
 860:Drivers/STM32U5xx_HAL_Driver/Src/stm32u5xx_hal_flash_ex.c **** 
 1822              		.loc 1 860 3 is_stmt 1 view .LVU588
 860:Drivers/STM32U5xx_HAL_Driver/Src/stm32u5xx_hal_flash_ex.c **** 
 1823              		.loc 1 860 41 is_stmt 0 view .LVU589
ARM GAS  /tmp/ccudYRdF.s 			page 72


 1824 000a 03F4C002 		and	r2, r3, #6291456
 860:Drivers/STM32U5xx_HAL_Driver/Src/stm32u5xx_hal_flash_ex.c **** 
 1825              		.loc 1 860 30 view .LVU590
 1826 000e 4260     		str	r2, [r0, #4]
 863:Drivers/STM32U5xx_HAL_Driver/Src/stm32u5xx_hal_flash_ex.c **** }
 1827              		.loc 1 863 3 is_stmt 1 view .LVU591
 863:Drivers/STM32U5xx_HAL_Driver/Src/stm32u5xx_hal_flash_ex.c **** }
 1828              		.loc 1 863 39 is_stmt 0 view .LVU592
 1829 0010 C3F31303 		ubfx	r3, r3, #0, #20
 1830              	.LVL154:
 863:Drivers/STM32U5xx_HAL_Driver/Src/stm32u5xx_hal_flash_ex.c **** }
 1831              		.loc 1 863 28 view .LVU593
 1832 0014 8360     		str	r3, [r0, #8]
 864:Drivers/STM32U5xx_HAL_Driver/Src/stm32u5xx_hal_flash_ex.c **** 
 1833              		.loc 1 864 1 view .LVU594
 1834 0016 7047     		bx	lr
 1835              	.L177:
 1836              		.align	2
 1837              	.L176:
 1838 0018 00200240 		.word	1073881088
 1839              		.cfi_endproc
 1840              	.LFE356:
 1842              		.section	.text.FLASH_PageErase,"ax",%progbits
 1843              		.align	1
 1844              		.global	FLASH_PageErase
 1845              		.syntax unified
 1846              		.thumb
 1847              		.thumb_func
 1849              	FLASH_PageErase:
 1850              	.LVL155:
 1851              	.LFB358:
 922:Drivers/STM32U5xx_HAL_Driver/Src/stm32u5xx_hal_flash_ex.c ****   __IO uint32_t *reg_cr;
 1852              		.loc 1 922 1 is_stmt 1 view -0
 1853              		.cfi_startproc
 1854              		@ args = 0, pretend = 0, frame = 0
 1855              		@ frame_needed = 0, uses_anonymous_args = 0
 1856              		@ link register save eliminated.
 923:Drivers/STM32U5xx_HAL_Driver/Src/stm32u5xx_hal_flash_ex.c **** 
 1857              		.loc 1 923 3 view .LVU596
 926:Drivers/STM32U5xx_HAL_Driver/Src/stm32u5xx_hal_flash_ex.c ****   assert_param(IS_FLASH_BANK_EXCLUSIVE(Banks));
 1858              		.loc 1 926 3 view .LVU597
 927:Drivers/STM32U5xx_HAL_Driver/Src/stm32u5xx_hal_flash_ex.c **** 
 1859              		.loc 1 927 3 view .LVU598
 930:Drivers/STM32U5xx_HAL_Driver/Src/stm32u5xx_hal_flash_ex.c **** 
 1860              		.loc 1 930 3 view .LVU599
 932:Drivers/STM32U5xx_HAL_Driver/Src/stm32u5xx_hal_flash_ex.c ****   {
 1861              		.loc 1 932 3 view .LVU600
 932:Drivers/STM32U5xx_HAL_Driver/Src/stm32u5xx_hal_flash_ex.c ****   {
 1862              		.loc 1 932 6 is_stmt 0 view .LVU601
 1863 0000 11F0010F 		tst	r1, #1
 1864 0004 12D0     		beq	.L179
 934:Drivers/STM32U5xx_HAL_Driver/Src/stm32u5xx_hal_flash_ex.c ****   }
 1865              		.loc 1 934 5 is_stmt 1 view .LVU602
 1866 0006 0C4A     		ldr	r2, .L181
 1867 0008 936A     		ldr	r3, [r2, #40]
 1868 000a 23F40063 		bic	r3, r3, #2048
 1869 000e 9362     		str	r3, [r2, #40]
ARM GAS  /tmp/ccudYRdF.s 			page 73


 1870              	.L180:
 942:Drivers/STM32U5xx_HAL_Driver/Src/stm32u5xx_hal_flash_ex.c ****              ((Page << FLASH_NSCR_PNB_Pos) | FLASH_NSCR_PER | FLASH_NSCR_STRT));
 1871              		.loc 1 942 3 view .LVU603
 1872 0010 094A     		ldr	r2, .L181
 1873 0012 936A     		ldr	r3, [r2, #40]
 1874 0014 23F48133 		bic	r3, r3, #66048
 1875 0018 23F4FD73 		bic	r3, r3, #506
 1876 001c 43EAC000 		orr	r0, r3, r0, lsl #3
 1877              	.LVL156:
 942:Drivers/STM32U5xx_HAL_Driver/Src/stm32u5xx_hal_flash_ex.c ****              ((Page << FLASH_NSCR_PNB_Pos) | FLASH_NSCR_PER | FLASH_NSCR_STRT));
 1878              		.loc 1 942 3 is_stmt 0 view .LVU604
 1879 0020 40F48030 		orr	r0, r0, #65536
 1880 0024 40F00200 		orr	r0, r0, #2
 1881 0028 9062     		str	r0, [r2, #40]
 944:Drivers/STM32U5xx_HAL_Driver/Src/stm32u5xx_hal_flash_ex.c **** 
 1882              		.loc 1 944 1 view .LVU605
 1883 002a 7047     		bx	lr
 1884              	.LVL157:
 1885              	.L179:
 938:Drivers/STM32U5xx_HAL_Driver/Src/stm32u5xx_hal_flash_ex.c ****   }
 1886              		.loc 1 938 5 is_stmt 1 view .LVU606
 1887 002c 024A     		ldr	r2, .L181
 1888 002e 936A     		ldr	r3, [r2, #40]
 1889 0030 43F40063 		orr	r3, r3, #2048
 1890 0034 9362     		str	r3, [r2, #40]
 1891 0036 EBE7     		b	.L180
 1892              	.L182:
 1893              		.align	2
 1894              	.L181:
 1895 0038 00200240 		.word	1073881088
 1896              		.cfi_endproc
 1897              	.LFE358:
 1899              		.section	.text.HAL_FLASHEx_Erase,"ax",%progbits
 1900              		.align	1
 1901              		.global	HAL_FLASHEx_Erase
 1902              		.syntax unified
 1903              		.thumb
 1904              		.thumb_func
 1906              	HAL_FLASHEx_Erase:
 1907              	.LVL158:
 1908              	.LFB345:
 181:Drivers/STM32U5xx_HAL_Driver/Src/stm32u5xx_hal_flash_ex.c ****   HAL_StatusTypeDef status;
 1909              		.loc 1 181 1 view -0
 1910              		.cfi_startproc
 1911              		@ args = 0, pretend = 0, frame = 0
 1912              		@ frame_needed = 0, uses_anonymous_args = 0
 182:Drivers/STM32U5xx_HAL_Driver/Src/stm32u5xx_hal_flash_ex.c ****   uint32_t page_index;
 1913              		.loc 1 182 3 view .LVU608
 183:Drivers/STM32U5xx_HAL_Driver/Src/stm32u5xx_hal_flash_ex.c ****   __IO uint32_t *reg_cr;
 1914              		.loc 1 183 3 view .LVU609
 184:Drivers/STM32U5xx_HAL_Driver/Src/stm32u5xx_hal_flash_ex.c **** 
 1915              		.loc 1 184 3 view .LVU610
 187:Drivers/STM32U5xx_HAL_Driver/Src/stm32u5xx_hal_flash_ex.c **** 
 1916              		.loc 1 187 3 view .LVU611
 190:Drivers/STM32U5xx_HAL_Driver/Src/stm32u5xx_hal_flash_ex.c **** 
 1917              		.loc 1 190 3 view .LVU612
 190:Drivers/STM32U5xx_HAL_Driver/Src/stm32u5xx_hal_flash_ex.c **** 
ARM GAS  /tmp/ccudYRdF.s 			page 74


 1918              		.loc 1 190 3 view .LVU613
 1919 0000 254B     		ldr	r3, .L198
 1920 0002 1B78     		ldrb	r3, [r3]	@ zero_extendqisi2
 1921 0004 012B     		cmp	r3, #1
 1922 0006 42D0     		beq	.L191
 181:Drivers/STM32U5xx_HAL_Driver/Src/stm32u5xx_hal_flash_ex.c ****   HAL_StatusTypeDef status;
 1923              		.loc 1 181 1 is_stmt 0 discriminator 2 view .LVU614
 1924 0008 70B5     		push	{r4, r5, r6, lr}
 1925              	.LCFI11:
 1926              		.cfi_def_cfa_offset 16
 1927              		.cfi_offset 4, -16
 1928              		.cfi_offset 5, -12
 1929              		.cfi_offset 6, -8
 1930              		.cfi_offset 14, -4
 1931 000a 0446     		mov	r4, r0
 1932 000c 0E46     		mov	r6, r1
 190:Drivers/STM32U5xx_HAL_Driver/Src/stm32u5xx_hal_flash_ex.c **** 
 1933              		.loc 1 190 3 is_stmt 1 discriminator 2 view .LVU615
 1934 000e 224B     		ldr	r3, .L198
 1935 0010 0122     		movs	r2, #1
 1936 0012 1A70     		strb	r2, [r3]
 190:Drivers/STM32U5xx_HAL_Driver/Src/stm32u5xx_hal_flash_ex.c **** 
 1937              		.loc 1 190 3 discriminator 2 view .LVU616
 193:Drivers/STM32U5xx_HAL_Driver/Src/stm32u5xx_hal_flash_ex.c **** 
 1938              		.loc 1 193 3 discriminator 2 view .LVU617
 193:Drivers/STM32U5xx_HAL_Driver/Src/stm32u5xx_hal_flash_ex.c **** 
 1939              		.loc 1 193 20 is_stmt 0 discriminator 2 view .LVU618
 1940 0014 0022     		movs	r2, #0
 1941 0016 5A60     		str	r2, [r3, #4]
 196:Drivers/STM32U5xx_HAL_Driver/Src/stm32u5xx_hal_flash_ex.c **** 
 1942              		.loc 1 196 3 is_stmt 1 discriminator 2 view .LVU619
 196:Drivers/STM32U5xx_HAL_Driver/Src/stm32u5xx_hal_flash_ex.c **** 
 1943              		.loc 1 196 12 is_stmt 0 discriminator 2 view .LVU620
 1944 0018 4FF47A70 		mov	r0, #1000
 1945              	.LVL159:
 196:Drivers/STM32U5xx_HAL_Driver/Src/stm32u5xx_hal_flash_ex.c **** 
 1946              		.loc 1 196 12 discriminator 2 view .LVU621
 1947 001c FFF7FEFF 		bl	FLASH_WaitForLastOperation
 1948              	.LVL160:
 198:Drivers/STM32U5xx_HAL_Driver/Src/stm32u5xx_hal_flash_ex.c ****   {
 1949              		.loc 1 198 3 is_stmt 1 discriminator 2 view .LVU622
 198:Drivers/STM32U5xx_HAL_Driver/Src/stm32u5xx_hal_flash_ex.c ****   {
 1950              		.loc 1 198 6 is_stmt 0 discriminator 2 view .LVU623
 1951 0020 8446     		mov	ip, r0
 1952 0022 78BB     		cbnz	r0, .L185
 201:Drivers/STM32U5xx_HAL_Driver/Src/stm32u5xx_hal_flash_ex.c **** 
 1953              		.loc 1 201 5 is_stmt 1 view .LVU624
 201:Drivers/STM32U5xx_HAL_Driver/Src/stm32u5xx_hal_flash_ex.c **** 
 1954              		.loc 1 201 41 is_stmt 0 view .LVU625
 1955 0024 2368     		ldr	r3, [r4]
 201:Drivers/STM32U5xx_HAL_Driver/Src/stm32u5xx_hal_flash_ex.c **** 
 1956              		.loc 1 201 29 view .LVU626
 1957 0026 1C4A     		ldr	r2, .L198
 1958 0028 9360     		str	r3, [r2, #8]
 204:Drivers/STM32U5xx_HAL_Driver/Src/stm32u5xx_hal_flash_ex.c **** 
 1959              		.loc 1 204 5 is_stmt 1 view .LVU627
 1960              	.LVL161:
ARM GAS  /tmp/ccudYRdF.s 			page 75


 206:Drivers/STM32U5xx_HAL_Driver/Src/stm32u5xx_hal_flash_ex.c ****     {
 1961              		.loc 1 206 5 view .LVU628
 206:Drivers/STM32U5xx_HAL_Driver/Src/stm32u5xx_hal_flash_ex.c ****     {
 1962              		.loc 1 206 32 is_stmt 0 view .LVU629
 1963 002a 23F00043 		bic	r3, r3, #-2147483648
 206:Drivers/STM32U5xx_HAL_Driver/Src/stm32u5xx_hal_flash_ex.c ****     {
 1964              		.loc 1 206 8 view .LVU630
 1965 002e 48F20402 		movw	r2, #32772
 1966 0032 9342     		cmp	r3, r2
 1967 0034 14D0     		beq	.L196
 217:Drivers/STM32U5xx_HAL_Driver/Src/stm32u5xx_hal_flash_ex.c **** 
 1968              		.loc 1 217 7 is_stmt 1 view .LVU631
 217:Drivers/STM32U5xx_HAL_Driver/Src/stm32u5xx_hal_flash_ex.c **** 
 1969              		.loc 1 217 18 is_stmt 0 view .LVU632
 1970 0036 4FF0FF33 		mov	r3, #-1
 1971 003a 3360     		str	r3, [r6]
 219:Drivers/STM32U5xx_HAL_Driver/Src/stm32u5xx_hal_flash_ex.c ****       {
 1972              		.loc 1 219 7 is_stmt 1 view .LVU633
 219:Drivers/STM32U5xx_HAL_Driver/Src/stm32u5xx_hal_flash_ex.c ****       {
 1973              		.loc 1 219 23 is_stmt 0 view .LVU634
 1974 003c A568     		ldr	r5, [r4, #8]
 1975              	.LVL162:
 1976              	.L188:
 219:Drivers/STM32U5xx_HAL_Driver/Src/stm32u5xx_hal_flash_ex.c ****       {
 1977              		.loc 1 219 43 is_stmt 1 discriminator 1 view .LVU635
 219:Drivers/STM32U5xx_HAL_Driver/Src/stm32u5xx_hal_flash_ex.c ****       {
 1978              		.loc 1 219 67 is_stmt 0 discriminator 1 view .LVU636
 1979 003e A368     		ldr	r3, [r4, #8]
 219:Drivers/STM32U5xx_HAL_Driver/Src/stm32u5xx_hal_flash_ex.c ****       {
 1980              		.loc 1 219 86 discriminator 1 view .LVU637
 1981 0040 E268     		ldr	r2, [r4, #12]
 219:Drivers/STM32U5xx_HAL_Driver/Src/stm32u5xx_hal_flash_ex.c ****       {
 1982              		.loc 1 219 74 discriminator 1 view .LVU638
 1983 0042 1344     		add	r3, r3, r2
 219:Drivers/STM32U5xx_HAL_Driver/Src/stm32u5xx_hal_flash_ex.c ****       {
 1984              		.loc 1 219 7 discriminator 1 view .LVU639
 1985 0044 AB42     		cmp	r3, r5
 1986 0046 15D9     		bls	.L187
 221:Drivers/STM32U5xx_HAL_Driver/Src/stm32u5xx_hal_flash_ex.c **** 
 1987              		.loc 1 221 9 is_stmt 1 view .LVU640
 1988 0048 6168     		ldr	r1, [r4, #4]
 1989 004a 2846     		mov	r0, r5
 1990 004c FFF7FEFF 		bl	FLASH_PageErase
 1991              	.LVL163:
 224:Drivers/STM32U5xx_HAL_Driver/Src/stm32u5xx_hal_flash_ex.c **** 
 1992              		.loc 1 224 9 view .LVU641
 224:Drivers/STM32U5xx_HAL_Driver/Src/stm32u5xx_hal_flash_ex.c **** 
 1993              		.loc 1 224 18 is_stmt 0 view .LVU642
 1994 0050 4FF47A70 		mov	r0, #1000
 1995 0054 FFF7FEFF 		bl	FLASH_WaitForLastOperation
 1996              	.LVL164:
 226:Drivers/STM32U5xx_HAL_Driver/Src/stm32u5xx_hal_flash_ex.c ****         {
 1997              		.loc 1 226 9 is_stmt 1 view .LVU643
 226:Drivers/STM32U5xx_HAL_Driver/Src/stm32u5xx_hal_flash_ex.c ****         {
 1998              		.loc 1 226 12 is_stmt 0 view .LVU644
 1999 0058 8446     		mov	ip, r0
 2000 005a 50B9     		cbnz	r0, .L197
ARM GAS  /tmp/ccudYRdF.s 			page 76


 219:Drivers/STM32U5xx_HAL_Driver/Src/stm32u5xx_hal_flash_ex.c ****       {
 2001              		.loc 1 219 98 is_stmt 1 discriminator 2 view .LVU645
 219:Drivers/STM32U5xx_HAL_Driver/Src/stm32u5xx_hal_flash_ex.c ****       {
 2002              		.loc 1 219 108 is_stmt 0 discriminator 2 view .LVU646
 2003 005c 0135     		adds	r5, r5, #1
 2004              	.LVL165:
 219:Drivers/STM32U5xx_HAL_Driver/Src/stm32u5xx_hal_flash_ex.c ****       {
 2005              		.loc 1 219 108 discriminator 2 view .LVU647
 2006 005e EEE7     		b	.L188
 2007              	.LVL166:
 2008              	.L196:
 209:Drivers/STM32U5xx_HAL_Driver/Src/stm32u5xx_hal_flash_ex.c **** 
 2009              		.loc 1 209 7 is_stmt 1 view .LVU648
 2010 0060 6068     		ldr	r0, [r4, #4]
 2011              	.LVL167:
 209:Drivers/STM32U5xx_HAL_Driver/Src/stm32u5xx_hal_flash_ex.c **** 
 2012              		.loc 1 209 7 is_stmt 0 view .LVU649
 2013 0062 FFF7FEFF 		bl	FLASH_MassErase
 2014              	.LVL168:
 212:Drivers/STM32U5xx_HAL_Driver/Src/stm32u5xx_hal_flash_ex.c ****     }
 2015              		.loc 1 212 7 is_stmt 1 view .LVU650
 212:Drivers/STM32U5xx_HAL_Driver/Src/stm32u5xx_hal_flash_ex.c ****     }
 2016              		.loc 1 212 16 is_stmt 0 view .LVU651
 2017 0066 4FF47A70 		mov	r0, #1000
 2018 006a FFF7FEFF 		bl	FLASH_WaitForLastOperation
 2019              	.LVL169:
 2020 006e 8446     		mov	ip, r0
 2021              	.LVL170:
 212:Drivers/STM32U5xx_HAL_Driver/Src/stm32u5xx_hal_flash_ex.c ****     }
 2022              		.loc 1 212 16 view .LVU652
 2023 0070 00E0     		b	.L187
 2024              	.LVL171:
 2025              	.L197:
 229:Drivers/STM32U5xx_HAL_Driver/Src/stm32u5xx_hal_flash_ex.c ****           break;
 2026              		.loc 1 229 11 is_stmt 1 view .LVU653
 229:Drivers/STM32U5xx_HAL_Driver/Src/stm32u5xx_hal_flash_ex.c ****           break;
 2027              		.loc 1 229 22 is_stmt 0 view .LVU654
 2028 0072 3560     		str	r5, [r6]
 230:Drivers/STM32U5xx_HAL_Driver/Src/stm32u5xx_hal_flash_ex.c ****         }
 2029              		.loc 1 230 11 is_stmt 1 view .LVU655
 2030              	.LVL172:
 2031              	.L187:
 236:Drivers/STM32U5xx_HAL_Driver/Src/stm32u5xx_hal_flash_ex.c ****   }
 2032              		.loc 1 236 5 view .LVU656
 2033 0074 0949     		ldr	r1, .L198+4
 2034 0076 8B6A     		ldr	r3, [r1, #40]
 2035 0078 2268     		ldr	r2, [r4]
 2036 007a 22F00042 		bic	r2, r2, #-2147483648
 2037 007e 23EA0203 		bic	r3, r3, r2
 2038 0082 8B62     		str	r3, [r1, #40]
 2039              	.LVL173:
 2040              	.L185:
 240:Drivers/STM32U5xx_HAL_Driver/Src/stm32u5xx_hal_flash_ex.c **** 
 2041              		.loc 1 240 3 view .LVU657
 240:Drivers/STM32U5xx_HAL_Driver/Src/stm32u5xx_hal_flash_ex.c **** 
 2042              		.loc 1 240 3 view .LVU658
 2043 0084 044B     		ldr	r3, .L198
ARM GAS  /tmp/ccudYRdF.s 			page 77


 2044 0086 0022     		movs	r2, #0
 2045 0088 1A70     		strb	r2, [r3]
 240:Drivers/STM32U5xx_HAL_Driver/Src/stm32u5xx_hal_flash_ex.c **** 
 2046              		.loc 1 240 3 view .LVU659
 242:Drivers/STM32U5xx_HAL_Driver/Src/stm32u5xx_hal_flash_ex.c **** }
 2047              		.loc 1 242 3 view .LVU660
 243:Drivers/STM32U5xx_HAL_Driver/Src/stm32u5xx_hal_flash_ex.c **** 
 2048              		.loc 1 243 1 is_stmt 0 view .LVU661
 2049 008a 6046     		mov	r0, ip
 2050 008c 70BD     		pop	{r4, r5, r6, pc}
 2051              	.LVL174:
 2052              	.L191:
 2053              	.LCFI12:
 2054              		.cfi_def_cfa_offset 0
 2055              		.cfi_restore 4
 2056              		.cfi_restore 5
 2057              		.cfi_restore 6
 2058              		.cfi_restore 14
 190:Drivers/STM32U5xx_HAL_Driver/Src/stm32u5xx_hal_flash_ex.c **** 
 2059              		.loc 1 190 3 view .LVU662
 2060 008e 4FF0020C 		mov	ip, #2
 243:Drivers/STM32U5xx_HAL_Driver/Src/stm32u5xx_hal_flash_ex.c **** 
 2061              		.loc 1 243 1 view .LVU663
 2062 0092 6046     		mov	r0, ip
 2063              	.LVL175:
 243:Drivers/STM32U5xx_HAL_Driver/Src/stm32u5xx_hal_flash_ex.c **** 
 2064              		.loc 1 243 1 view .LVU664
 2065 0094 7047     		bx	lr
 2066              	.L199:
 2067 0096 00BF     		.align	2
 2068              	.L198:
 2069 0098 00000000 		.word	pFlash
 2070 009c 00200240 		.word	1073881088
 2071              		.cfi_endproc
 2072              	.LFE345:
 2074              		.section	.text.HAL_FLASHEx_Erase_IT,"ax",%progbits
 2075              		.align	1
 2076              		.global	HAL_FLASHEx_Erase_IT
 2077              		.syntax unified
 2078              		.thumb
 2079              		.thumb_func
 2081              	HAL_FLASHEx_Erase_IT:
 2082              	.LVL176:
 2083              	.LFB346:
 253:Drivers/STM32U5xx_HAL_Driver/Src/stm32u5xx_hal_flash_ex.c ****   HAL_StatusTypeDef status;
 2084              		.loc 1 253 1 is_stmt 1 view -0
 2085              		.cfi_startproc
 2086              		@ args = 0, pretend = 0, frame = 0
 2087              		@ frame_needed = 0, uses_anonymous_args = 0
 253:Drivers/STM32U5xx_HAL_Driver/Src/stm32u5xx_hal_flash_ex.c ****   HAL_StatusTypeDef status;
 2088              		.loc 1 253 1 is_stmt 0 view .LVU666
 2089 0000 38B5     		push	{r3, r4, r5, lr}
 2090              	.LCFI13:
 2091              		.cfi_def_cfa_offset 16
 2092              		.cfi_offset 3, -16
 2093              		.cfi_offset 4, -12
 2094              		.cfi_offset 5, -8
ARM GAS  /tmp/ccudYRdF.s 			page 78


 2095              		.cfi_offset 14, -4
 254:Drivers/STM32U5xx_HAL_Driver/Src/stm32u5xx_hal_flash_ex.c ****   __IO uint32_t *reg_cr;
 2096              		.loc 1 254 3 is_stmt 1 view .LVU667
 255:Drivers/STM32U5xx_HAL_Driver/Src/stm32u5xx_hal_flash_ex.c **** 
 2097              		.loc 1 255 3 view .LVU668
 258:Drivers/STM32U5xx_HAL_Driver/Src/stm32u5xx_hal_flash_ex.c **** 
 2098              		.loc 1 258 3 view .LVU669
 261:Drivers/STM32U5xx_HAL_Driver/Src/stm32u5xx_hal_flash_ex.c **** 
 2099              		.loc 1 261 3 view .LVU670
 261:Drivers/STM32U5xx_HAL_Driver/Src/stm32u5xx_hal_flash_ex.c **** 
 2100              		.loc 1 261 3 view .LVU671
 2101 0002 1A4B     		ldr	r3, .L207
 2102 0004 1B78     		ldrb	r3, [r3]	@ zero_extendqisi2
 2103 0006 012B     		cmp	r3, #1
 2104 0008 2ED0     		beq	.L204
 2105 000a 0446     		mov	r4, r0
 261:Drivers/STM32U5xx_HAL_Driver/Src/stm32u5xx_hal_flash_ex.c **** 
 2106              		.loc 1 261 3 discriminator 2 view .LVU672
 2107 000c 174B     		ldr	r3, .L207
 2108 000e 0122     		movs	r2, #1
 2109 0010 1A70     		strb	r2, [r3]
 261:Drivers/STM32U5xx_HAL_Driver/Src/stm32u5xx_hal_flash_ex.c **** 
 2110              		.loc 1 261 3 discriminator 2 view .LVU673
 264:Drivers/STM32U5xx_HAL_Driver/Src/stm32u5xx_hal_flash_ex.c **** 
 2111              		.loc 1 264 3 discriminator 2 view .LVU674
 264:Drivers/STM32U5xx_HAL_Driver/Src/stm32u5xx_hal_flash_ex.c **** 
 2112              		.loc 1 264 20 is_stmt 0 discriminator 2 view .LVU675
 2113 0012 0022     		movs	r2, #0
 2114 0014 5A60     		str	r2, [r3, #4]
 267:Drivers/STM32U5xx_HAL_Driver/Src/stm32u5xx_hal_flash_ex.c **** 
 2115              		.loc 1 267 3 is_stmt 1 discriminator 2 view .LVU676
 267:Drivers/STM32U5xx_HAL_Driver/Src/stm32u5xx_hal_flash_ex.c **** 
 2116              		.loc 1 267 12 is_stmt 0 discriminator 2 view .LVU677
 2117 0016 4FF47A70 		mov	r0, #1000
 2118              	.LVL177:
 267:Drivers/STM32U5xx_HAL_Driver/Src/stm32u5xx_hal_flash_ex.c **** 
 2119              		.loc 1 267 12 discriminator 2 view .LVU678
 2120 001a FFF7FEFF 		bl	FLASH_WaitForLastOperation
 2121              	.LVL178:
 269:Drivers/STM32U5xx_HAL_Driver/Src/stm32u5xx_hal_flash_ex.c ****   {
 2122              		.loc 1 269 3 is_stmt 1 discriminator 2 view .LVU679
 269:Drivers/STM32U5xx_HAL_Driver/Src/stm32u5xx_hal_flash_ex.c ****   {
 2123              		.loc 1 269 6 is_stmt 0 discriminator 2 view .LVU680
 2124 001e 0546     		mov	r5, r0
 2125 0020 20B1     		cbz	r0, .L202
 272:Drivers/STM32U5xx_HAL_Driver/Src/stm32u5xx_hal_flash_ex.c ****   }
 2126              		.loc 1 272 5 is_stmt 1 view .LVU681
 272:Drivers/STM32U5xx_HAL_Driver/Src/stm32u5xx_hal_flash_ex.c ****   }
 2127              		.loc 1 272 5 view .LVU682
 2128 0022 124B     		ldr	r3, .L207
 2129 0024 0022     		movs	r2, #0
 2130 0026 1A70     		strb	r2, [r3]
 272:Drivers/STM32U5xx_HAL_Driver/Src/stm32u5xx_hal_flash_ex.c ****   }
 2131              		.loc 1 272 5 view .LVU683
 2132              	.LVL179:
 2133              	.L201:
 303:Drivers/STM32U5xx_HAL_Driver/Src/stm32u5xx_hal_flash_ex.c **** 
ARM GAS  /tmp/ccudYRdF.s 			page 79


 2134              		.loc 1 303 1 is_stmt 0 view .LVU684
 2135 0028 2846     		mov	r0, r5
 2136 002a 38BD     		pop	{r3, r4, r5, pc}
 2137              	.LVL180:
 2138              	.L202:
 277:Drivers/STM32U5xx_HAL_Driver/Src/stm32u5xx_hal_flash_ex.c ****     pFlash.Bank = pEraseInit->Banks;
 2139              		.loc 1 277 5 is_stmt 1 view .LVU685
 277:Drivers/STM32U5xx_HAL_Driver/Src/stm32u5xx_hal_flash_ex.c ****     pFlash.Bank = pEraseInit->Banks;
 2140              		.loc 1 277 41 is_stmt 0 view .LVU686
 2141 002c 2268     		ldr	r2, [r4]
 277:Drivers/STM32U5xx_HAL_Driver/Src/stm32u5xx_hal_flash_ex.c ****     pFlash.Bank = pEraseInit->Banks;
 2142              		.loc 1 277 29 view .LVU687
 2143 002e 0F4B     		ldr	r3, .L207
 2144 0030 9A60     		str	r2, [r3, #8]
 278:Drivers/STM32U5xx_HAL_Driver/Src/stm32u5xx_hal_flash_ex.c **** 
 2145              		.loc 1 278 5 is_stmt 1 view .LVU688
 278:Drivers/STM32U5xx_HAL_Driver/Src/stm32u5xx_hal_flash_ex.c **** 
 2146              		.loc 1 278 29 is_stmt 0 view .LVU689
 2147 0032 6268     		ldr	r2, [r4, #4]
 278:Drivers/STM32U5xx_HAL_Driver/Src/stm32u5xx_hal_flash_ex.c **** 
 2148              		.loc 1 278 17 view .LVU690
 2149 0034 1A61     		str	r2, [r3, #16]
 281:Drivers/STM32U5xx_HAL_Driver/Src/stm32u5xx_hal_flash_ex.c **** 
 2150              		.loc 1 281 5 is_stmt 1 view .LVU691
 2151              	.LVL181:
 284:Drivers/STM32U5xx_HAL_Driver/Src/stm32u5xx_hal_flash_ex.c **** 
 2152              		.loc 1 284 5 view .LVU692
 284:Drivers/STM32U5xx_HAL_Driver/Src/stm32u5xx_hal_flash_ex.c **** 
 2153              		.loc 1 284 15 is_stmt 0 view .LVU693
 2154 0036 0E4A     		ldr	r2, .L207+4
 2155 0038 936A     		ldr	r3, [r2, #40]
 2156 003a 43F04073 		orr	r3, r3, #50331648
 2157 003e 9362     		str	r3, [r2, #40]
 286:Drivers/STM32U5xx_HAL_Driver/Src/stm32u5xx_hal_flash_ex.c ****     {
 2158              		.loc 1 286 5 is_stmt 1 view .LVU694
 286:Drivers/STM32U5xx_HAL_Driver/Src/stm32u5xx_hal_flash_ex.c ****     {
 2159              		.loc 1 286 20 is_stmt 0 view .LVU695
 2160 0040 2368     		ldr	r3, [r4]
 286:Drivers/STM32U5xx_HAL_Driver/Src/stm32u5xx_hal_flash_ex.c ****     {
 2161              		.loc 1 286 32 view .LVU696
 2162 0042 23F00043 		bic	r3, r3, #-2147483648
 286:Drivers/STM32U5xx_HAL_Driver/Src/stm32u5xx_hal_flash_ex.c ****     {
 2163              		.loc 1 286 8 view .LVU697
 2164 0046 48F20402 		movw	r2, #32772
 2165 004a 9342     		cmp	r3, r2
 2166 004c 08D0     		beq	.L206
 294:Drivers/STM32U5xx_HAL_Driver/Src/stm32u5xx_hal_flash_ex.c ****       pFlash.Page = pEraseInit->Page;
 2167              		.loc 1 294 7 is_stmt 1 view .LVU698
 294:Drivers/STM32U5xx_HAL_Driver/Src/stm32u5xx_hal_flash_ex.c ****       pFlash.Page = pEraseInit->Page;
 2168              		.loc 1 294 41 is_stmt 0 view .LVU699
 2169 004e E268     		ldr	r2, [r4, #12]
 294:Drivers/STM32U5xx_HAL_Driver/Src/stm32u5xx_hal_flash_ex.c ****       pFlash.Page = pEraseInit->Page;
 2170              		.loc 1 294 29 view .LVU700
 2171 0050 064B     		ldr	r3, .L207
 2172 0052 9A61     		str	r2, [r3, #24]
 295:Drivers/STM32U5xx_HAL_Driver/Src/stm32u5xx_hal_flash_ex.c **** 
 2173              		.loc 1 295 7 is_stmt 1 view .LVU701
ARM GAS  /tmp/ccudYRdF.s 			page 80


 295:Drivers/STM32U5xx_HAL_Driver/Src/stm32u5xx_hal_flash_ex.c **** 
 2174              		.loc 1 295 31 is_stmt 0 view .LVU702
 2175 0054 A068     		ldr	r0, [r4, #8]
 2176              	.LVL182:
 295:Drivers/STM32U5xx_HAL_Driver/Src/stm32u5xx_hal_flash_ex.c **** 
 2177              		.loc 1 295 19 view .LVU703
 2178 0056 5861     		str	r0, [r3, #20]
 298:Drivers/STM32U5xx_HAL_Driver/Src/stm32u5xx_hal_flash_ex.c ****     }
 2179              		.loc 1 298 7 is_stmt 1 view .LVU704
 2180 0058 6168     		ldr	r1, [r4, #4]
 2181 005a FFF7FEFF 		bl	FLASH_PageErase
 2182              	.LVL183:
 2183 005e E3E7     		b	.L201
 2184              	.LVL184:
 2185              	.L206:
 289:Drivers/STM32U5xx_HAL_Driver/Src/stm32u5xx_hal_flash_ex.c ****     }
 2186              		.loc 1 289 7 view .LVU705
 2187 0060 6068     		ldr	r0, [r4, #4]
 2188              	.LVL185:
 289:Drivers/STM32U5xx_HAL_Driver/Src/stm32u5xx_hal_flash_ex.c ****     }
 2189              		.loc 1 289 7 is_stmt 0 view .LVU706
 2190 0062 FFF7FEFF 		bl	FLASH_MassErase
 2191              	.LVL186:
 2192 0066 DFE7     		b	.L201
 2193              	.LVL187:
 2194              	.L204:
 261:Drivers/STM32U5xx_HAL_Driver/Src/stm32u5xx_hal_flash_ex.c **** 
 2195              		.loc 1 261 3 view .LVU707
 2196 0068 0225     		movs	r5, #2
 2197 006a DDE7     		b	.L201
 2198              	.L208:
 2199              		.align	2
 2200              	.L207:
 2201 006c 00000000 		.word	pFlash
 2202 0070 00200240 		.word	1073881088
 2203              		.cfi_endproc
 2204              	.LFE346:
 2206              		.text
 2207              	.Letext0:
 2208              		.file 3 "/home/eddie/arm/arm_tools/arm-none-eabi/include/machine/_default_types.h"
 2209              		.file 4 "/home/eddie/arm/arm_tools/arm-none-eabi/include/sys/_stdint.h"
 2210              		.file 5 "Drivers/CMSIS/Device/ST/STM32U5xx/Include/stm32u575xx.h"
 2211              		.file 6 "Drivers/CMSIS/Device/ST/STM32U5xx/Include/stm32u5xx.h"
 2212              		.file 7 "Drivers/STM32U5xx_HAL_Driver/Inc/stm32u5xx_hal_def.h"
 2213              		.file 8 "Drivers/STM32U5xx_HAL_Driver/Inc/stm32u5xx_hal_flash.h"
 2214              		.file 9 "Drivers/STM32U5xx_HAL_Driver/Inc/stm32u5xx_hal_flash_ex.h"
 2215              		.file 10 "Drivers/STM32U5xx_HAL_Driver/Inc/stm32u5xx_hal.h"
ARM GAS  /tmp/ccudYRdF.s 			page 81


DEFINED SYMBOLS
                            *ABS*:0000000000000000 stm32u5xx_hal_flash_ex.c
     /tmp/ccudYRdF.s:21     .text.FLASH_MassErase:0000000000000000 $t
     /tmp/ccudYRdF.s:26     .text.FLASH_MassErase:0000000000000000 FLASH_MassErase
     /tmp/ccudYRdF.s:64     .text.FLASH_MassErase:0000000000000028 $d
     /tmp/ccudYRdF.s:69     .text.FLASH_OB_WRPConfig:0000000000000000 $t
     /tmp/ccudYRdF.s:74     .text.FLASH_OB_WRPConfig:0000000000000000 FLASH_OB_WRPConfig
     /tmp/ccudYRdF.s:182    .text.FLASH_OB_WRPConfig:0000000000000054 $d
     /tmp/ccudYRdF.s:187    .text.FLASH_OB_RDPConfig:0000000000000000 $t
     /tmp/ccudYRdF.s:192    .text.FLASH_OB_RDPConfig:0000000000000000 FLASH_OB_RDPConfig
     /tmp/ccudYRdF.s:212    .text.FLASH_OB_RDPConfig:0000000000000010 $d
     /tmp/ccudYRdF.s:217    .text.FLASH_OB_RDPKeyConfig:0000000000000000 $t
     /tmp/ccudYRdF.s:222    .text.FLASH_OB_RDPKeyConfig:0000000000000000 FLASH_OB_RDPKeyConfig
     /tmp/ccudYRdF.s:252    .text.FLASH_OB_RDPKeyConfig:0000000000000014 $d
     /tmp/ccudYRdF.s:257    .text.FLASH_OB_UserConfig:0000000000000000 $t
     /tmp/ccudYRdF.s:262    .text.FLASH_OB_UserConfig:0000000000000000 FLASH_OB_UserConfig
     /tmp/ccudYRdF.s:629    .text.FLASH_OB_UserConfig:0000000000000190 $d
     /tmp/ccudYRdF.s:634    .text.FLASH_OB_BootAddrConfig:0000000000000000 $t
     /tmp/ccudYRdF.s:639    .text.FLASH_OB_BootAddrConfig:0000000000000000 FLASH_OB_BootAddrConfig
     /tmp/ccudYRdF.s:676    .text.FLASH_OB_BootAddrConfig:0000000000000018 $d
     /tmp/ccudYRdF.s:681    .text.FLASH_OB_GetWRP:0000000000000000 $t
     /tmp/ccudYRdF.s:686    .text.FLASH_OB_GetWRP:0000000000000000 FLASH_OB_GetWRP
     /tmp/ccudYRdF.s:843    .text.FLASH_OB_GetWRP:0000000000000088 $d
     /tmp/ccudYRdF.s:848    .text.FLASH_OB_GetRDP:0000000000000000 $t
     /tmp/ccudYRdF.s:853    .text.FLASH_OB_GetRDP:0000000000000000 FLASH_OB_GetRDP
     /tmp/ccudYRdF.s:886    .text.FLASH_OB_GetRDP:0000000000000018 $d
     /tmp/ccudYRdF.s:891    .text.FLASH_OB_GetUser:0000000000000000 $t
     /tmp/ccudYRdF.s:896    .text.FLASH_OB_GetUser:0000000000000000 FLASH_OB_GetUser
     /tmp/ccudYRdF.s:918    .text.FLASH_OB_GetUser:000000000000000c $d
     /tmp/ccudYRdF.s:923    .text.FLASH_OB_GetBootAddr:0000000000000000 $t
     /tmp/ccudYRdF.s:928    .text.FLASH_OB_GetBootAddr:0000000000000000 FLASH_OB_GetBootAddr
     /tmp/ccudYRdF.s:972    .text.FLASH_OB_GetBootAddr:0000000000000024 $d
     /tmp/ccudYRdF.s:977    .text.HAL_FLASHEx_OBProgram:0000000000000000 $t
     /tmp/ccudYRdF.s:983    .text.HAL_FLASHEx_OBProgram:0000000000000000 HAL_FLASHEx_OBProgram
     /tmp/ccudYRdF.s:1134   .text.HAL_FLASHEx_OBProgram:000000000000009c $d
     /tmp/ccudYRdF.s:1140   .text.HAL_FLASHEx_OBGetConfig:0000000000000000 $t
     /tmp/ccudYRdF.s:1146   .text.HAL_FLASHEx_OBGetConfig:0000000000000000 HAL_FLASHEx_OBGetConfig
     /tmp/ccudYRdF.s:1231   .text.HAL_FLASHEx_ConfigBBAttributes:0000000000000000 $t
     /tmp/ccudYRdF.s:1237   .text.HAL_FLASHEx_ConfigBBAttributes:0000000000000000 HAL_FLASHEx_ConfigBBAttributes
     /tmp/ccudYRdF.s:1355   .text.HAL_FLASHEx_ConfigBBAttributes:000000000000004c $d
     /tmp/ccudYRdF.s:1362   .text.HAL_FLASHEx_GetConfigBBAttributes:0000000000000000 $t
     /tmp/ccudYRdF.s:1368   .text.HAL_FLASHEx_GetConfigBBAttributes:0000000000000000 HAL_FLASHEx_GetConfigBBAttributes
     /tmp/ccudYRdF.s:1460   .text.HAL_FLASHEx_GetConfigBBAttributes:0000000000000044 $d
     /tmp/ccudYRdF.s:1468   .text.HAL_FLASHEx_ConfigPrivMode:0000000000000000 $t
     /tmp/ccudYRdF.s:1474   .text.HAL_FLASHEx_ConfigPrivMode:0000000000000000 HAL_FLASHEx_ConfigPrivMode
     /tmp/ccudYRdF.s:1494   .text.HAL_FLASHEx_ConfigPrivMode:0000000000000014 $d
     /tmp/ccudYRdF.s:1499   .text.HAL_FLASHEx_GetPrivMode:0000000000000000 $t
     /tmp/ccudYRdF.s:1505   .text.HAL_FLASHEx_GetPrivMode:0000000000000000 HAL_FLASHEx_GetPrivMode
     /tmp/ccudYRdF.s:1522   .text.HAL_FLASHEx_GetPrivMode:000000000000000c $d
     /tmp/ccudYRdF.s:1527   .text.HAL_FLASHEx_EnablePowerDown:0000000000000000 $t
     /tmp/ccudYRdF.s:1533   .text.HAL_FLASHEx_EnablePowerDown:0000000000000000 HAL_FLASHEx_EnablePowerDown
     /tmp/ccudYRdF.s:1711   .text.HAL_FLASHEx_EnablePowerDown:00000000000000b4 $d
     /tmp/ccudYRdF.s:1720   .text.HAL_FLASHEx_ConfigLowPowerRead:0000000000000000 $t
     /tmp/ccudYRdF.s:1726   .text.HAL_FLASHEx_ConfigLowPowerRead:0000000000000000 HAL_FLASHEx_ConfigLowPowerRead
     /tmp/ccudYRdF.s:1765   .text.HAL_FLASHEx_ConfigLowPowerRead:0000000000000020 $d
     /tmp/ccudYRdF.s:1770   .text.HAL_FLASHEx_GetLowPowerRead:0000000000000000 $t
     /tmp/ccudYRdF.s:1776   .text.HAL_FLASHEx_GetLowPowerRead:0000000000000000 HAL_FLASHEx_GetLowPowerRead
ARM GAS  /tmp/ccudYRdF.s 			page 82


     /tmp/ccudYRdF.s:1793   .text.HAL_FLASHEx_GetLowPowerRead:000000000000000c $d
     /tmp/ccudYRdF.s:1798   .text.HAL_FLASHEx_GetOperation:0000000000000000 $t
     /tmp/ccudYRdF.s:1804   .text.HAL_FLASHEx_GetOperation:0000000000000000 HAL_FLASHEx_GetOperation
     /tmp/ccudYRdF.s:1838   .text.HAL_FLASHEx_GetOperation:0000000000000018 $d
     /tmp/ccudYRdF.s:1843   .text.FLASH_PageErase:0000000000000000 $t
     /tmp/ccudYRdF.s:1849   .text.FLASH_PageErase:0000000000000000 FLASH_PageErase
     /tmp/ccudYRdF.s:1895   .text.FLASH_PageErase:0000000000000038 $d
     /tmp/ccudYRdF.s:1900   .text.HAL_FLASHEx_Erase:0000000000000000 $t
     /tmp/ccudYRdF.s:1906   .text.HAL_FLASHEx_Erase:0000000000000000 HAL_FLASHEx_Erase
     /tmp/ccudYRdF.s:2069   .text.HAL_FLASHEx_Erase:0000000000000098 $d
     /tmp/ccudYRdF.s:2075   .text.HAL_FLASHEx_Erase_IT:0000000000000000 $t
     /tmp/ccudYRdF.s:2081   .text.HAL_FLASHEx_Erase_IT:0000000000000000 HAL_FLASHEx_Erase_IT
     /tmp/ccudYRdF.s:2201   .text.HAL_FLASHEx_Erase_IT:000000000000006c $d

UNDEFINED SYMBOLS
FLASH_WaitForLastOperation
pFlash
HAL_GetTick
